;***************************************************************
;* TMS320C2000 G3 C/C++ Codegen                               PC v22.6.1.LTS *
;* Date/Time created: Thu Oct 31 13:36:25 2024                 *
;***************************************************************
	.compiler_opts --abi=eabi --cla_support=cla0 --float_support=fpu64 --hll_source=on --idiv_support=idiv0 --issue_remarks --mem_model:code=flat --mem_model:data=large --object_format=elf --quiet --silicon_errata_fpu1_workaround=off --silicon_version=28 --symdebug:dwarf --symdebug:dwarf_version=4 --tmu_support=tmu0 
	.asg	XAR2, FP

$C$DW$CU	.dwtag  DW_TAG_compile_unit
	.dwattr $C$DW$CU, DW_AT_name("../Application/Dynamixel.c")
	.dwattr $C$DW$CU, DW_AT_producer("TI TMS320C2000 G3 C/C++ Codegen PC v22.6.1.LTS Copyright (c) 1996-2018 Texas Instruments Incorporated")
	.dwattr $C$DW$CU, DW_AT_TI_version(0x01)
	.dwattr $C$DW$CU, DW_AT_comp_dir("C:\Yahali\Nimrod\Sw3\BolshoyManipCpu2R3\CPU2")

$C$DW$1	.dwtag  DW_TAG_subprogram
	.dwattr $C$DW$1, DW_AT_name("SetSysTimerTargetSec")
	.dwattr $C$DW$1, DW_AT_linkage_name("SetSysTimerTargetSec")
	.dwattr $C$DW$1, DW_AT_declaration
	.dwattr $C$DW$1, DW_AT_external
	.dwattr $C$DW$1, DW_AT_decl_file("..\Application\TimerArr2.h")
	.dwattr $C$DW$1, DW_AT_decl_line(0x46)
	.dwattr $C$DW$1, DW_AT_decl_column(0x06)
$C$DW$2	.dwtag  DW_TAG_formal_parameter
	.dwattr $C$DW$2, DW_AT_type(*$C$DW$T$9)

$C$DW$3	.dwtag  DW_TAG_formal_parameter
	.dwattr $C$DW$3, DW_AT_type(*$C$DW$T$16)

$C$DW$4	.dwtag  DW_TAG_formal_parameter
	.dwattr $C$DW$4, DW_AT_type(*$C$DW$T$264)

	.dwendtag $C$DW$1


$C$DW$5	.dwtag  DW_TAG_subprogram
	.dwattr $C$DW$5, DW_AT_name("SetAxisFeedback24")
	.dwattr $C$DW$5, DW_AT_linkage_name("SetAxisFeedback24")
	.dwattr $C$DW$5, DW_AT_declaration
	.dwattr $C$DW$5, DW_AT_external
	.dwattr $C$DW$5, DW_AT_decl_file("..\Application\Functions2.h")
	.dwattr $C$DW$5, DW_AT_decl_line(0xc0)
	.dwattr $C$DW$5, DW_AT_decl_column(0x06)
$C$DW$6	.dwtag  DW_TAG_formal_parameter
	.dwattr $C$DW$6, DW_AT_type(*$C$DW$T$9)

$C$DW$7	.dwtag  DW_TAG_formal_parameter
	.dwattr $C$DW$7, DW_AT_type(*$C$DW$T$16)

$C$DW$8	.dwtag  DW_TAG_formal_parameter
	.dwattr $C$DW$8, DW_AT_type(*$C$DW$T$16)

$C$DW$9	.dwtag  DW_TAG_formal_parameter
	.dwattr $C$DW$9, DW_AT_type(*$C$DW$T$8)

$C$DW$10	.dwtag  DW_TAG_formal_parameter
	.dwattr $C$DW$10, DW_AT_type(*$C$DW$T$9)

	.dwendtag $C$DW$5


$C$DW$11	.dwtag  DW_TAG_subprogram
	.dwattr $C$DW$11, DW_AT_name("UpdateManipulatorControl24")
	.dwattr $C$DW$11, DW_AT_linkage_name("UpdateManipulatorControl24")
	.dwattr $C$DW$11, DW_AT_declaration
	.dwattr $C$DW$11, DW_AT_external
	.dwattr $C$DW$11, DW_AT_decl_file("..\Application\Functions2.h")
	.dwattr $C$DW$11, DW_AT_decl_line(0xc3)
	.dwattr $C$DW$11, DW_AT_decl_column(0x06)
$C$DW$12	.dwtag  DW_TAG_formal_parameter
	.dwattr $C$DW$12, DW_AT_type(*$C$DW$T$9)

$C$DW$13	.dwtag  DW_TAG_formal_parameter
	.dwattr $C$DW$13, DW_AT_type(*$C$DW$T$100)

$C$DW$14	.dwtag  DW_TAG_formal_parameter
	.dwattr $C$DW$14, DW_AT_type(*$C$DW$T$83)

	.dwendtag $C$DW$11


$C$DW$15	.dwtag  DW_TAG_subprogram
	.dwattr $C$DW$15, DW_AT_name("InitDynState")
	.dwattr $C$DW$15, DW_AT_linkage_name("InitDynState")
	.dwattr $C$DW$15, DW_AT_declaration
	.dwattr $C$DW$15, DW_AT_external
	.dwattr $C$DW$15, DW_AT_decl_file("..\Application\Functions2.h")
	.dwattr $C$DW$15, DW_AT_decl_line(0xcd)
	.dwattr $C$DW$15, DW_AT_decl_column(0x06)
$C$DW$16	.dwtag  DW_TAG_formal_parameter
	.dwattr $C$DW$16, DW_AT_type(*$C$DW$T$9)

$C$DW$17	.dwtag  DW_TAG_formal_parameter
	.dwattr $C$DW$17, DW_AT_type(*$C$DW$T$257)

	.dwendtag $C$DW$15


$C$DW$18	.dwtag  DW_TAG_subprogram
	.dwattr $C$DW$18, DW_AT_name("SetSysTimerTarget")
	.dwattr $C$DW$18, DW_AT_linkage_name("SetSysTimerTarget")
	.dwattr $C$DW$18, DW_AT_declaration
	.dwattr $C$DW$18, DW_AT_external
	.dwattr $C$DW$18, DW_AT_decl_file("..\Application\TimerArr2.h")
	.dwattr $C$DW$18, DW_AT_decl_line(0x43)
	.dwattr $C$DW$18, DW_AT_decl_column(0x06)
$C$DW$19	.dwtag  DW_TAG_formal_parameter
	.dwattr $C$DW$19, DW_AT_type(*$C$DW$T$9)

$C$DW$20	.dwtag  DW_TAG_formal_parameter
	.dwattr $C$DW$20, DW_AT_type(*$C$DW$T$13)

$C$DW$21	.dwtag  DW_TAG_formal_parameter
	.dwattr $C$DW$21, DW_AT_type(*$C$DW$T$264)

	.dwendtag $C$DW$18


$C$DW$22	.dwtag  DW_TAG_subprogram
	.dwattr $C$DW$22, DW_AT_name("RestoreInts")
	.dwattr $C$DW$22, DW_AT_linkage_name("RestoreInts")
	.dwattr $C$DW$22, DW_AT_declaration
	.dwattr $C$DW$22, DW_AT_external
	.dwattr $C$DW$22, DW_AT_decl_file("..\Application\SysUtils2.h")
	.dwattr $C$DW$22, DW_AT_decl_line(0x36)
	.dwattr $C$DW$22, DW_AT_decl_column(0x06)
$C$DW$23	.dwtag  DW_TAG_formal_parameter
	.dwattr $C$DW$23, DW_AT_type(*$C$DW$T$9)

	.dwendtag $C$DW$22


$C$DW$24	.dwtag  DW_TAG_subprogram
	.dwattr $C$DW$24, DW_AT_name("ResetProfiler")
	.dwattr $C$DW$24, DW_AT_linkage_name("ResetProfiler")
	.dwattr $C$DW$24, DW_AT_declaration
	.dwattr $C$DW$24, DW_AT_external
	.dwattr $C$DW$24, DW_AT_decl_file("..\Application\TrapezeProfiler2.h")
	.dwattr $C$DW$24, DW_AT_decl_line(0x23)
	.dwattr $C$DW$24, DW_AT_decl_column(0x06)
$C$DW$25	.dwtag  DW_TAG_formal_parameter
	.dwattr $C$DW$25, DW_AT_type(*$C$DW$T$263)

$C$DW$26	.dwtag  DW_TAG_formal_parameter
	.dwattr $C$DW$26, DW_AT_type(*$C$DW$T$16)

$C$DW$27	.dwtag  DW_TAG_formal_parameter
	.dwattr $C$DW$27, DW_AT_type(*$C$DW$T$16)

$C$DW$28	.dwtag  DW_TAG_formal_parameter
	.dwattr $C$DW$28, DW_AT_type(*$C$DW$T$9)

	.dwendtag $C$DW$24

$C$DW$29	.dwtag  DW_TAG_variable
	.dwattr $C$DW$29, DW_AT_name("ManCBit")
	.dwattr $C$DW$29, DW_AT_linkage_name("ManCBit")
	.dwattr $C$DW$29, DW_AT_type(*$C$DW$T$109)
	.dwattr $C$DW$29, DW_AT_declaration
	.dwattr $C$DW$29, DW_AT_external
	.dwattr $C$DW$29, DW_AT_decl_file("..\Application\StructDef2.h")
	.dwattr $C$DW$29, DW_AT_decl_line(0x106)
	.dwattr $C$DW$29, DW_AT_decl_column(0x1c)

$C$DW$30	.dwtag  DW_TAG_variable
	.dwattr $C$DW$30, DW_AT_name("NUM_24V_AXES")
	.dwattr $C$DW$30, DW_AT_linkage_name("NUM_24V_AXES")
	.dwattr $C$DW$30, DW_AT_type(*$C$DW$T$9)
	.dwattr $C$DW$30, DW_AT_declaration
	.dwattr $C$DW$30, DW_AT_external
	.dwattr $C$DW$30, DW_AT_decl_file("..\Application\StructDef2.h")
	.dwattr $C$DW$30, DW_AT_decl_line(0x154)
	.dwattr $C$DW$30, DW_AT_decl_column(0x1b)

$C$DW$31	.dwtag  DW_TAG_variable
	.dwattr $C$DW$31, DW_AT_name("NUM_12V_MANIP_AXES")
	.dwattr $C$DW$31, DW_AT_linkage_name("NUM_12V_MANIP_AXES")
	.dwattr $C$DW$31, DW_AT_type(*$C$DW$T$9)
	.dwattr $C$DW$31, DW_AT_declaration
	.dwattr $C$DW$31, DW_AT_external
	.dwattr $C$DW$31, DW_AT_decl_file("..\Application\StructDef2.h")
	.dwattr $C$DW$31, DW_AT_decl_line(0x155)
	.dwattr $C$DW$31, DW_AT_decl_column(0x1b)

$C$DW$32	.dwtag  DW_TAG_variable
	.dwattr $C$DW$32, DW_AT_name("NUM_12V_WHEELARM_AXES")
	.dwattr $C$DW$32, DW_AT_linkage_name("NUM_12V_WHEELARM_AXES")
	.dwattr $C$DW$32, DW_AT_type(*$C$DW$T$9)
	.dwattr $C$DW$32, DW_AT_declaration
	.dwattr $C$DW$32, DW_AT_external
	.dwattr $C$DW$32, DW_AT_decl_file("..\Application\StructDef2.h")
	.dwattr $C$DW$32, DW_AT_decl_line(0x156)
	.dwattr $C$DW$32, DW_AT_decl_column(0x1b)

$C$DW$33	.dwtag  DW_TAG_variable
	.dwattr $C$DW$33, DW_AT_name("ManipulatorType")
	.dwattr $C$DW$33, DW_AT_linkage_name("ManipulatorType")
	.dwattr $C$DW$33, DW_AT_type(*$C$DW$T$9)
	.dwattr $C$DW$33, DW_AT_declaration
	.dwattr $C$DW$33, DW_AT_external
	.dwattr $C$DW$33, DW_AT_decl_file("..\Application\StructDef2.h")
	.dwattr $C$DW$33, DW_AT_decl_line(0x4cc)
	.dwattr $C$DW$33, DW_AT_decl_column(0x1b)


$C$DW$34	.dwtag  DW_TAG_subprogram
	.dwattr $C$DW$34, DW_AT_name("IsSysTimerElapse")
	.dwattr $C$DW$34, DW_AT_linkage_name("IsSysTimerElapse")
	.dwattr $C$DW$34, DW_AT_type(*$C$DW$T$9)
	.dwattr $C$DW$34, DW_AT_declaration
	.dwattr $C$DW$34, DW_AT_external
	.dwattr $C$DW$34, DW_AT_decl_file("..\Application\TimerArr2.h")
	.dwattr $C$DW$34, DW_AT_decl_line(0x54)
	.dwattr $C$DW$34, DW_AT_decl_column(0x10)
$C$DW$35	.dwtag  DW_TAG_formal_parameter
	.dwattr $C$DW$35, DW_AT_type(*$C$DW$T$9)

$C$DW$36	.dwtag  DW_TAG_formal_parameter
	.dwattr $C$DW$36, DW_AT_type(*$C$DW$T$264)

	.dwendtag $C$DW$34


$C$DW$37	.dwtag  DW_TAG_subprogram
	.dwattr $C$DW$37, DW_AT_name("CbitCounterUpdate")
	.dwattr $C$DW$37, DW_AT_linkage_name("CbitCounterUpdate")
	.dwattr $C$DW$37, DW_AT_type(*$C$DW$T$8)
	.dwattr $C$DW$37, DW_AT_declaration
	.dwattr $C$DW$37, DW_AT_external
	.dwattr $C$DW$37, DW_AT_decl_file("..\Application\TimerArr2.h")
	.dwattr $C$DW$37, DW_AT_decl_line(0x69)
	.dwattr $C$DW$37, DW_AT_decl_column(0x07)
$C$DW$38	.dwtag  DW_TAG_formal_parameter
	.dwattr $C$DW$38, DW_AT_type(*$C$DW$T$8)

$C$DW$39	.dwtag  DW_TAG_formal_parameter
	.dwattr $C$DW$39, DW_AT_type(*$C$DW$T$253)

	.dwendtag $C$DW$37


$C$DW$40	.dwtag  DW_TAG_subprogram
	.dwattr $C$DW$40, DW_AT_name("BlockInts")
	.dwattr $C$DW$40, DW_AT_linkage_name("BlockInts")
	.dwattr $C$DW$40, DW_AT_type(*$C$DW$T$9)
	.dwattr $C$DW$40, DW_AT_declaration
	.dwattr $C$DW$40, DW_AT_external
	.dwattr $C$DW$40, DW_AT_decl_file("..\Application\SysUtils2.h")
	.dwattr $C$DW$40, DW_AT_decl_line(0x35)
	.dwattr $C$DW$40, DW_AT_decl_column(0x10)
	.dwendtag $C$DW$40


$C$DW$41	.dwtag  DW_TAG_subprogram
	.dwattr $C$DW$41, DW_AT_name("GetShortFromStr")
	.dwattr $C$DW$41, DW_AT_linkage_name("GetShortFromStr")
	.dwattr $C$DW$41, DW_AT_type(*$C$DW$T$8)
	.dwattr $C$DW$41, DW_AT_declaration
	.dwattr $C$DW$41, DW_AT_external
	.dwattr $C$DW$41, DW_AT_decl_file("..\Application\SysUtils2.h")
	.dwattr $C$DW$41, DW_AT_decl_line(0x2a)
	.dwattr $C$DW$41, DW_AT_decl_column(0x07)
$C$DW$42	.dwtag  DW_TAG_formal_parameter
	.dwattr $C$DW$42, DW_AT_type(*$C$DW$T$100)

	.dwendtag $C$DW$41

$C$DW$43	.dwtag  DW_TAG_variable
	.dwattr $C$DW$43, DW_AT_name("pDyn24Setup")
	.dwattr $C$DW$43, DW_AT_linkage_name("pDyn24Setup")
	.dwattr $C$DW$43, DW_AT_type(*$C$DW$T$257)
	.dwattr $C$DW$43, DW_AT_declaration
	.dwattr $C$DW$43, DW_AT_external
	.dwattr $C$DW$43, DW_AT_decl_file("..\Application\StructDef2.h")
	.dwattr $C$DW$43, DW_AT_decl_line(0x123)
	.dwattr $C$DW$43, DW_AT_decl_column(0x2f)

$C$DW$44	.dwtag  DW_TAG_variable
	.dwattr $C$DW$44, DW_AT_name("PBit")
	.dwattr $C$DW$44, DW_AT_linkage_name("PBit")
	.dwattr $C$DW$44, DW_AT_type(*$C$DW$T$121)
	.dwattr $C$DW$44, DW_AT_declaration
	.dwattr $C$DW$44, DW_AT_external
	.dwattr $C$DW$44, DW_AT_decl_file("..\Application\StructDef2.h")
	.dwattr $C$DW$44, DW_AT_decl_line(0x12e)
	.dwattr $C$DW$44, DW_AT_decl_column(0x19)

$C$DW$45	.dwtag  DW_TAG_variable
	.dwattr $C$DW$45, DW_AT_name("FlexDynSpeedCmdLimit")
	.dwattr $C$DW$45, DW_AT_linkage_name("FlexDynSpeedCmdLimit")
	.dwattr $C$DW$45, DW_AT_type(*$C$DW$T$16)
	.dwattr $C$DW$45, DW_AT_declaration
	.dwattr $C$DW$45, DW_AT_external
	.dwattr $C$DW$45, DW_AT_decl_file("..\Application\StructDef2.h")
	.dwattr $C$DW$45, DW_AT_decl_line(0x15c)
	.dwattr $C$DW$45, DW_AT_decl_column(0x12)


$C$DW$46	.dwtag  DW_TAG_subprogram
	.dwattr $C$DW$46, DW_AT_name("mod2piS")
	.dwattr $C$DW$46, DW_AT_linkage_name("mod2piS")
	.dwattr $C$DW$46, DW_AT_type(*$C$DW$T$16)
	.dwattr $C$DW$46, DW_AT_declaration
	.dwattr $C$DW$46, DW_AT_external
	.dwattr $C$DW$46, DW_AT_decl_file("..\Application\SysUtils2.h")
	.dwattr $C$DW$46, DW_AT_decl_line(0x15)
	.dwattr $C$DW$46, DW_AT_decl_column(0x07)
$C$DW$47	.dwtag  DW_TAG_formal_parameter
	.dwattr $C$DW$47, DW_AT_type(*$C$DW$T$16)

	.dwendtag $C$DW$46


$C$DW$48	.dwtag  DW_TAG_subprogram
	.dwattr $C$DW$48, DW_AT_name("GetLongFromStr")
	.dwattr $C$DW$48, DW_AT_linkage_name("GetLongFromStr")
	.dwattr $C$DW$48, DW_AT_type(*$C$DW$T$12)
	.dwattr $C$DW$48, DW_AT_declaration
	.dwattr $C$DW$48, DW_AT_external
	.dwattr $C$DW$48, DW_AT_decl_file("..\Application\SysUtils2.h")
	.dwattr $C$DW$48, DW_AT_decl_line(0x2b)
	.dwattr $C$DW$48, DW_AT_decl_column(0x07)
$C$DW$49	.dwtag  DW_TAG_formal_parameter
	.dwattr $C$DW$49, DW_AT_type(*$C$DW$T$100)

	.dwendtag $C$DW$48

$C$DW$50	.dwtag  DW_TAG_variable
	.dwattr $C$DW$50, DW_AT_name("BootPayload")
	.dwattr $C$DW$50, DW_AT_linkage_name("BootPayload")
	.dwattr $C$DW$50, DW_AT_type(*$C$DW$T$356)
	.dwattr $C$DW$50, DW_AT_declaration
	.dwattr $C$DW$50, DW_AT_external
	.dwattr $C$DW$50, DW_AT_decl_file("..\Application\StructDef2.h")
	.dwattr $C$DW$50, DW_AT_decl_line(0x523)
	.dwattr $C$DW$50, DW_AT_decl_column(0x1b)

	.global	||NextStuff||
	.sect	".const:NextStuff"
	.align	1
	.elfsym	||NextStuff||,SYM_SIZE(4)
||NextStuff||:
	.bits		0xff,16
			; NextStuff[0] @ 0
	.bits		0xff,16
			; NextStuff[1] @ 16
	.bits		0xfd,16
			; NextStuff[2] @ 32
	.bits		0xfd,16
			; NextStuff[3] @ 48

$C$DW$51	.dwtag  DW_TAG_variable
	.dwattr $C$DW$51, DW_AT_name("NextStuff")
	.dwattr $C$DW$51, DW_AT_linkage_name("NextStuff")
	.dwattr $C$DW$51, DW_AT_location[DW_OP_addr ||NextStuff||]
	.dwattr $C$DW$51, DW_AT_type(*$C$DW$T$343)
	.dwattr $C$DW$51, DW_AT_external
	.dwattr $C$DW$51, DW_AT_decl_file("../Application/Dynamixel.c")
	.dwattr $C$DW$51, DW_AT_decl_line(0x349)
	.dwattr $C$DW$51, DW_AT_decl_column(0x0d)

$C$DW$52	.dwtag  DW_TAG_variable
	.dwattr $C$DW$52, DW_AT_name("KnowWhereIAm24")
	.dwattr $C$DW$52, DW_AT_linkage_name("KnowWhereIAm24")
	.dwattr $C$DW$52, DW_AT_type(*$C$DW$T$355)
	.dwattr $C$DW$52, DW_AT_declaration
	.dwattr $C$DW$52, DW_AT_external
	.dwattr $C$DW$52, DW_AT_decl_file("..\Application\StructDef2.h")
	.dwattr $C$DW$52, DW_AT_decl_line(0x4e2)
	.dwattr $C$DW$52, DW_AT_decl_column(0x1b)

$C$DW$53	.dwtag  DW_TAG_variable
	.dwattr $C$DW$53, DW_AT_name("BootMsg")
	.dwattr $C$DW$53, DW_AT_linkage_name("BootMsg")
	.dwattr $C$DW$53, DW_AT_type(*$C$DW$T$101)
	.dwattr $C$DW$53, DW_AT_declaration
	.dwattr $C$DW$53, DW_AT_external
	.dwattr $C$DW$53, DW_AT_decl_file("..\Application\StructDef2.h")
	.dwattr $C$DW$53, DW_AT_decl_line(0x522)
	.dwattr $C$DW$53, DW_AT_decl_column(0x21)

$C$DW$54	.dwtag  DW_TAG_variable
	.dwattr $C$DW$54, DW_AT_name("CommStatistics24")
	.dwattr $C$DW$54, DW_AT_linkage_name("CommStatistics24")
	.dwattr $C$DW$54, DW_AT_type(*$C$DW$T$370)
	.dwattr $C$DW$54, DW_AT_declaration
	.dwattr $C$DW$54, DW_AT_external
	.dwattr $C$DW$54, DW_AT_decl_file("..\Application\StructDef2.h")
	.dwattr $C$DW$54, DW_AT_decl_line(0x4da)
	.dwattr $C$DW$54, DW_AT_decl_column(0x11)

$C$DW$55	.dwtag  DW_TAG_variable
	.dwattr $C$DW$55, DW_AT_name("ScicRegs")
	.dwattr $C$DW$55, DW_AT_linkage_name("ScicRegs")
	.dwattr $C$DW$55, DW_AT_type(*$C$DW$T$295)
	.dwattr $C$DW$55, DW_AT_declaration
	.dwattr $C$DW$55, DW_AT_external
	.dwattr $C$DW$55, DW_AT_decl_file("..\Application\..\Drivers\..\F2838x_utils\f2838x_sci.h")
	.dwattr $C$DW$55, DW_AT_decl_line(0xff)
	.dwattr $C$DW$55, DW_AT_decl_column(0x21)

$C$DW$56	.dwtag  DW_TAG_variable
	.dwattr $C$DW$56, DW_AT_name("ScidRegs")
	.dwattr $C$DW$56, DW_AT_linkage_name("ScidRegs")
	.dwattr $C$DW$56, DW_AT_type(*$C$DW$T$295)
	.dwattr $C$DW$56, DW_AT_declaration
	.dwattr $C$DW$56, DW_AT_external
	.dwattr $C$DW$56, DW_AT_decl_file("..\Application\..\Drivers\..\F2838x_utils\f2838x_sci.h")
	.dwattr $C$DW$56, DW_AT_decl_line(0x100)
	.dwattr $C$DW$56, DW_AT_decl_column(0x21)

	.global	||DxInitState12||
	.bss	||DxInitState12||,20,1,1
$C$DW$57	.dwtag  DW_TAG_variable
	.dwattr $C$DW$57, DW_AT_name("DxInitState12")
	.dwattr $C$DW$57, DW_AT_linkage_name("DxInitState12")
	.dwattr $C$DW$57, DW_AT_location[DW_OP_addr ||DxInitState12||]
	.dwattr $C$DW$57, DW_AT_type(*$C$DW$T$98)
	.dwattr $C$DW$57, DW_AT_external
	.dwattr $C$DW$57, DW_AT_decl_file("..\Application\Dynamixel.h")
	.dwattr $C$DW$57, DW_AT_decl_line(0x63)
	.dwattr $C$DW$57, DW_AT_decl_column(0x23)

	.global	||DxInitState24||
	.bss	||DxInitState24||,20,1,1
$C$DW$58	.dwtag  DW_TAG_variable
	.dwattr $C$DW$58, DW_AT_name("DxInitState24")
	.dwattr $C$DW$58, DW_AT_linkage_name("DxInitState24")
	.dwattr $C$DW$58, DW_AT_location[DW_OP_addr ||DxInitState24||]
	.dwattr $C$DW$58, DW_AT_type(*$C$DW$T$98)
	.dwattr $C$DW$58, DW_AT_external
	.dwattr $C$DW$58, DW_AT_decl_file("..\Application\Dynamixel.h")
	.dwattr $C$DW$58, DW_AT_decl_line(0x64)
	.dwattr $C$DW$58, DW_AT_decl_column(0x23)

$C$DW$59	.dwtag  DW_TAG_variable
	.dwattr $C$DW$59, DW_AT_name("IndividualAxCtl24")
	.dwattr $C$DW$59, DW_AT_linkage_name("IndividualAxCtl24")
	.dwattr $C$DW$59, DW_AT_type(*$C$DW$T$261)
	.dwattr $C$DW$59, DW_AT_declaration
	.dwattr $C$DW$59, DW_AT_external
	.dwattr $C$DW$59, DW_AT_decl_file("..\Application\ManState.h")
	.dwattr $C$DW$59, DW_AT_decl_line(0x1bb)
	.dwattr $C$DW$59, DW_AT_decl_column(0x28)

$C$DW$60	.dwtag  DW_TAG_variable
	.dwattr $C$DW$60, DW_AT_name("IndividualAxCtl12")
	.dwattr $C$DW$60, DW_AT_linkage_name("IndividualAxCtl12")
	.dwattr $C$DW$60, DW_AT_type(*$C$DW$T$261)
	.dwattr $C$DW$60, DW_AT_declaration
	.dwattr $C$DW$60, DW_AT_external
	.dwattr $C$DW$60, DW_AT_decl_file("..\Application\ManState.h")
	.dwattr $C$DW$60, DW_AT_decl_line(0x1bc)
	.dwattr $C$DW$60, DW_AT_decl_column(0x28)

$C$DW$61	.dwtag  DW_TAG_variable
	.dwattr $C$DW$61, DW_AT_name("Dx24AxisComCbit")
	.dwattr $C$DW$61, DW_AT_linkage_name("Dx24AxisComCbit")
	.dwattr $C$DW$61, DW_AT_type(*$C$DW$T$254)
	.dwattr $C$DW$61, DW_AT_declaration
	.dwattr $C$DW$61, DW_AT_external
	.dwattr $C$DW$61, DW_AT_decl_file("..\Application\StructDef2.h")
	.dwattr $C$DW$61, DW_AT_decl_line(0x4db)
	.dwattr $C$DW$61, DW_AT_decl_column(0x20)

	.global	||TempMsgBuf12||
||TempMsgBuf12||:	.usect	".bss:TempMsgBuf12",32,0,0
$C$DW$62	.dwtag  DW_TAG_variable
	.dwattr $C$DW$62, DW_AT_name("TempMsgBuf12")
	.dwattr $C$DW$62, DW_AT_linkage_name("TempMsgBuf12")
	.dwattr $C$DW$62, DW_AT_location[DW_OP_addr ||TempMsgBuf12||]
	.dwattr $C$DW$62, DW_AT_type(*$C$DW$T$360)
	.dwattr $C$DW$62, DW_AT_external
	.dwattr $C$DW$62, DW_AT_decl_file("../Application/Dynamixel.c")
	.dwattr $C$DW$62, DW_AT_decl_line(0xa5)
	.dwattr $C$DW$62, DW_AT_decl_column(0x10)

	.global	||TempMsgBuf24||
||TempMsgBuf24||:	.usect	".bss:TempMsgBuf24",32,0,0
$C$DW$63	.dwtag  DW_TAG_variable
	.dwattr $C$DW$63, DW_AT_name("TempMsgBuf24")
	.dwattr $C$DW$63, DW_AT_linkage_name("TempMsgBuf24")
	.dwattr $C$DW$63, DW_AT_location[DW_OP_addr ||TempMsgBuf24||]
	.dwattr $C$DW$63, DW_AT_type(*$C$DW$T$360)
	.dwattr $C$DW$63, DW_AT_external
	.dwattr $C$DW$63, DW_AT_decl_file("../Application/Dynamixel.c")
	.dwattr $C$DW$63, DW_AT_decl_line(0xa6)
	.dwattr $C$DW$63, DW_AT_decl_column(0x10)

	.global	||ODTempMsgBuf||
||ODTempMsgBuf||:	.usect	".bss:ODTempMsgBuf",32,0,0
$C$DW$64	.dwtag  DW_TAG_variable
	.dwattr $C$DW$64, DW_AT_name("ODTempMsgBuf")
	.dwattr $C$DW$64, DW_AT_linkage_name("ODTempMsgBuf")
	.dwattr $C$DW$64, DW_AT_location[DW_OP_addr ||ODTempMsgBuf||]
	.dwattr $C$DW$64, DW_AT_type(*$C$DW$T$360)
	.dwattr $C$DW$64, DW_AT_external
	.dwattr $C$DW$64, DW_AT_decl_file("../Application/Dynamixel.c")
	.dwattr $C$DW$64, DW_AT_decl_line(0xa7)
	.dwattr $C$DW$64, DW_AT_decl_column(0x10)

$C$DW$65	.dwtag  DW_TAG_variable
	.dwattr $C$DW$65, DW_AT_name("GpioDataRegs")
	.dwattr $C$DW$65, DW_AT_linkage_name("GpioDataRegs")
	.dwattr $C$DW$65, DW_AT_type(*$C$DW$T$273)
	.dwattr $C$DW$65, DW_AT_declaration
	.dwattr $C$DW$65, DW_AT_external
	.dwattr $C$DW$65, DW_AT_decl_file("..\Application\..\Drivers\..\F2838x_utils\f2838x_gpio.h")
	.dwattr $C$DW$65, DW_AT_decl_line(0xf29)
	.dwattr $C$DW$65, DW_AT_decl_column(0x27)

$C$DW$66	.dwtag  DW_TAG_variable
	.dwattr $C$DW$66, DW_AT_name("IPC_Instance")
	.dwattr $C$DW$66, DW_AT_linkage_name("IPC_Instance")
	.dwattr $C$DW$66, DW_AT_type(*$C$DW$T$251)
	.dwattr $C$DW$66, DW_AT_declaration
	.dwattr $C$DW$66, DW_AT_external
	.dwattr $C$DW$66, DW_AT_decl_file("..\Application\..\Drivers\..\F2838x_driverlib\driverlib\ipc.h")
	.dwattr $C$DW$66, DW_AT_decl_line(0x130)
	.dwattr $C$DW$66, DW_AT_decl_column(0x1d)

	.global	||crc_table||
	.sect	".const:crc_table"
	.align	1
	.elfsym	||crc_table||,SYM_SIZE(256)
||crc_table||:
	.bits		0,16
			; crc_table[0] @ 0
	.bits		0x8005,16
			; crc_table[1] @ 16
	.bits		0x800f,16
			; crc_table[2] @ 32
	.bits		0xa,16
			; crc_table[3] @ 48
	.bits		0x801b,16
			; crc_table[4] @ 64
	.bits		0x1e,16
			; crc_table[5] @ 80
	.bits		0x14,16
			; crc_table[6] @ 96
	.bits		0x8011,16
			; crc_table[7] @ 112
	.bits		0x8033,16
			; crc_table[8] @ 128
	.bits		0x36,16
			; crc_table[9] @ 144
	.bits		0x3c,16
			; crc_table[10] @ 160
	.bits		0x8039,16
			; crc_table[11] @ 176
	.bits		0x28,16
			; crc_table[12] @ 192
	.bits		0x802d,16
			; crc_table[13] @ 208
	.bits		0x8027,16
			; crc_table[14] @ 224
	.bits		0x22,16
			; crc_table[15] @ 240
	.bits		0x8063,16
			; crc_table[16] @ 256
	.bits		0x66,16
			; crc_table[17] @ 272
	.bits		0x6c,16
			; crc_table[18] @ 288
	.bits		0x8069,16
			; crc_table[19] @ 304
	.bits		0x78,16
			; crc_table[20] @ 320
	.bits		0x807d,16
			; crc_table[21] @ 336
	.bits		0x8077,16
			; crc_table[22] @ 352
	.bits		0x72,16
			; crc_table[23] @ 368
	.bits		0x50,16
			; crc_table[24] @ 384
	.bits		0x8055,16
			; crc_table[25] @ 400
	.bits		0x805f,16
			; crc_table[26] @ 416
	.bits		0x5a,16
			; crc_table[27] @ 432
	.bits		0x804b,16
			; crc_table[28] @ 448
	.bits		0x4e,16
			; crc_table[29] @ 464
	.bits		0x44,16
			; crc_table[30] @ 480
	.bits		0x8041,16
			; crc_table[31] @ 496
	.bits		0x80c3,16
			; crc_table[32] @ 512
	.bits		0xc6,16
			; crc_table[33] @ 528
	.bits		0xcc,16
			; crc_table[34] @ 544
	.bits		0x80c9,16
			; crc_table[35] @ 560
	.bits		0xd8,16
			; crc_table[36] @ 576
	.bits		0x80dd,16
			; crc_table[37] @ 592
	.bits		0x80d7,16
			; crc_table[38] @ 608
	.bits		0xd2,16
			; crc_table[39] @ 624
	.bits		0xf0,16
			; crc_table[40] @ 640
	.bits		0x80f5,16
			; crc_table[41] @ 656
	.bits		0x80ff,16
			; crc_table[42] @ 672
	.bits		0xfa,16
			; crc_table[43] @ 688
	.bits		0x80eb,16
			; crc_table[44] @ 704
	.bits		0xee,16
			; crc_table[45] @ 720
	.bits		0xe4,16
			; crc_table[46] @ 736
	.bits		0x80e1,16
			; crc_table[47] @ 752
	.bits		0xa0,16
			; crc_table[48] @ 768
	.bits		0x80a5,16
			; crc_table[49] @ 784
	.bits		0x80af,16
			; crc_table[50] @ 800
	.bits		0xaa,16
			; crc_table[51] @ 816
	.bits		0x80bb,16
			; crc_table[52] @ 832
	.bits		0xbe,16
			; crc_table[53] @ 848
	.bits		0xb4,16
			; crc_table[54] @ 864
	.bits		0x80b1,16
			; crc_table[55] @ 880
	.bits		0x8093,16
			; crc_table[56] @ 896
	.bits		0x96,16
			; crc_table[57] @ 912
	.bits		0x9c,16
			; crc_table[58] @ 928
	.bits		0x8099,16
			; crc_table[59] @ 944
	.bits		0x88,16
			; crc_table[60] @ 960
	.bits		0x808d,16
			; crc_table[61] @ 976
	.bits		0x8087,16
			; crc_table[62] @ 992
	.bits		0x82,16
			; crc_table[63] @ 1008
	.bits		0x8183,16
			; crc_table[64] @ 1024
	.bits		0x186,16
			; crc_table[65] @ 1040
	.bits		0x18c,16
			; crc_table[66] @ 1056
	.bits		0x8189,16
			; crc_table[67] @ 1072
	.bits		0x198,16
			; crc_table[68] @ 1088
	.bits		0x819d,16
			; crc_table[69] @ 1104
	.bits		0x8197,16
			; crc_table[70] @ 1120
	.bits		0x192,16
			; crc_table[71] @ 1136
	.bits		0x1b0,16
			; crc_table[72] @ 1152
	.bits		0x81b5,16
			; crc_table[73] @ 1168
	.bits		0x81bf,16
			; crc_table[74] @ 1184
	.bits		0x1ba,16
			; crc_table[75] @ 1200
	.bits		0x81ab,16
			; crc_table[76] @ 1216
	.bits		0x1ae,16
			; crc_table[77] @ 1232
	.bits		0x1a4,16
			; crc_table[78] @ 1248
	.bits		0x81a1,16
			; crc_table[79] @ 1264
	.bits		0x1e0,16
			; crc_table[80] @ 1280
	.bits		0x81e5,16
			; crc_table[81] @ 1296
	.bits		0x81ef,16
			; crc_table[82] @ 1312
	.bits		0x1ea,16
			; crc_table[83] @ 1328
	.bits		0x81fb,16
			; crc_table[84] @ 1344
	.bits		0x1fe,16
			; crc_table[85] @ 1360
	.bits		0x1f4,16
			; crc_table[86] @ 1376
	.bits		0x81f1,16
			; crc_table[87] @ 1392
	.bits		0x81d3,16
			; crc_table[88] @ 1408
	.bits		0x1d6,16
			; crc_table[89] @ 1424
	.bits		0x1dc,16
			; crc_table[90] @ 1440
	.bits		0x81d9,16
			; crc_table[91] @ 1456
	.bits		0x1c8,16
			; crc_table[92] @ 1472
	.bits		0x81cd,16
			; crc_table[93] @ 1488
	.bits		0x81c7,16
			; crc_table[94] @ 1504
	.bits		0x1c2,16
			; crc_table[95] @ 1520
	.bits		0x140,16
			; crc_table[96] @ 1536
	.bits		0x8145,16
			; crc_table[97] @ 1552
	.bits		0x814f,16
			; crc_table[98] @ 1568
	.bits		0x14a,16
			; crc_table[99] @ 1584
	.bits		0x815b,16
			; crc_table[100] @ 1600
	.bits		0x15e,16
			; crc_table[101] @ 1616
	.bits		0x154,16
			; crc_table[102] @ 1632
	.bits		0x8151,16
			; crc_table[103] @ 1648
	.bits		0x8173,16
			; crc_table[104] @ 1664
	.bits		0x176,16
			; crc_table[105] @ 1680
	.bits		0x17c,16
			; crc_table[106] @ 1696
	.bits		0x8179,16
			; crc_table[107] @ 1712
	.bits		0x168,16
			; crc_table[108] @ 1728
	.bits		0x816d,16
			; crc_table[109] @ 1744
	.bits		0x8167,16
			; crc_table[110] @ 1760
	.bits		0x162,16
			; crc_table[111] @ 1776
	.bits		0x8123,16
			; crc_table[112] @ 1792
	.bits		0x126,16
			; crc_table[113] @ 1808
	.bits		0x12c,16
			; crc_table[114] @ 1824
	.bits		0x8129,16
			; crc_table[115] @ 1840
	.bits		0x138,16
			; crc_table[116] @ 1856
	.bits		0x813d,16
			; crc_table[117] @ 1872
	.bits		0x8137,16
			; crc_table[118] @ 1888
	.bits		0x132,16
			; crc_table[119] @ 1904
	.bits		0x110,16
			; crc_table[120] @ 1920
	.bits		0x8115,16
			; crc_table[121] @ 1936
	.bits		0x811f,16
			; crc_table[122] @ 1952
	.bits		0x11a,16
			; crc_table[123] @ 1968
	.bits		0x810b,16
			; crc_table[124] @ 1984
	.bits		0x10e,16
			; crc_table[125] @ 2000
	.bits		0x104,16
			; crc_table[126] @ 2016
	.bits		0x8101,16
			; crc_table[127] @ 2032
	.bits		0x8303,16
			; crc_table[128] @ 2048
	.bits		0x306,16
			; crc_table[129] @ 2064
	.bits		0x30c,16
			; crc_table[130] @ 2080
	.bits		0x8309,16
			; crc_table[131] @ 2096
	.bits		0x318,16
			; crc_table[132] @ 2112
	.bits		0x831d,16
			; crc_table[133] @ 2128
	.bits		0x8317,16
			; crc_table[134] @ 2144
	.bits		0x312,16
			; crc_table[135] @ 2160
	.bits		0x330,16
			; crc_table[136] @ 2176
	.bits		0x8335,16
			; crc_table[137] @ 2192
	.bits		0x833f,16
			; crc_table[138] @ 2208
	.bits		0x33a,16
			; crc_table[139] @ 2224
	.bits		0x832b,16
			; crc_table[140] @ 2240
	.bits		0x32e,16
			; crc_table[141] @ 2256
	.bits		0x324,16
			; crc_table[142] @ 2272
	.bits		0x8321,16
			; crc_table[143] @ 2288
	.bits		0x360,16
			; crc_table[144] @ 2304
	.bits		0x8365,16
			; crc_table[145] @ 2320
	.bits		0x836f,16
			; crc_table[146] @ 2336
	.bits		0x36a,16
			; crc_table[147] @ 2352
	.bits		0x837b,16
			; crc_table[148] @ 2368
	.bits		0x37e,16
			; crc_table[149] @ 2384
	.bits		0x374,16
			; crc_table[150] @ 2400
	.bits		0x8371,16
			; crc_table[151] @ 2416
	.bits		0x8353,16
			; crc_table[152] @ 2432
	.bits		0x356,16
			; crc_table[153] @ 2448
	.bits		0x35c,16
			; crc_table[154] @ 2464
	.bits		0x8359,16
			; crc_table[155] @ 2480
	.bits		0x348,16
			; crc_table[156] @ 2496
	.bits		0x834d,16
			; crc_table[157] @ 2512
	.bits		0x8347,16
			; crc_table[158] @ 2528
	.bits		0x342,16
			; crc_table[159] @ 2544
	.bits		0x3c0,16
			; crc_table[160] @ 2560
	.bits		0x83c5,16
			; crc_table[161] @ 2576
	.bits		0x83cf,16
			; crc_table[162] @ 2592
	.bits		0x3ca,16
			; crc_table[163] @ 2608
	.bits		0x83db,16
			; crc_table[164] @ 2624
	.bits		0x3de,16
			; crc_table[165] @ 2640
	.bits		0x3d4,16
			; crc_table[166] @ 2656
	.bits		0x83d1,16
			; crc_table[167] @ 2672
	.bits		0x83f3,16
			; crc_table[168] @ 2688
	.bits		0x3f6,16
			; crc_table[169] @ 2704
	.bits		0x3fc,16
			; crc_table[170] @ 2720
	.bits		0x83f9,16
			; crc_table[171] @ 2736
	.bits		0x3e8,16
			; crc_table[172] @ 2752
	.bits		0x83ed,16
			; crc_table[173] @ 2768
	.bits		0x83e7,16
			; crc_table[174] @ 2784
	.bits		0x3e2,16
			; crc_table[175] @ 2800
	.bits		0x83a3,16
			; crc_table[176] @ 2816
	.bits		0x3a6,16
			; crc_table[177] @ 2832
	.bits		0x3ac,16
			; crc_table[178] @ 2848
	.bits		0x83a9,16
			; crc_table[179] @ 2864
	.bits		0x3b8,16
			; crc_table[180] @ 2880
	.bits		0x83bd,16
			; crc_table[181] @ 2896
	.bits		0x83b7,16
			; crc_table[182] @ 2912
	.bits		0x3b2,16
			; crc_table[183] @ 2928
	.bits		0x390,16
			; crc_table[184] @ 2944
	.bits		0x8395,16
			; crc_table[185] @ 2960
	.bits		0x839f,16
			; crc_table[186] @ 2976
	.bits		0x39a,16
			; crc_table[187] @ 2992
	.bits		0x838b,16
			; crc_table[188] @ 3008
	.bits		0x38e,16
			; crc_table[189] @ 3024
	.bits		0x384,16
			; crc_table[190] @ 3040
	.bits		0x8381,16
			; crc_table[191] @ 3056
	.bits		0x280,16
			; crc_table[192] @ 3072
	.bits		0x8285,16
			; crc_table[193] @ 3088
	.bits		0x828f,16
			; crc_table[194] @ 3104
	.bits		0x28a,16
			; crc_table[195] @ 3120
	.bits		0x829b,16
			; crc_table[196] @ 3136
	.bits		0x29e,16
			; crc_table[197] @ 3152
	.bits		0x294,16
			; crc_table[198] @ 3168
	.bits		0x8291,16
			; crc_table[199] @ 3184
	.bits		0x82b3,16
			; crc_table[200] @ 3200
	.bits		0x2b6,16
			; crc_table[201] @ 3216
	.bits		0x2bc,16
			; crc_table[202] @ 3232
	.bits		0x82b9,16
			; crc_table[203] @ 3248
	.bits		0x2a8,16
			; crc_table[204] @ 3264
	.bits		0x82ad,16
			; crc_table[205] @ 3280
	.bits		0x82a7,16
			; crc_table[206] @ 3296
	.bits		0x2a2,16
			; crc_table[207] @ 3312
	.bits		0x82e3,16
			; crc_table[208] @ 3328
	.bits		0x2e6,16
			; crc_table[209] @ 3344
	.bits		0x2ec,16
			; crc_table[210] @ 3360
	.bits		0x82e9,16
			; crc_table[211] @ 3376
	.bits		0x2f8,16
			; crc_table[212] @ 3392
	.bits		0x82fd,16
			; crc_table[213] @ 3408
	.bits		0x82f7,16
			; crc_table[214] @ 3424
	.bits		0x2f2,16
			; crc_table[215] @ 3440
	.bits		0x2d0,16
			; crc_table[216] @ 3456
	.bits		0x82d5,16
			; crc_table[217] @ 3472
	.bits		0x82df,16
			; crc_table[218] @ 3488
	.bits		0x2da,16
			; crc_table[219] @ 3504
	.bits		0x82cb,16
			; crc_table[220] @ 3520
	.bits		0x2ce,16
			; crc_table[221] @ 3536
	.bits		0x2c4,16
			; crc_table[222] @ 3552
	.bits		0x82c1,16
			; crc_table[223] @ 3568
	.bits		0x8243,16
			; crc_table[224] @ 3584
	.bits		0x246,16
			; crc_table[225] @ 3600
	.bits		0x24c,16
			; crc_table[226] @ 3616
	.bits		0x8249,16
			; crc_table[227] @ 3632
	.bits		0x258,16
			; crc_table[228] @ 3648
	.bits		0x825d,16
			; crc_table[229] @ 3664
	.bits		0x8257,16
			; crc_table[230] @ 3680
	.bits		0x252,16
			; crc_table[231] @ 3696
	.bits		0x270,16
			; crc_table[232] @ 3712
	.bits		0x8275,16
			; crc_table[233] @ 3728
	.bits		0x827f,16
			; crc_table[234] @ 3744
	.bits		0x27a,16
			; crc_table[235] @ 3760
	.bits		0x826b,16
			; crc_table[236] @ 3776
	.bits		0x26e,16
			; crc_table[237] @ 3792
	.bits		0x264,16
			; crc_table[238] @ 3808
	.bits		0x8261,16
			; crc_table[239] @ 3824
	.bits		0x220,16
			; crc_table[240] @ 3840
	.bits		0x8225,16
			; crc_table[241] @ 3856
	.bits		0x822f,16
			; crc_table[242] @ 3872
	.bits		0x22a,16
			; crc_table[243] @ 3888
	.bits		0x823b,16
			; crc_table[244] @ 3904
	.bits		0x23e,16
			; crc_table[245] @ 3920
	.bits		0x234,16
			; crc_table[246] @ 3936
	.bits		0x8231,16
			; crc_table[247] @ 3952
	.bits		0x8213,16
			; crc_table[248] @ 3968
	.bits		0x216,16
			; crc_table[249] @ 3984
	.bits		0x21c,16
			; crc_table[250] @ 4000
	.bits		0x8219,16
			; crc_table[251] @ 4016
	.bits		0x208,16
			; crc_table[252] @ 4032
	.bits		0x820d,16
			; crc_table[253] @ 4048
	.bits		0x8207,16
			; crc_table[254] @ 4064
	.bits		0x202,16
			; crc_table[255] @ 4080

$C$DW$67	.dwtag  DW_TAG_variable
	.dwattr $C$DW$67, DW_AT_name("crc_table")
	.dwattr $C$DW$67, DW_AT_linkage_name("crc_table")
	.dwattr $C$DW$67, DW_AT_location[DW_OP_addr ||crc_table||]
	.dwattr $C$DW$67, DW_AT_type(*$C$DW$T$358)
	.dwattr $C$DW$67, DW_AT_external
	.dwattr $C$DW$67, DW_AT_decl_file("../Application/Dynamixel.c")
	.dwattr $C$DW$67, DW_AT_decl_line(0x7d)
	.dwattr $C$DW$67, DW_AT_decl_column(0x16)

	.global	||DynStat24||
||DynStat24||:	.usect	".bss:DynStat24",350,0,1
$C$DW$68	.dwtag  DW_TAG_variable
	.dwattr $C$DW$68, DW_AT_name("DynStat24")
	.dwattr $C$DW$68, DW_AT_linkage_name("DynStat24")
	.dwattr $C$DW$68, DW_AT_location[DW_OP_addr ||DynStat24||]
	.dwattr $C$DW$68, DW_AT_type(*$C$DW$T$260)
	.dwattr $C$DW$68, DW_AT_external
	.dwattr $C$DW$68, DW_AT_decl_file("..\Application\Dynamixel.h")
	.dwattr $C$DW$68, DW_AT_decl_line(0xf6)
	.dwattr $C$DW$68, DW_AT_decl_column(0x25)

	.global	||DynStat12||
||DynStat12||:	.usect	".bss:DynStat12",350,0,1
$C$DW$69	.dwtag  DW_TAG_variable
	.dwattr $C$DW$69, DW_AT_name("DynStat12")
	.dwattr $C$DW$69, DW_AT_linkage_name("DynStat12")
	.dwattr $C$DW$69, DW_AT_location[DW_OP_addr ||DynStat12||]
	.dwattr $C$DW$69, DW_AT_type(*$C$DW$T$260)
	.dwattr $C$DW$69, DW_AT_external
	.dwattr $C$DW$69, DW_AT_decl_file("..\Application\Dynamixel.h")
	.dwattr $C$DW$69, DW_AT_decl_line(0xf7)
	.dwattr $C$DW$69, DW_AT_decl_column(0x25)

	.global	||Dynamixel24||
	.bss	||Dynamixel24||,470,1,1
$C$DW$70	.dwtag  DW_TAG_variable
	.dwattr $C$DW$70, DW_AT_name("Dynamixel24")
	.dwattr $C$DW$70, DW_AT_linkage_name("Dynamixel24")
	.dwattr $C$DW$70, DW_AT_location[DW_OP_addr ||Dynamixel24||]
	.dwattr $C$DW$70, DW_AT_type(*$C$DW$T$105)
	.dwattr $C$DW$70, DW_AT_external
	.dwattr $C$DW$70, DW_AT_decl_file("..\Application\Dynamixel.h")
	.dwattr $C$DW$70, DW_AT_decl_line(0x93)
	.dwattr $C$DW$70, DW_AT_decl_column(0x26)

	.global	||Dynamixel12||
	.bss	||Dynamixel12||,470,1,1
$C$DW$71	.dwtag  DW_TAG_variable
	.dwattr $C$DW$71, DW_AT_name("Dynamixel12")
	.dwattr $C$DW$71, DW_AT_linkage_name("Dynamixel12")
	.dwattr $C$DW$71, DW_AT_location[DW_OP_addr ||Dynamixel12||]
	.dwattr $C$DW$71, DW_AT_type(*$C$DW$T$105)
	.dwattr $C$DW$71, DW_AT_external
	.dwattr $C$DW$71, DW_AT_decl_file("..\Application\Dynamixel.h")
	.dwattr $C$DW$71, DW_AT_decl_line(0x94)
	.dwattr $C$DW$71, DW_AT_decl_column(0x26)

$C$DW$72	.dwtag  DW_TAG_variable
	.dwattr $C$DW$72, DW_AT_name("SysTimerStr")
	.dwattr $C$DW$72, DW_AT_linkage_name("SysTimerStr")
	.dwattr $C$DW$72, DW_AT_type(*$C$DW$T$148)
	.dwattr $C$DW$72, DW_AT_declaration
	.dwattr $C$DW$72, DW_AT_external
	.dwattr $C$DW$72, DW_AT_decl_file("..\Application\StructDef2.h")
	.dwattr $C$DW$72, DW_AT_decl_line(0x477)
	.dwattr $C$DW$72, DW_AT_decl_column(0x20)

$C$DW$73	.dwtag  DW_TAG_variable
	.dwattr $C$DW$73, DW_AT_name("S2M")
	.dwattr $C$DW$73, DW_AT_linkage_name("S2M")
	.dwattr $C$DW$73, DW_AT_type(*$C$DW$T$242)
	.dwattr $C$DW$73, DW_AT_declaration
	.dwattr $C$DW$73, DW_AT_external
	.dwattr $C$DW$73, DW_AT_decl_file("..\Application\..\..\BHAxes\M2S_S2M.h")
	.dwattr $C$DW$73, DW_AT_decl_line(0x164)
	.dwattr $C$DW$73, DW_AT_decl_column(0x23)

$C$DW$74	.dwtag  DW_TAG_variable
	.dwattr $C$DW$74, DW_AT_name("SysState")
	.dwattr $C$DW$74, DW_AT_linkage_name("SysState")
	.dwattr $C$DW$74, DW_AT_type(*$C$DW$T$146)
	.dwattr $C$DW$74, DW_AT_declaration
	.dwattr $C$DW$74, DW_AT_external
	.dwattr $C$DW$74, DW_AT_decl_file("..\Application\StructDef2.h")
	.dwattr $C$DW$74, DW_AT_decl_line(0x36a)
	.dwattr $C$DW$74, DW_AT_decl_column(0x1d)

$C$DW$75	.dwtag  DW_TAG_variable
	.dwattr $C$DW$75, DW_AT_name("ManCmd")
	.dwattr $C$DW$75, DW_AT_linkage_name("ManCmd")
	.dwattr $C$DW$75, DW_AT_type(*$C$DW$T$112)
	.dwattr $C$DW$75, DW_AT_declaration
	.dwattr $C$DW$75, DW_AT_external
	.dwattr $C$DW$75, DW_AT_decl_file("..\Application\ManState.h")
	.dwattr $C$DW$75, DW_AT_decl_line(0x122)
	.dwattr $C$DW$75, DW_AT_decl_column(0x1f)

	.sblock	".bss"
;	C:\ti\ccs1250\ccs\tools\compiler\ti-cgt-c2000_22.6.1.LTS\bin\acia2000.exe -@C:\\Users\\yahal\\AppData\\Local\\Temp\\{BBA5BCB9-FAE3-4FE4-871B-D9026BD5ED5D} 
	.sect	".text:Flash_RelinquishPumpSemaphore"
	.clink
	.global	||Flash_RelinquishPumpSemaphore||

$C$DW$76	.dwtag  DW_TAG_subprogram
	.dwattr $C$DW$76, DW_AT_name("Flash_RelinquishPumpSemaphore")
	.dwattr $C$DW$76, DW_AT_low_pc(||Flash_RelinquishPumpSemaphore||)
	.dwattr $C$DW$76, DW_AT_high_pc(0x00)
	.dwattr $C$DW$76, DW_AT_linkage_name("Flash_RelinquishPumpSemaphore")
	.dwattr $C$DW$76, DW_AT_external
	.dwattr $C$DW$76, DW_AT_decl_file("..\Application\..\Drivers\..\F2838x_driverlib\driverlib\flash.h")
	.dwattr $C$DW$76, DW_AT_decl_line(0x61f)
	.dwattr $C$DW$76, DW_AT_decl_column(0x0d)
	.dwattr $C$DW$76, DW_AT_TI_max_frame_size(-2)
	.dwpsn	file "..\Application\..\Drivers\..\F2838x_driverlib\driverlib\flash.h",line 1568,column 1,is_stmt,address ||Flash_RelinquishPumpSemaphore||,isa 0

	.dwfde $C$DW$CIE, ||Flash_RelinquishPumpSemaphore||

;***************************************************************
;* FNAME: Flash_RelinquishPumpSemaphore FR SIZE:   0           *
;*                                                             *
;* FUNCTION ENVIRONMENT                                        *
;*                                                             *
;* FUNCTION PROPERTIES                                         *
;*                            0 Parameter,  0 Auto,  0 SOE     *
;***************************************************************

||Flash_RelinquishPumpSemaphore||:
	.dwcfi	cfa_offset, -2
	.dwcfi	save_reg_to_mem, 26, 0
	.dwpsn	file "..\Application\..\Drivers\..\F2838x_driverlib\driverlib\flash.h",line 1569,column 5,is_stmt,isa 0
 EALLOW
	.dwpsn	file "..\Application\..\Drivers\..\F2838x_driverlib\driverlib\flash.h",line 1570,column 5,is_stmt,isa 0
        MOVW      DP,#||IPC_Instance||+66 ; [CPU_ARAU] 
        MOVL      XAR4,@||IPC_Instance||+66 ; [CPU_ALU] |1570| 
        MOVB      AL,#0                 ; [CPU_ALU] |1570| 
        MOV       AH,#23130             ; [CPU_ALU] |1570| 
        MOVL      *+XAR4[4],ACC         ; [CPU_ALU] |1570| 
	.dwpsn	file "..\Application\..\Drivers\..\F2838x_driverlib\driverlib\flash.h",line 1571,column 5,is_stmt,isa 0
 EDIS
	.dwpsn	file "..\Application\..\Drivers\..\F2838x_driverlib\driverlib\flash.h",line 1572,column 1,is_stmt,isa 0
        SPM       #0                    ; [CPU_ALU] 
$C$DW$77	.dwtag  DW_TAG_TI_branch
	.dwattr $C$DW$77, DW_AT_low_pc(0x00)
	.dwattr $C$DW$77, DW_AT_TI_return

        LRETR     ; [CPU_ALU] 
        ; return occurs ; [] 
	.dwattr $C$DW$76, DW_AT_TI_end_file("..\Application\..\Drivers\..\F2838x_driverlib\driverlib\flash.h")
	.dwattr $C$DW$76, DW_AT_TI_end_line(0x624)
	.dwattr $C$DW$76, DW_AT_TI_end_column(0x01)
	.dwendentry
	.dwendtag $C$DW$76

	.sect	".text:GetSemaphore"
	.clink
	.global	||GetSemaphore||

$C$DW$78	.dwtag  DW_TAG_subprogram
	.dwattr $C$DW$78, DW_AT_name("GetSemaphore")
	.dwattr $C$DW$78, DW_AT_low_pc(||GetSemaphore||)
	.dwattr $C$DW$78, DW_AT_high_pc(0x00)
	.dwattr $C$DW$78, DW_AT_linkage_name("GetSemaphore")
	.dwattr $C$DW$78, DW_AT_external
	.dwattr $C$DW$78, DW_AT_type(*$C$DW$T$13)
	.dwattr $C$DW$78, DW_AT_decl_file("..\Application\..\Drivers\..\F2838x_driverlib\driverlib\flash.h")
	.dwattr $C$DW$78, DW_AT_decl_line(0x627)
	.dwattr $C$DW$78, DW_AT_decl_column(0x0f)
	.dwattr $C$DW$78, DW_AT_TI_max_frame_size(-2)
	.dwpsn	file "..\Application\..\Drivers\..\F2838x_driverlib\driverlib\flash.h",line 1576,column 1,is_stmt,address ||GetSemaphore||,isa 0

	.dwfde $C$DW$CIE, ||GetSemaphore||

;***************************************************************
;* FNAME: GetSemaphore                  FR SIZE:   0           *
;*                                                             *
;* FUNCTION ENVIRONMENT                                        *
;*                                                             *
;* FUNCTION PROPERTIES                                         *
;*                            0 Parameter,  0 Auto,  0 SOE     *
;***************************************************************

||GetSemaphore||:
	.dwcfi	cfa_offset, -2
	.dwcfi	save_reg_to_mem, 26, 0
	.dwpsn	file "..\Application\..\Drivers\..\F2838x_driverlib\driverlib\flash.h",line 1577,column 5,is_stmt,isa 0
        MOVW      DP,#||IPC_Instance||+66 ; [CPU_ARAU] 
        MOVL      XAR4,@||IPC_Instance||+66 ; [CPU_ALU] |1577| 
        MOVL      ACC,*+XAR4[4]         ; [CPU_ALU] |1577| 
	.dwpsn	file "..\Application\..\Drivers\..\F2838x_driverlib\driverlib\flash.h",line 1578,column 1,is_stmt,isa 0
$C$DW$79	.dwtag  DW_TAG_TI_branch
	.dwattr $C$DW$79, DW_AT_low_pc(0x00)
	.dwattr $C$DW$79, DW_AT_TI_return

        LRETR     ; [CPU_ALU] 
        ; return occurs ; [] 
	.dwattr $C$DW$78, DW_AT_TI_end_file("..\Application\..\Drivers\..\F2838x_driverlib\driverlib\flash.h")
	.dwattr $C$DW$78, DW_AT_TI_end_line(0x62a)
	.dwattr $C$DW$78, DW_AT_TI_end_column(0x01)
	.dwendentry
	.dwendtag $C$DW$78

	.sect	".text:EnableRs485Tx_2"
	.clink
	.global	||EnableRs485Tx_2||

$C$DW$80	.dwtag  DW_TAG_subprogram
	.dwattr $C$DW$80, DW_AT_name("EnableRs485Tx_2")
	.dwattr $C$DW$80, DW_AT_low_pc(||EnableRs485Tx_2||)
	.dwattr $C$DW$80, DW_AT_high_pc(0x00)
	.dwattr $C$DW$80, DW_AT_linkage_name("EnableRs485Tx_2")
	.dwattr $C$DW$80, DW_AT_external
	.dwattr $C$DW$80, DW_AT_decl_file("..\Application\Dynamixel.h")
	.dwattr $C$DW$80, DW_AT_decl_line(0xe2)
	.dwattr $C$DW$80, DW_AT_decl_column(0x0d)
	.dwattr $C$DW$80, DW_AT_TI_max_frame_size(-2)
	.dwpsn	file "..\Application\Dynamixel.h",line 227,column 1,is_stmt,address ||EnableRs485Tx_2||,isa 0

	.dwfde $C$DW$CIE, ||EnableRs485Tx_2||

;***************************************************************
;* FNAME: EnableRs485Tx_2               FR SIZE:   0           *
;*                                                             *
;* FUNCTION ENVIRONMENT                                        *
;*                                                             *
;* FUNCTION PROPERTIES                                         *
;*                            0 Parameter,  0 Auto,  0 SOE     *
;***************************************************************

||EnableRs485Tx_2||:
	.dwcfi	cfa_offset, -2
	.dwcfi	save_reg_to_mem, 26, 0
	.dwpsn	file "..\Application\Dynamixel.h",line 228,column 5,is_stmt,isa 0
        MOVW      DP,#||GpioDataRegs||+34 ; [CPU_ARAU] 
        OR        @$BLOCKED(||GpioDataRegs||)+34,#0x8000 ; [CPU_ALU] |228| 
	.dwpsn	file "..\Application\Dynamixel.h",line 229,column 1,is_stmt,isa 0
$C$DW$81	.dwtag  DW_TAG_TI_branch
	.dwattr $C$DW$81, DW_AT_low_pc(0x00)
	.dwattr $C$DW$81, DW_AT_TI_return

        LRETR     ; [CPU_ALU] 
        ; return occurs ; [] 
	.dwattr $C$DW$80, DW_AT_TI_end_file("..\Application\Dynamixel.h")
	.dwattr $C$DW$80, DW_AT_TI_end_line(0xe5)
	.dwattr $C$DW$80, DW_AT_TI_end_column(0x01)
	.dwendentry
	.dwendtag $C$DW$80

	.sect	".text:DisableRs485Tx_2"
	.clink
	.global	||DisableRs485Tx_2||

$C$DW$82	.dwtag  DW_TAG_subprogram
	.dwattr $C$DW$82, DW_AT_name("DisableRs485Tx_2")
	.dwattr $C$DW$82, DW_AT_low_pc(||DisableRs485Tx_2||)
	.dwattr $C$DW$82, DW_AT_high_pc(0x00)
	.dwattr $C$DW$82, DW_AT_linkage_name("DisableRs485Tx_2")
	.dwattr $C$DW$82, DW_AT_external
	.dwattr $C$DW$82, DW_AT_decl_file("..\Application\Dynamixel.h")
	.dwattr $C$DW$82, DW_AT_decl_line(0xe6)
	.dwattr $C$DW$82, DW_AT_decl_column(0x0d)
	.dwattr $C$DW$82, DW_AT_TI_max_frame_size(-2)
	.dwpsn	file "..\Application\Dynamixel.h",line 231,column 1,is_stmt,address ||DisableRs485Tx_2||,isa 0

	.dwfde $C$DW$CIE, ||DisableRs485Tx_2||

;***************************************************************
;* FNAME: DisableRs485Tx_2              FR SIZE:   0           *
;*                                                             *
;* FUNCTION ENVIRONMENT                                        *
;*                                                             *
;* FUNCTION PROPERTIES                                         *
;*                            0 Parameter,  0 Auto,  0 SOE     *
;***************************************************************

||DisableRs485Tx_2||:
	.dwcfi	cfa_offset, -2
	.dwcfi	save_reg_to_mem, 26, 0
	.dwpsn	file "..\Application\Dynamixel.h",line 232,column 5,is_stmt,isa 0
        MOVW      DP,#||GpioDataRegs||+36 ; [CPU_ARAU] 
        OR        @$BLOCKED(||GpioDataRegs||)+36,#0x8000 ; [CPU_ALU] |232| 
	.dwpsn	file "..\Application\Dynamixel.h",line 233,column 1,is_stmt,isa 0
$C$DW$83	.dwtag  DW_TAG_TI_branch
	.dwattr $C$DW$83, DW_AT_low_pc(0x00)
	.dwattr $C$DW$83, DW_AT_TI_return

        LRETR     ; [CPU_ALU] 
        ; return occurs ; [] 
	.dwattr $C$DW$82, DW_AT_TI_end_file("..\Application\Dynamixel.h")
	.dwattr $C$DW$82, DW_AT_TI_end_line(0xe9)
	.dwattr $C$DW$82, DW_AT_TI_end_column(0x01)
	.dwendentry
	.dwendtag $C$DW$82

	.sect	".text:EnableRs485Tx_1"
	.clink
	.global	||EnableRs485Tx_1||

$C$DW$84	.dwtag  DW_TAG_subprogram
	.dwattr $C$DW$84, DW_AT_name("EnableRs485Tx_1")
	.dwattr $C$DW$84, DW_AT_low_pc(||EnableRs485Tx_1||)
	.dwattr $C$DW$84, DW_AT_high_pc(0x00)
	.dwattr $C$DW$84, DW_AT_linkage_name("EnableRs485Tx_1")
	.dwattr $C$DW$84, DW_AT_external
	.dwattr $C$DW$84, DW_AT_decl_file("..\Application\Dynamixel.h")
	.dwattr $C$DW$84, DW_AT_decl_line(0xeb)
	.dwattr $C$DW$84, DW_AT_decl_column(0x0d)
	.dwattr $C$DW$84, DW_AT_TI_max_frame_size(-2)
	.dwpsn	file "..\Application\Dynamixel.h",line 236,column 1,is_stmt,address ||EnableRs485Tx_1||,isa 0

	.dwfde $C$DW$CIE, ||EnableRs485Tx_1||

;***************************************************************
;* FNAME: EnableRs485Tx_1               FR SIZE:   0           *
;*                                                             *
;* FUNCTION ENVIRONMENT                                        *
;*                                                             *
;* FUNCTION PROPERTIES                                         *
;*                            0 Parameter,  0 Auto,  0 SOE     *
;***************************************************************

||EnableRs485Tx_1||:
	.dwcfi	cfa_offset, -2
	.dwcfi	save_reg_to_mem, 26, 0
	.dwpsn	file "..\Application\Dynamixel.h",line 237,column 5,is_stmt,isa 0
        MOVW      DP,#||GpioDataRegs||+35 ; [CPU_ARAU] 
        OR        @$BLOCKED(||GpioDataRegs||)+35,#0x0001 ; [CPU_ALU] |237| 
	.dwpsn	file "..\Application\Dynamixel.h",line 238,column 1,is_stmt,isa 0
$C$DW$85	.dwtag  DW_TAG_TI_branch
	.dwattr $C$DW$85, DW_AT_low_pc(0x00)
	.dwattr $C$DW$85, DW_AT_TI_return

        LRETR     ; [CPU_ALU] 
        ; return occurs ; [] 
	.dwattr $C$DW$84, DW_AT_TI_end_file("..\Application\Dynamixel.h")
	.dwattr $C$DW$84, DW_AT_TI_end_line(0xee)
	.dwattr $C$DW$84, DW_AT_TI_end_column(0x01)
	.dwendentry
	.dwendtag $C$DW$84

	.sect	".text:DisableRs485Tx_1"
	.clink
	.global	||DisableRs485Tx_1||

$C$DW$86	.dwtag  DW_TAG_subprogram
	.dwattr $C$DW$86, DW_AT_name("DisableRs485Tx_1")
	.dwattr $C$DW$86, DW_AT_low_pc(||DisableRs485Tx_1||)
	.dwattr $C$DW$86, DW_AT_high_pc(0x00)
	.dwattr $C$DW$86, DW_AT_linkage_name("DisableRs485Tx_1")
	.dwattr $C$DW$86, DW_AT_external
	.dwattr $C$DW$86, DW_AT_decl_file("..\Application\Dynamixel.h")
	.dwattr $C$DW$86, DW_AT_decl_line(0xef)
	.dwattr $C$DW$86, DW_AT_decl_column(0x0d)
	.dwattr $C$DW$86, DW_AT_TI_max_frame_size(-2)
	.dwpsn	file "..\Application\Dynamixel.h",line 240,column 1,is_stmt,address ||DisableRs485Tx_1||,isa 0

	.dwfde $C$DW$CIE, ||DisableRs485Tx_1||

;***************************************************************
;* FNAME: DisableRs485Tx_1              FR SIZE:   0           *
;*                                                             *
;* FUNCTION ENVIRONMENT                                        *
;*                                                             *
;* FUNCTION PROPERTIES                                         *
;*                            0 Parameter,  0 Auto,  0 SOE     *
;***************************************************************

||DisableRs485Tx_1||:
	.dwcfi	cfa_offset, -2
	.dwcfi	save_reg_to_mem, 26, 0
	.dwpsn	file "..\Application\Dynamixel.h",line 241,column 5,is_stmt,isa 0
        MOVW      DP,#||GpioDataRegs||+37 ; [CPU_ARAU] 
        OR        @$BLOCKED(||GpioDataRegs||)+37,#0x0001 ; [CPU_ALU] |241| 
	.dwpsn	file "..\Application\Dynamixel.h",line 242,column 1,is_stmt,isa 0
$C$DW$87	.dwtag  DW_TAG_TI_branch
	.dwattr $C$DW$87, DW_AT_low_pc(0x00)
	.dwattr $C$DW$87, DW_AT_TI_return

        LRETR     ; [CPU_ALU] 
        ; return occurs ; [] 
	.dwattr $C$DW$86, DW_AT_TI_end_file("..\Application\Dynamixel.h")
	.dwattr $C$DW$86, DW_AT_TI_end_line(0xf2)
	.dwattr $C$DW$86, DW_AT_TI_end_column(0x01)
	.dwendentry
	.dwendtag $C$DW$86

	.sect	".text:IsSpeedCmdZero"
	.clink
	.global	||IsSpeedCmdZero||

$C$DW$88	.dwtag  DW_TAG_subprogram
	.dwattr $C$DW$88, DW_AT_name("IsSpeedCmdZero")
	.dwattr $C$DW$88, DW_AT_low_pc(||IsSpeedCmdZero||)
	.dwattr $C$DW$88, DW_AT_high_pc(0x00)
	.dwattr $C$DW$88, DW_AT_linkage_name("IsSpeedCmdZero")
	.dwattr $C$DW$88, DW_AT_external
	.dwattr $C$DW$88, DW_AT_type(*$C$DW$T$8)
	.dwattr $C$DW$88, DW_AT_decl_file("..\Application\..\..\BHAxes\BhAxes.h")
	.dwattr $C$DW$88, DW_AT_decl_line(0x1b7)
	.dwattr $C$DW$88, DW_AT_decl_column(0x07)
	.dwattr $C$DW$88, DW_AT_TI_max_frame_size(-6)
	.dwpsn	file "..\Application\..\..\BHAxes\BhAxes.h",line 440,column 1,is_stmt,address ||IsSpeedCmdZero||,isa 0

	.dwfde $C$DW$CIE, ||IsSpeedCmdZero||
$C$DW$89	.dwtag  DW_TAG_formal_parameter
	.dwattr $C$DW$89, DW_AT_name("pAxis")
	.dwattr $C$DW$89, DW_AT_type(*$C$DW$T$255)
	.dwattr $C$DW$89, DW_AT_location[DW_OP_reg12]


;***************************************************************
;* FNAME: IsSpeedCmdZero                FR SIZE:   4           *
;*                                                             *
;* FUNCTION ENVIRONMENT                                        *
;*                                                             *
;* FUNCTION PROPERTIES                                         *
;*                            2 Parameter,  2 Auto,  0 SOE     *
;***************************************************************

||IsSpeedCmdZero||:
	.dwcfi	cfa_offset, -2
	.dwcfi	save_reg_to_mem, 26, 0
        ADDB      SP,#4                 ; [CPU_ARAU] 
	.dwcfi	cfa_offset, -6
$C$DW$90	.dwtag  DW_TAG_variable
	.dwattr $C$DW$90, DW_AT_name("pAxis")
	.dwattr $C$DW$90, DW_AT_type(*$C$DW$T$255)
	.dwattr $C$DW$90, DW_AT_location[DW_OP_breg20 -4]

        MOVL      *-SP[4],XAR4          ; [CPU_ALU] |440| 
	.dwpsn	file "..\Application\..\..\BHAxes\BhAxes.h",line 441,column 5,is_stmt,isa 0
        MOVB      ACC,#96               ; [CPU_ALU] |441| 
        ADDL      ACC,*-SP[4]           ; [CPU_ALU] |441| 
        MOVL      XAR4,ACC              ; [CPU_ALU] |441| 
        MOV32     R0H,*+XAR4[0]         ; [CPU_FPU] |441| 
        CMPF32    R0H,#0                ; [CPU_FPU] |441| 
        MOVST0    ZF, NF                ; [CPU_FPU] |441| 
        B         ||$C$L1||,EQ          ; [CPU_ALU] |441| 
        ; branchcc occurs ; [] |441| 
        MOVB      AL,#0                 ; [CPU_ALU] |441| 
        B         ||$C$L2||,UNC         ; [CPU_ALU] |441| 
        ; branch occurs ; [] |441| 
||$C$L1||:    
        MOVB      AL,#1                 ; [CPU_ALU] |441| 
||$C$L2||:    
	.dwpsn	file "..\Application\..\..\BHAxes\BhAxes.h",line 442,column 1,is_stmt,isa 0
        SUBB      SP,#4                 ; [CPU_ARAU] 
	.dwcfi	cfa_offset, -2
$C$DW$91	.dwtag  DW_TAG_TI_branch
	.dwattr $C$DW$91, DW_AT_low_pc(0x00)
	.dwattr $C$DW$91, DW_AT_TI_return

        LRETR     ; [CPU_ALU] 
        ; return occurs ; [] 
	.dwattr $C$DW$88, DW_AT_TI_end_file("..\Application\..\..\BHAxes\BhAxes.h")
	.dwattr $C$DW$88, DW_AT_TI_end_line(0x1ba)
	.dwattr $C$DW$88, DW_AT_TI_end_column(0x01)
	.dwendentry
	.dwendtag $C$DW$88

	.sect	".text:ResetAxisFaults"
	.clink
	.global	||ResetAxisFaults||

$C$DW$92	.dwtag  DW_TAG_subprogram
	.dwattr $C$DW$92, DW_AT_name("ResetAxisFaults")
	.dwattr $C$DW$92, DW_AT_low_pc(||ResetAxisFaults||)
	.dwattr $C$DW$92, DW_AT_high_pc(0x00)
	.dwattr $C$DW$92, DW_AT_linkage_name("ResetAxisFaults")
	.dwattr $C$DW$92, DW_AT_external
	.dwattr $C$DW$92, DW_AT_decl_file("..\Application\..\..\BHAxes\BhAxes.h")
	.dwattr $C$DW$92, DW_AT_decl_line(0x1c1)
	.dwattr $C$DW$92, DW_AT_decl_column(0x06)
	.dwattr $C$DW$92, DW_AT_TI_max_frame_size(-4)
	.dwpsn	file "..\Application\..\..\BHAxes\BhAxes.h",line 450,column 1,is_stmt,address ||ResetAxisFaults||,isa 0

	.dwfde $C$DW$CIE, ||ResetAxisFaults||
$C$DW$93	.dwtag  DW_TAG_formal_parameter
	.dwattr $C$DW$93, DW_AT_name("pAxis")
	.dwattr $C$DW$93, DW_AT_type(*$C$DW$T$255)
	.dwattr $C$DW$93, DW_AT_location[DW_OP_reg12]


;***************************************************************
;* FNAME: ResetAxisFaults               FR SIZE:   2           *
;*                                                             *
;* FUNCTION ENVIRONMENT                                        *
;*                                                             *
;* FUNCTION PROPERTIES                                         *
;*                            0 Parameter,  2 Auto,  0 SOE     *
;***************************************************************

||ResetAxisFaults||:
	.dwcfi	cfa_offset, -2
	.dwcfi	save_reg_to_mem, 26, 0
        ADDB      SP,#2                 ; [CPU_ARAU] 
	.dwcfi	cfa_offset, -4
$C$DW$94	.dwtag  DW_TAG_variable
	.dwattr $C$DW$94, DW_AT_name("pAxis")
	.dwattr $C$DW$94, DW_AT_type(*$C$DW$T$255)
	.dwattr $C$DW$94, DW_AT_location[DW_OP_breg20 -2]

        MOVL      *-SP[2],XAR4          ; [CPU_ALU] |450| 
	.dwpsn	file "..\Application\..\..\BHAxes\BhAxes.h",line 451,column 5,is_stmt,isa 0
        MOVB      ACC,#189              ; [CPU_ALU] |451| 
        ADDL      ACC,*-SP[2]           ; [CPU_ALU] |451| 
        MOVL      XAR4,ACC              ; [CPU_ALU] |451| 
        INC       *+XAR4[0]             ; [CPU_ALU] |451| 
	.dwpsn	file "..\Application\..\..\BHAxes\BhAxes.h",line 452,column 1,is_stmt,isa 0
        SUBB      SP,#2                 ; [CPU_ARAU] 
	.dwcfi	cfa_offset, -2
$C$DW$95	.dwtag  DW_TAG_TI_branch
	.dwattr $C$DW$95, DW_AT_low_pc(0x00)
	.dwattr $C$DW$95, DW_AT_TI_return

        LRETR     ; [CPU_ALU] 
        ; return occurs ; [] 
	.dwattr $C$DW$92, DW_AT_TI_end_file("..\Application\..\..\BHAxes\BhAxes.h")
	.dwattr $C$DW$92, DW_AT_TI_end_line(0x1c4)
	.dwattr $C$DW$92, DW_AT_TI_end_column(0x01)
	.dwendentry
	.dwendtag $C$DW$92

	.sect	".text:SetPosCmd2PosFeedback"
	.clink
	.global	||SetPosCmd2PosFeedback||

$C$DW$96	.dwtag  DW_TAG_subprogram
	.dwattr $C$DW$96, DW_AT_name("SetPosCmd2PosFeedback")
	.dwattr $C$DW$96, DW_AT_low_pc(||SetPosCmd2PosFeedback||)
	.dwattr $C$DW$96, DW_AT_high_pc(0x00)
	.dwattr $C$DW$96, DW_AT_linkage_name("SetPosCmd2PosFeedback")
	.dwattr $C$DW$96, DW_AT_external
	.dwattr $C$DW$96, DW_AT_decl_file("..\Application\..\..\BHAxes\BhAxes.h")
	.dwattr $C$DW$96, DW_AT_decl_line(0x1ca)
	.dwattr $C$DW$96, DW_AT_decl_column(0x06)
	.dwattr $C$DW$96, DW_AT_TI_max_frame_size(-4)
	.dwpsn	file "..\Application\..\..\BHAxes\BhAxes.h",line 459,column 1,is_stmt,address ||SetPosCmd2PosFeedback||,isa 0

	.dwfde $C$DW$CIE, ||SetPosCmd2PosFeedback||
$C$DW$97	.dwtag  DW_TAG_formal_parameter
	.dwattr $C$DW$97, DW_AT_name("pAxis")
	.dwattr $C$DW$97, DW_AT_type(*$C$DW$T$255)
	.dwattr $C$DW$97, DW_AT_location[DW_OP_reg12]


;***************************************************************
;* FNAME: SetPosCmd2PosFeedback         FR SIZE:   2           *
;*                                                             *
;* FUNCTION ENVIRONMENT                                        *
;*                                                             *
;* FUNCTION PROPERTIES                                         *
;*                            0 Parameter,  2 Auto,  0 SOE     *
;***************************************************************

||SetPosCmd2PosFeedback||:
	.dwcfi	cfa_offset, -2
	.dwcfi	save_reg_to_mem, 26, 0
        ADDB      SP,#2                 ; [CPU_ARAU] 
	.dwcfi	cfa_offset, -4
$C$DW$98	.dwtag  DW_TAG_variable
	.dwattr $C$DW$98, DW_AT_name("pAxis")
	.dwattr $C$DW$98, DW_AT_type(*$C$DW$T$255)
	.dwattr $C$DW$98, DW_AT_location[DW_OP_breg20 -2]

        MOVL      *-SP[2],XAR4          ; [CPU_ALU] |459| 
	.dwpsn	file "..\Application\..\..\BHAxes\BhAxes.h",line 460,column 5,is_stmt,isa 0
        MOVB      ACC,#92               ; [CPU_ALU] |460| 
        ADDL      ACC,*-SP[2]           ; [CPU_ALU] |460| 
        MOVL      XAR4,ACC              ; [CPU_ALU] |460| 
        MOVL      XAR6,*+XAR4[0]        ; [CPU_ALU] |460| 
        MOVB      ACC,#100              ; [CPU_ALU] |460| 
        ADDL      ACC,*-SP[2]           ; [CPU_ALU] |460| 
        MOVL      XAR4,ACC              ; [CPU_ALU] |460| 
        MOVL      *+XAR4[0],XAR6        ; [CPU_ALU] |460| 
	.dwpsn	file "..\Application\..\..\BHAxes\BhAxes.h",line 461,column 1,is_stmt,isa 0
        SUBB      SP,#2                 ; [CPU_ARAU] 
	.dwcfi	cfa_offset, -2
$C$DW$99	.dwtag  DW_TAG_TI_branch
	.dwattr $C$DW$99, DW_AT_low_pc(0x00)
	.dwattr $C$DW$99, DW_AT_TI_return

        LRETR     ; [CPU_ALU] 
        ; return occurs ; [] 
	.dwattr $C$DW$96, DW_AT_TI_end_file("..\Application\..\..\BHAxes\BhAxes.h")
	.dwattr $C$DW$96, DW_AT_TI_end_line(0x1cd)
	.dwattr $C$DW$96, DW_AT_TI_end_column(0x01)
	.dwendentry
	.dwendtag $C$DW$96

	.sect	".text:SetUserManualSpeedTarget"
	.clink
	.global	||SetUserManualSpeedTarget||

$C$DW$100	.dwtag  DW_TAG_subprogram
	.dwattr $C$DW$100, DW_AT_name("SetUserManualSpeedTarget")
	.dwattr $C$DW$100, DW_AT_low_pc(||SetUserManualSpeedTarget||)
	.dwattr $C$DW$100, DW_AT_high_pc(0x00)
	.dwattr $C$DW$100, DW_AT_linkage_name("SetUserManualSpeedTarget")
	.dwattr $C$DW$100, DW_AT_external
	.dwattr $C$DW$100, DW_AT_decl_file("..\Application\..\..\BHAxes\BhAxes.h")
	.dwattr $C$DW$100, DW_AT_decl_line(0x1d2)
	.dwattr $C$DW$100, DW_AT_decl_column(0x06)
	.dwattr $C$DW$100, DW_AT_TI_max_frame_size(-10)
	.dwpsn	file "..\Application\..\..\BHAxes\BhAxes.h",line 467,column 1,is_stmt,address ||SetUserManualSpeedTarget||,isa 0

	.dwfde $C$DW$CIE, ||SetUserManualSpeedTarget||
$C$DW$101	.dwtag  DW_TAG_formal_parameter
	.dwattr $C$DW$101, DW_AT_name("pAxis")
	.dwattr $C$DW$101, DW_AT_type(*$C$DW$T$255)
	.dwattr $C$DW$101, DW_AT_location[DW_OP_reg12]

$C$DW$102	.dwtag  DW_TAG_formal_parameter
	.dwattr $C$DW$102, DW_AT_name("v")
	.dwattr $C$DW$102, DW_AT_type(*$C$DW$T$16)
	.dwattr $C$DW$102, DW_AT_location[DW_OP_regx 0x2b]

$C$DW$103	.dwtag  DW_TAG_formal_parameter
	.dwattr $C$DW$103, DW_AT_name("DriveFac")
	.dwattr $C$DW$103, DW_AT_type(*$C$DW$T$16)
	.dwattr $C$DW$103, DW_AT_location[DW_OP_regx 0x2f]


;***************************************************************
;* FNAME: SetUserManualSpeedTarget      FR SIZE:   8           *
;*                                                             *
;* FUNCTION ENVIRONMENT                                        *
;*                                                             *
;* FUNCTION PROPERTIES                                         *
;*                            0 Parameter,  7 Auto,  0 SOE     *
;***************************************************************

||SetUserManualSpeedTarget||:
	.dwcfi	cfa_offset, -2
	.dwcfi	save_reg_to_mem, 26, 0
        ADDB      SP,#8                 ; [CPU_ARAU] 
	.dwcfi	cfa_offset, -10
$C$DW$104	.dwtag  DW_TAG_variable
	.dwattr $C$DW$104, DW_AT_name("pAxis")
	.dwattr $C$DW$104, DW_AT_type(*$C$DW$T$255)
	.dwattr $C$DW$104, DW_AT_location[DW_OP_breg20 -2]

$C$DW$105	.dwtag  DW_TAG_variable
	.dwattr $C$DW$105, DW_AT_name("v")
	.dwattr $C$DW$105, DW_AT_type(*$C$DW$T$16)
	.dwattr $C$DW$105, DW_AT_location[DW_OP_breg20 -4]

$C$DW$106	.dwtag  DW_TAG_variable
	.dwattr $C$DW$106, DW_AT_name("DriveFac")
	.dwattr $C$DW$106, DW_AT_type(*$C$DW$T$16)
	.dwattr $C$DW$106, DW_AT_location[DW_OP_breg20 -6]

$C$DW$107	.dwtag  DW_TAG_variable
	.dwattr $C$DW$107, DW_AT_name("mask")
	.dwattr $C$DW$107, DW_AT_type(*$C$DW$T$9)
	.dwattr $C$DW$107, DW_AT_location[DW_OP_breg20 -7]

        MOV32     *-SP[6],R1H           ; [CPU_FPU] |467| 
        MOV32     *-SP[4],R0H           ; [CPU_FPU] |467| 
        MOVL      *-SP[2],XAR4          ; [CPU_ALU] |467| 
	.dwpsn	file "..\Application\..\..\BHAxes\BhAxes.h",line 469,column 5,is_stmt,isa 0
        PUSH      ST1                   ; [CPU_ALU] |469| 
        SETC      INTM, DBGM            ; [CPU_ALU] |469| 
        MOV       AL,*--SP              ; [CPU_ALU] |469| 
        MOV       *-SP[7],AL            ; [CPU_ALU] |469| 
	.dwpsn	file "..\Application\..\..\BHAxes\BhAxes.h",line 470,column 5,is_stmt,isa 0
        MOVB      ACC,#98               ; [CPU_ALU] |470| 
        MOV32     R0H,*-SP[4]           ; [CPU_FPU] |470| 
        MOV32     R1H,*-SP[6]           ; [CPU_FPU] |470| 
        MPYF32    R0H,R1H,R0H           ; [CPU_FPU] |470| 
        ADDL      ACC,*-SP[2]           ; [CPU_ALU] |470| 
        MOVL      XAR4,ACC              ; [CPU_ALU] |470| 
        MOV32     *+XAR4[0],R0H         ; [CPU_FPU] |470| 
	.dwpsn	file "..\Application\..\..\BHAxes\BhAxes.h",line 471,column 5,is_stmt,isa 0
        MOV       AL,*-SP[7]            ; [CPU_ALU] |471| 
        MOV       *SP++,AL              ; [CPU_ALU] |471| 
        POP       ST1                   ; [CPU_ALU] |471| 
	.dwpsn	file "..\Application\..\..\BHAxes\BhAxes.h",line 472,column 1,is_stmt,isa 0
        SUBB      SP,#8                 ; [CPU_ARAU] 
	.dwcfi	cfa_offset, -2
$C$DW$108	.dwtag  DW_TAG_TI_branch
	.dwattr $C$DW$108, DW_AT_low_pc(0x00)
	.dwattr $C$DW$108, DW_AT_TI_return

        LRETR     ; [CPU_ALU] 
        ; return occurs ; [] 
	.dwattr $C$DW$100, DW_AT_TI_end_file("..\Application\..\..\BHAxes\BhAxes.h")
	.dwattr $C$DW$100, DW_AT_TI_end_line(0x1d8)
	.dwattr $C$DW$100, DW_AT_TI_end_column(0x01)
	.dwendentry
	.dwendtag $C$DW$100

	.sect	".text:SetWheelSpeedCmd"
	.clink
	.global	||SetWheelSpeedCmd||

$C$DW$109	.dwtag  DW_TAG_subprogram
	.dwattr $C$DW$109, DW_AT_name("SetWheelSpeedCmd")
	.dwattr $C$DW$109, DW_AT_low_pc(||SetWheelSpeedCmd||)
	.dwattr $C$DW$109, DW_AT_high_pc(0x00)
	.dwattr $C$DW$109, DW_AT_linkage_name("SetWheelSpeedCmd")
	.dwattr $C$DW$109, DW_AT_external
	.dwattr $C$DW$109, DW_AT_decl_file("..\Application\..\..\BHAxes\BhAxes.h")
	.dwattr $C$DW$109, DW_AT_decl_line(0x1db)
	.dwattr $C$DW$109, DW_AT_decl_column(0x06)
	.dwattr $C$DW$109, DW_AT_TI_max_frame_size(-8)
	.dwpsn	file "..\Application\..\..\BHAxes\BhAxes.h",line 476,column 1,is_stmt,address ||SetWheelSpeedCmd||,isa 0

	.dwfde $C$DW$CIE, ||SetWheelSpeedCmd||
$C$DW$110	.dwtag  DW_TAG_formal_parameter
	.dwattr $C$DW$110, DW_AT_name("pAxis")
	.dwattr $C$DW$110, DW_AT_type(*$C$DW$T$255)
	.dwattr $C$DW$110, DW_AT_location[DW_OP_reg12]

$C$DW$111	.dwtag  DW_TAG_formal_parameter
	.dwattr $C$DW$111, DW_AT_name("v")
	.dwattr $C$DW$111, DW_AT_type(*$C$DW$T$16)
	.dwattr $C$DW$111, DW_AT_location[DW_OP_regx 0x2b]

$C$DW$112	.dwtag  DW_TAG_formal_parameter
	.dwattr $C$DW$112, DW_AT_name("DriveFac")
	.dwattr $C$DW$112, DW_AT_type(*$C$DW$T$16)
	.dwattr $C$DW$112, DW_AT_location[DW_OP_regx 0x2f]


;***************************************************************
;* FNAME: SetWheelSpeedCmd              FR SIZE:   6           *
;*                                                             *
;* FUNCTION ENVIRONMENT                                        *
;*                                                             *
;* FUNCTION PROPERTIES                                         *
;*                            0 Parameter,  6 Auto,  0 SOE     *
;***************************************************************

||SetWheelSpeedCmd||:
	.dwcfi	cfa_offset, -2
	.dwcfi	save_reg_to_mem, 26, 0
        ADDB      SP,#6                 ; [CPU_ARAU] 
	.dwcfi	cfa_offset, -8
$C$DW$113	.dwtag  DW_TAG_variable
	.dwattr $C$DW$113, DW_AT_name("pAxis")
	.dwattr $C$DW$113, DW_AT_type(*$C$DW$T$255)
	.dwattr $C$DW$113, DW_AT_location[DW_OP_breg20 -2]

$C$DW$114	.dwtag  DW_TAG_variable
	.dwattr $C$DW$114, DW_AT_name("v")
	.dwattr $C$DW$114, DW_AT_type(*$C$DW$T$16)
	.dwattr $C$DW$114, DW_AT_location[DW_OP_breg20 -4]

$C$DW$115	.dwtag  DW_TAG_variable
	.dwattr $C$DW$115, DW_AT_name("DriveFac")
	.dwattr $C$DW$115, DW_AT_type(*$C$DW$T$16)
	.dwattr $C$DW$115, DW_AT_location[DW_OP_breg20 -6]

        MOV32     *-SP[6],R1H           ; [CPU_FPU] |476| 
        MOV32     *-SP[4],R0H           ; [CPU_FPU] |476| 
        MOVL      *-SP[2],XAR4          ; [CPU_ALU] |476| 
	.dwpsn	file "..\Application\..\..\BHAxes\BhAxes.h",line 477,column 5,is_stmt,isa 0
        MOVB      ACC,#96               ; [CPU_ALU] |477| 
        MPYF32    R0H,R1H,R0H           ; [CPU_FPU] |477| 
        ADDL      ACC,*-SP[2]           ; [CPU_ALU] |477| 
        MOVL      XAR4,ACC              ; [CPU_ALU] |477| 
        MOV32     *+XAR4[0],R0H         ; [CPU_FPU] |477| 
	.dwpsn	file "..\Application\..\..\BHAxes\BhAxes.h",line 478,column 1,is_stmt,isa 0
        SUBB      SP,#6                 ; [CPU_ARAU] 
	.dwcfi	cfa_offset, -2
$C$DW$116	.dwtag  DW_TAG_TI_branch
	.dwattr $C$DW$116, DW_AT_low_pc(0x00)
	.dwattr $C$DW$116, DW_AT_TI_return

        LRETR     ; [CPU_ALU] 
        ; return occurs ; [] 
	.dwattr $C$DW$109, DW_AT_TI_end_file("..\Application\..\..\BHAxes\BhAxes.h")
	.dwattr $C$DW$109, DW_AT_TI_end_line(0x1de)
	.dwattr $C$DW$109, DW_AT_TI_end_column(0x01)
	.dwendentry
	.dwendtag $C$DW$109

	.sect	".text:CanAxisIsPosition"
	.clink
	.global	||CanAxisIsPosition||

$C$DW$117	.dwtag  DW_TAG_subprogram
	.dwattr $C$DW$117, DW_AT_name("CanAxisIsPosition")
	.dwattr $C$DW$117, DW_AT_low_pc(||CanAxisIsPosition||)
	.dwattr $C$DW$117, DW_AT_high_pc(0x00)
	.dwattr $C$DW$117, DW_AT_linkage_name("CanAxisIsPosition")
	.dwattr $C$DW$117, DW_AT_external
	.dwattr $C$DW$117, DW_AT_type(*$C$DW$T$8)
	.dwattr $C$DW$117, DW_AT_decl_file("..\Application\..\..\BHAxes\BhAxes.h")
	.dwattr $C$DW$117, DW_AT_decl_line(0x1e2)
	.dwattr $C$DW$117, DW_AT_decl_column(0x01)
	.dwattr $C$DW$117, DW_AT_TI_max_frame_size(-4)
	.dwpsn	file "..\Application\..\..\BHAxes\BhAxes.h",line 483,column 1,is_stmt,address ||CanAxisIsPosition||,isa 0

	.dwfde $C$DW$CIE, ||CanAxisIsPosition||
$C$DW$118	.dwtag  DW_TAG_formal_parameter
	.dwattr $C$DW$118, DW_AT_name("pAxis")
	.dwattr $C$DW$118, DW_AT_type(*$C$DW$T$255)
	.dwattr $C$DW$118, DW_AT_location[DW_OP_reg12]


;***************************************************************
;* FNAME: CanAxisIsPosition             FR SIZE:   2           *
;*                                                             *
;* FUNCTION ENVIRONMENT                                        *
;*                                                             *
;* FUNCTION PROPERTIES                                         *
;*                            0 Parameter,  2 Auto,  0 SOE     *
;***************************************************************

||CanAxisIsPosition||:
	.dwcfi	cfa_offset, -2
	.dwcfi	save_reg_to_mem, 26, 0
        ADDB      SP,#2                 ; [CPU_ARAU] 
	.dwcfi	cfa_offset, -4
$C$DW$119	.dwtag  DW_TAG_variable
	.dwattr $C$DW$119, DW_AT_name("pAxis")
	.dwattr $C$DW$119, DW_AT_type(*$C$DW$T$255)
	.dwattr $C$DW$119, DW_AT_location[DW_OP_breg20 -2]

        MOVL      *-SP[2],XAR4          ; [CPU_ALU] |483| 
	.dwpsn	file "..\Application\..\..\BHAxes\BhAxes.h",line 484,column 5,is_stmt,isa 0
        MOVB      ACC,#184              ; [CPU_ALU] |484| 
        ADDL      ACC,*-SP[2]           ; [CPU_ALU] |484| 
        MOVL      XAR4,ACC              ; [CPU_ALU] |484| 
        MOVB      AL,#0                 ; [CPU_ALU] |484| 
        MOV       AH,*+XAR4[0]          ; [CPU_ALU] |484| 
        CMPB      AH,#4                 ; [CPU_ALU] |484| 
        B         ||$C$L3||,LO          ; [CPU_ALU] |484| 
        ; branchcc occurs ; [] |484| 
        MOVB      AL,#1                 ; [CPU_ALU] |484| 
||$C$L3||:    
	.dwpsn	file "..\Application\..\..\BHAxes\BhAxes.h",line 485,column 1,is_stmt,isa 0
        SUBB      SP,#2                 ; [CPU_ARAU] 
	.dwcfi	cfa_offset, -2
$C$DW$120	.dwtag  DW_TAG_TI_branch
	.dwattr $C$DW$120, DW_AT_low_pc(0x00)
	.dwattr $C$DW$120, DW_AT_TI_return

        LRETR     ; [CPU_ALU] 
        ; return occurs ; [] 
	.dwattr $C$DW$117, DW_AT_TI_end_file("..\Application\..\..\BHAxes\BhAxes.h")
	.dwattr $C$DW$117, DW_AT_TI_end_line(0x1e5)
	.dwattr $C$DW$117, DW_AT_TI_end_column(0x01)
	.dwendentry
	.dwendtag $C$DW$117

	.sect	".text:IsMotorOn"
	.clink
	.global	||IsMotorOn||

$C$DW$121	.dwtag  DW_TAG_subprogram
	.dwattr $C$DW$121, DW_AT_name("IsMotorOn")
	.dwattr $C$DW$121, DW_AT_low_pc(||IsMotorOn||)
	.dwattr $C$DW$121, DW_AT_high_pc(0x00)
	.dwattr $C$DW$121, DW_AT_linkage_name("IsMotorOn")
	.dwattr $C$DW$121, DW_AT_external
	.dwattr $C$DW$121, DW_AT_type(*$C$DW$T$9)
	.dwattr $C$DW$121, DW_AT_decl_file("..\Application\..\..\BHAxes\BhAxes.h")
	.dwattr $C$DW$121, DW_AT_decl_line(0x1e9)
	.dwattr $C$DW$121, DW_AT_decl_column(0x10)
	.dwattr $C$DW$121, DW_AT_TI_max_frame_size(-4)
	.dwpsn	file "..\Application\..\..\BHAxes\BhAxes.h",line 490,column 1,is_stmt,address ||IsMotorOn||,isa 0

	.dwfde $C$DW$CIE, ||IsMotorOn||
$C$DW$122	.dwtag  DW_TAG_formal_parameter
	.dwattr $C$DW$122, DW_AT_name("pAxis")
	.dwattr $C$DW$122, DW_AT_type(*$C$DW$T$255)
	.dwattr $C$DW$122, DW_AT_location[DW_OP_reg12]


;***************************************************************
;* FNAME: IsMotorOn                     FR SIZE:   2           *
;*                                                             *
;* FUNCTION ENVIRONMENT                                        *
;*                                                             *
;* FUNCTION PROPERTIES                                         *
;*                            0 Parameter,  2 Auto,  0 SOE     *
;***************************************************************

||IsMotorOn||:
	.dwcfi	cfa_offset, -2
	.dwcfi	save_reg_to_mem, 26, 0
        ADDB      SP,#2                 ; [CPU_ARAU] 
	.dwcfi	cfa_offset, -4
$C$DW$123	.dwtag  DW_TAG_variable
	.dwattr $C$DW$123, DW_AT_name("pAxis")
	.dwattr $C$DW$123, DW_AT_type(*$C$DW$T$255)
	.dwattr $C$DW$123, DW_AT_location[DW_OP_breg20 -2]

        MOVL      *-SP[2],XAR4          ; [CPU_ALU] |490| 
	.dwpsn	file "..\Application\..\..\BHAxes\BhAxes.h",line 491,column 5,is_stmt,isa 0
        MOVB      ACC,#162              ; [CPU_ALU] |491| 
        ADDL      ACC,*-SP[2]           ; [CPU_ALU] |491| 
        MOVL      XAR4,ACC              ; [CPU_ALU] |491| 
        MOV       AL,*+XAR4[0]          ; [CPU_ALU] |491| 
        MOVL      XAR4,*-SP[2]          ; [CPU_ALU] |491| 
        ANDB      AL,#0x01              ; [CPU_ALU] |491| 
        MOV       T,AL                  ; [CPU_ALU] |491| 
        MPY       ACC,T,*+XAR4[4]       ; [CPU_ALU] |491| 
	.dwpsn	file "..\Application\..\..\BHAxes\BhAxes.h",line 492,column 1,is_stmt,isa 0
        SUBB      SP,#2                 ; [CPU_ARAU] 
	.dwcfi	cfa_offset, -2
$C$DW$124	.dwtag  DW_TAG_TI_branch
	.dwattr $C$DW$124, DW_AT_low_pc(0x00)
	.dwattr $C$DW$124, DW_AT_TI_return

        LRETR     ; [CPU_ALU] 
        ; return occurs ; [] 
	.dwattr $C$DW$121, DW_AT_TI_end_file("..\Application\..\..\BHAxes\BhAxes.h")
	.dwattr $C$DW$121, DW_AT_TI_end_line(0x1ec)
	.dwattr $C$DW$121, DW_AT_TI_end_column(0x01)
	.dwendentry
	.dwendtag $C$DW$121

	.sect	".text:IsMotorReady"
	.clink
	.global	||IsMotorReady||

$C$DW$125	.dwtag  DW_TAG_subprogram
	.dwattr $C$DW$125, DW_AT_name("IsMotorReady")
	.dwattr $C$DW$125, DW_AT_low_pc(||IsMotorReady||)
	.dwattr $C$DW$125, DW_AT_high_pc(0x00)
	.dwattr $C$DW$125, DW_AT_linkage_name("IsMotorReady")
	.dwattr $C$DW$125, DW_AT_external
	.dwattr $C$DW$125, DW_AT_type(*$C$DW$T$9)
	.dwattr $C$DW$125, DW_AT_decl_file("..\Application\..\..\BHAxes\BhAxes.h")
	.dwattr $C$DW$125, DW_AT_decl_line(0x1f0)
	.dwattr $C$DW$125, DW_AT_decl_column(0x10)
	.dwattr $C$DW$125, DW_AT_TI_max_frame_size(-4)
	.dwpsn	file "..\Application\..\..\BHAxes\BhAxes.h",line 497,column 1,is_stmt,address ||IsMotorReady||,isa 0

	.dwfde $C$DW$CIE, ||IsMotorReady||
$C$DW$126	.dwtag  DW_TAG_formal_parameter
	.dwattr $C$DW$126, DW_AT_name("pAxis")
	.dwattr $C$DW$126, DW_AT_type(*$C$DW$T$255)
	.dwattr $C$DW$126, DW_AT_location[DW_OP_reg12]


;***************************************************************
;* FNAME: IsMotorReady                  FR SIZE:   2           *
;*                                                             *
;* FUNCTION ENVIRONMENT                                        *
;*                                                             *
;* FUNCTION PROPERTIES                                         *
;*                            0 Parameter,  2 Auto,  0 SOE     *
;***************************************************************

||IsMotorReady||:
	.dwcfi	cfa_offset, -2
	.dwcfi	save_reg_to_mem, 26, 0
        ADDB      SP,#2                 ; [CPU_ARAU] 
	.dwcfi	cfa_offset, -4
$C$DW$127	.dwtag  DW_TAG_variable
	.dwattr $C$DW$127, DW_AT_name("pAxis")
	.dwattr $C$DW$127, DW_AT_type(*$C$DW$T$255)
	.dwattr $C$DW$127, DW_AT_location[DW_OP_breg20 -2]

        MOVL      *-SP[2],XAR4          ; [CPU_ALU] |497| 
	.dwpsn	file "..\Application\..\..\BHAxes\BhAxes.h",line 499,column 5,is_stmt,isa 0
        MOVB      ACC,#162              ; [CPU_ALU] |499| 
        ADDL      ACC,*-SP[2]           ; [CPU_ALU] |499| 
        MOVL      XAR4,ACC              ; [CPU_ALU] |499| 
        AND       AL,*+XAR4[0],#0x0002  ; [CPU_ALU] |499| 
        MOVL      XAR4,*-SP[2]          ; [CPU_ALU] |499| 
        LSR       AL,1                  ; [CPU_ALU] |499| 
        MOV       T,AL                  ; [CPU_ALU] |499| 
        MPY       ACC,T,*+XAR4[4]       ; [CPU_ALU] |499| 
	.dwpsn	file "..\Application\..\..\BHAxes\BhAxes.h",line 500,column 1,is_stmt,isa 0
        SUBB      SP,#2                 ; [CPU_ARAU] 
	.dwcfi	cfa_offset, -2
$C$DW$128	.dwtag  DW_TAG_TI_branch
	.dwattr $C$DW$128, DW_AT_low_pc(0x00)
	.dwattr $C$DW$128, DW_AT_TI_return

        LRETR     ; [CPU_ALU] 
        ; return occurs ; [] 
	.dwattr $C$DW$125, DW_AT_TI_end_file("..\Application\..\..\BHAxes\BhAxes.h")
	.dwattr $C$DW$125, DW_AT_TI_end_line(0x1f4)
	.dwattr $C$DW$125, DW_AT_TI_end_column(0x01)
	.dwendentry
	.dwendtag $C$DW$125

	.sect	".text:SetCanAxisReferenceMode"
	.clink
	.global	||SetCanAxisReferenceMode||

$C$DW$129	.dwtag  DW_TAG_subprogram
	.dwattr $C$DW$129, DW_AT_name("SetCanAxisReferenceMode")
	.dwattr $C$DW$129, DW_AT_low_pc(||SetCanAxisReferenceMode||)
	.dwattr $C$DW$129, DW_AT_high_pc(0x00)
	.dwattr $C$DW$129, DW_AT_linkage_name("SetCanAxisReferenceMode")
	.dwattr $C$DW$129, DW_AT_external
	.dwattr $C$DW$129, DW_AT_decl_file("..\Application\..\..\BHAxes\BhAxes.h")
	.dwattr $C$DW$129, DW_AT_decl_line(0x1f7)
	.dwattr $C$DW$129, DW_AT_decl_column(0x06)
	.dwattr $C$DW$129, DW_AT_TI_max_frame_size(-6)
	.dwpsn	file "..\Application\..\..\BHAxes\BhAxes.h",line 504,column 1,is_stmt,address ||SetCanAxisReferenceMode||,isa 0

	.dwfde $C$DW$CIE, ||SetCanAxisReferenceMode||
$C$DW$130	.dwtag  DW_TAG_formal_parameter
	.dwattr $C$DW$130, DW_AT_name("pAxis")
	.dwattr $C$DW$130, DW_AT_type(*$C$DW$T$255)
	.dwattr $C$DW$130, DW_AT_location[DW_OP_reg12]

$C$DW$131	.dwtag  DW_TAG_formal_parameter
	.dwattr $C$DW$131, DW_AT_name("refmode")
	.dwattr $C$DW$131, DW_AT_type(*$C$DW$T$268)
	.dwattr $C$DW$131, DW_AT_location[DW_OP_reg0]


;***************************************************************
;* FNAME: SetCanAxisReferenceMode       FR SIZE:   4           *
;*                                                             *
;* FUNCTION ENVIRONMENT                                        *
;*                                                             *
;* FUNCTION PROPERTIES                                         *
;*                            0 Parameter,  3 Auto,  0 SOE     *
;***************************************************************

||SetCanAxisReferenceMode||:
	.dwcfi	cfa_offset, -2
	.dwcfi	save_reg_to_mem, 26, 0
        ADDB      SP,#4                 ; [CPU_ARAU] 
	.dwcfi	cfa_offset, -6
$C$DW$132	.dwtag  DW_TAG_variable
	.dwattr $C$DW$132, DW_AT_name("pAxis")
	.dwattr $C$DW$132, DW_AT_type(*$C$DW$T$255)
	.dwattr $C$DW$132, DW_AT_location[DW_OP_breg20 -2]

$C$DW$133	.dwtag  DW_TAG_variable
	.dwattr $C$DW$133, DW_AT_name("refmode")
	.dwattr $C$DW$133, DW_AT_type(*$C$DW$T$268)
	.dwattr $C$DW$133, DW_AT_location[DW_OP_breg20 -3]

        MOV       *-SP[3],AL            ; [CPU_ALU] |504| 
        MOVL      *-SP[2],XAR4          ; [CPU_ALU] |504| 
	.dwpsn	file "..\Application\..\..\BHAxes\BhAxes.h",line 505,column 5,is_stmt,isa 0
        MOVB      ACC,#195              ; [CPU_ALU] |505| 
        ADDL      ACC,*-SP[2]           ; [CPU_ALU] |505| 
        MOVL      XAR7,ACC              ; [CPU_ALU] |505| 
        MOV       AL,*-SP[3]            ; [CPU_ALU] |505| 
        MOV       *+XAR7[0],AL          ; [CPU_ALU] |505| 
	.dwpsn	file "..\Application\..\..\BHAxes\BhAxes.h",line 506,column 1,is_stmt,isa 0
        SUBB      SP,#4                 ; [CPU_ARAU] 
	.dwcfi	cfa_offset, -2
$C$DW$134	.dwtag  DW_TAG_TI_branch
	.dwattr $C$DW$134, DW_AT_low_pc(0x00)
	.dwattr $C$DW$134, DW_AT_TI_return

        LRETR     ; [CPU_ALU] 
        ; return occurs ; [] 
	.dwattr $C$DW$129, DW_AT_TI_end_file("..\Application\..\..\BHAxes\BhAxes.h")
	.dwattr $C$DW$129, DW_AT_TI_end_line(0x1fa)
	.dwattr $C$DW$129, DW_AT_TI_end_column(0x01)
	.dwendentry
	.dwendtag $C$DW$129

	.sect	".text:SetCanAxisPosTarget"
	.clink
	.global	||SetCanAxisPosTarget||

$C$DW$135	.dwtag  DW_TAG_subprogram
	.dwattr $C$DW$135, DW_AT_name("SetCanAxisPosTarget")
	.dwattr $C$DW$135, DW_AT_low_pc(||SetCanAxisPosTarget||)
	.dwattr $C$DW$135, DW_AT_high_pc(0x00)
	.dwattr $C$DW$135, DW_AT_linkage_name("SetCanAxisPosTarget")
	.dwattr $C$DW$135, DW_AT_external
	.dwattr $C$DW$135, DW_AT_decl_file("..\Application\..\..\BHAxes\BhAxes.h")
	.dwattr $C$DW$135, DW_AT_decl_line(0x1fd)
	.dwattr $C$DW$135, DW_AT_decl_column(0x06)
	.dwattr $C$DW$135, DW_AT_TI_max_frame_size(-8)
	.dwpsn	file "..\Application\..\..\BHAxes\BhAxes.h",line 510,column 1,is_stmt,address ||SetCanAxisPosTarget||,isa 0

	.dwfde $C$DW$CIE, ||SetCanAxisPosTarget||
$C$DW$136	.dwtag  DW_TAG_formal_parameter
	.dwattr $C$DW$136, DW_AT_name("pAxis")
	.dwattr $C$DW$136, DW_AT_type(*$C$DW$T$255)
	.dwattr $C$DW$136, DW_AT_location[DW_OP_reg12]

$C$DW$137	.dwtag  DW_TAG_formal_parameter
	.dwattr $C$DW$137, DW_AT_name("value")
	.dwattr $C$DW$137, DW_AT_type(*$C$DW$T$16)
	.dwattr $C$DW$137, DW_AT_location[DW_OP_regx 0x2b]


;***************************************************************
;* FNAME: SetCanAxisPosTarget           FR SIZE:   6           *
;*                                                             *
;* FUNCTION ENVIRONMENT                                        *
;*                                                             *
;* FUNCTION PROPERTIES                                         *
;*                            0 Parameter,  5 Auto,  0 SOE     *
;***************************************************************

||SetCanAxisPosTarget||:
	.dwcfi	cfa_offset, -2
	.dwcfi	save_reg_to_mem, 26, 0
        ADDB      SP,#6                 ; [CPU_ARAU] 
	.dwcfi	cfa_offset, -8
$C$DW$138	.dwtag  DW_TAG_variable
	.dwattr $C$DW$138, DW_AT_name("pAxis")
	.dwattr $C$DW$138, DW_AT_type(*$C$DW$T$255)
	.dwattr $C$DW$138, DW_AT_location[DW_OP_breg20 -2]

$C$DW$139	.dwtag  DW_TAG_variable
	.dwattr $C$DW$139, DW_AT_name("value")
	.dwattr $C$DW$139, DW_AT_type(*$C$DW$T$16)
	.dwattr $C$DW$139, DW_AT_location[DW_OP_breg20 -4]

$C$DW$140	.dwtag  DW_TAG_variable
	.dwattr $C$DW$140, DW_AT_name("mask")
	.dwattr $C$DW$140, DW_AT_type(*$C$DW$T$9)
	.dwattr $C$DW$140, DW_AT_location[DW_OP_breg20 -5]

        MOV32     *-SP[4],R0H           ; [CPU_FPU] |510| 
        MOVL      *-SP[2],XAR4          ; [CPU_ALU] |510| 
	.dwpsn	file "..\Application\..\..\BHAxes\BhAxes.h",line 512,column 5,is_stmt,isa 0
        PUSH      ST1                   ; [CPU_ALU] |512| 
        SETC      INTM, DBGM            ; [CPU_ALU] |512| 
        MOV       AL,*--SP              ; [CPU_ALU] |512| 
        MOV       *-SP[5],AL            ; [CPU_ALU] |512| 
	.dwpsn	file "..\Application\..\..\BHAxes\BhAxes.h",line 513,column 5,is_stmt,isa 0
        MOVL      XAR6,*-SP[4]          ; [CPU_ALU] |513| 
        MOVB      ACC,#100              ; [CPU_ALU] |513| 
        ADDL      ACC,*-SP[2]           ; [CPU_ALU] |513| 
        MOVL      XAR4,ACC              ; [CPU_ALU] |513| 
        MOVL      *+XAR4[0],XAR6        ; [CPU_ALU] |513| 
	.dwpsn	file "..\Application\..\..\BHAxes\BhAxes.h",line 514,column 5,is_stmt,isa 0
        MOVB      ACC,#195              ; [CPU_ALU] |514| 
        ADDL      ACC,*-SP[2]           ; [CPU_ALU] |514| 
        MOVL      XAR4,ACC              ; [CPU_ALU] |514| 
        MOVB      *+XAR4[0],#3,UNC      ; [CPU_ALU] |514| 
	.dwpsn	file "..\Application\..\..\BHAxes\BhAxes.h",line 515,column 5,is_stmt,isa 0
        MOV       AL,*-SP[5]            ; [CPU_ALU] |515| 
        MOV       *SP++,AL              ; [CPU_ALU] |515| 
        POP       ST1                   ; [CPU_ALU] |515| 
	.dwpsn	file "..\Application\..\..\BHAxes\BhAxes.h",line 516,column 1,is_stmt,isa 0
        SUBB      SP,#6                 ; [CPU_ARAU] 
	.dwcfi	cfa_offset, -2
$C$DW$141	.dwtag  DW_TAG_TI_branch
	.dwattr $C$DW$141, DW_AT_low_pc(0x00)
	.dwattr $C$DW$141, DW_AT_TI_return

        LRETR     ; [CPU_ALU] 
        ; return occurs ; [] 
	.dwattr $C$DW$135, DW_AT_TI_end_file("..\Application\..\..\BHAxes\BhAxes.h")
	.dwattr $C$DW$135, DW_AT_TI_end_line(0x204)
	.dwattr $C$DW$135, DW_AT_TI_end_column(0x01)
	.dwendentry
	.dwendtag $C$DW$135

	.sect	".text:SetCanAxisDisableAutoBrake"
	.clink
	.global	||SetCanAxisDisableAutoBrake||

$C$DW$142	.dwtag  DW_TAG_subprogram
	.dwattr $C$DW$142, DW_AT_name("SetCanAxisDisableAutoBrake")
	.dwattr $C$DW$142, DW_AT_low_pc(||SetCanAxisDisableAutoBrake||)
	.dwattr $C$DW$142, DW_AT_high_pc(0x00)
	.dwattr $C$DW$142, DW_AT_linkage_name("SetCanAxisDisableAutoBrake")
	.dwattr $C$DW$142, DW_AT_external
	.dwattr $C$DW$142, DW_AT_decl_file("..\Application\..\..\BHAxes\BhAxes.h")
	.dwattr $C$DW$142, DW_AT_decl_line(0x207)
	.dwattr $C$DW$142, DW_AT_decl_column(0x06)
	.dwattr $C$DW$142, DW_AT_TI_max_frame_size(-6)
	.dwpsn	file "..\Application\..\..\BHAxes\BhAxes.h",line 520,column 1,is_stmt,address ||SetCanAxisDisableAutoBrake||,isa 0

	.dwfde $C$DW$CIE, ||SetCanAxisDisableAutoBrake||
$C$DW$143	.dwtag  DW_TAG_formal_parameter
	.dwattr $C$DW$143, DW_AT_name("pAxis")
	.dwattr $C$DW$143, DW_AT_type(*$C$DW$T$255)
	.dwattr $C$DW$143, DW_AT_location[DW_OP_reg12]

$C$DW$144	.dwtag  DW_TAG_formal_parameter
	.dwattr $C$DW$144, DW_AT_name("value")
	.dwattr $C$DW$144, DW_AT_type(*$C$DW$T$9)
	.dwattr $C$DW$144, DW_AT_location[DW_OP_reg0]


;***************************************************************
;* FNAME: SetCanAxisDisableAutoBrake    FR SIZE:   4           *
;*                                                             *
;* FUNCTION ENVIRONMENT                                        *
;*                                                             *
;* FUNCTION PROPERTIES                                         *
;*                            0 Parameter,  3 Auto,  0 SOE     *
;***************************************************************

||SetCanAxisDisableAutoBrake||:
	.dwcfi	cfa_offset, -2
	.dwcfi	save_reg_to_mem, 26, 0
        ADDB      SP,#4                 ; [CPU_ARAU] 
	.dwcfi	cfa_offset, -6
$C$DW$145	.dwtag  DW_TAG_variable
	.dwattr $C$DW$145, DW_AT_name("pAxis")
	.dwattr $C$DW$145, DW_AT_type(*$C$DW$T$255)
	.dwattr $C$DW$145, DW_AT_location[DW_OP_breg20 -2]

$C$DW$146	.dwtag  DW_TAG_variable
	.dwattr $C$DW$146, DW_AT_name("value")
	.dwattr $C$DW$146, DW_AT_type(*$C$DW$T$9)
	.dwattr $C$DW$146, DW_AT_location[DW_OP_breg20 -3]

        MOV       *-SP[3],AL            ; [CPU_ALU] |520| 
        MOVL      *-SP[2],XAR4          ; [CPU_ALU] |520| 
	.dwpsn	file "..\Application\..\..\BHAxes\BhAxes.h",line 521,column 5,is_stmt,isa 0
        MOVB      ACC,#196              ; [CPU_ALU] |521| 
        ADDL      ACC,*-SP[2]           ; [CPU_ALU] |521| 
        MOVL      XAR7,ACC              ; [CPU_ALU] |521| 
        MOV       AL,*-SP[3]            ; [CPU_ALU] |521| 
        MOV       *+XAR7[0],AL          ; [CPU_ALU] |521| 
	.dwpsn	file "..\Application\..\..\BHAxes\BhAxes.h",line 522,column 1,is_stmt,isa 0
        SUBB      SP,#4                 ; [CPU_ARAU] 
	.dwcfi	cfa_offset, -2
$C$DW$147	.dwtag  DW_TAG_TI_branch
	.dwattr $C$DW$147, DW_AT_low_pc(0x00)
	.dwattr $C$DW$147, DW_AT_TI_return

        LRETR     ; [CPU_ALU] 
        ; return occurs ; [] 
	.dwattr $C$DW$142, DW_AT_TI_end_file("..\Application\..\..\BHAxes\BhAxes.h")
	.dwattr $C$DW$142, DW_AT_TI_end_line(0x20a)
	.dwattr $C$DW$142, DW_AT_TI_end_column(0x01)
	.dwendentry
	.dwendtag $C$DW$142

	.sect	".text:ForceMotorOffAndBrakeRelease"
	.clink
	.global	||ForceMotorOffAndBrakeRelease||

$C$DW$148	.dwtag  DW_TAG_subprogram
	.dwattr $C$DW$148, DW_AT_name("ForceMotorOffAndBrakeRelease")
	.dwattr $C$DW$148, DW_AT_low_pc(||ForceMotorOffAndBrakeRelease||)
	.dwattr $C$DW$148, DW_AT_high_pc(0x00)
	.dwattr $C$DW$148, DW_AT_linkage_name("ForceMotorOffAndBrakeRelease")
	.dwattr $C$DW$148, DW_AT_external
	.dwattr $C$DW$148, DW_AT_decl_file("..\Application\..\..\BHAxes\BhAxes.h")
	.dwattr $C$DW$148, DW_AT_decl_line(0x20d)
	.dwattr $C$DW$148, DW_AT_decl_column(0x06)
	.dwattr $C$DW$148, DW_AT_TI_max_frame_size(-6)
	.dwpsn	file "..\Application\..\..\BHAxes\BhAxes.h",line 526,column 1,is_stmt,address ||ForceMotorOffAndBrakeRelease||,isa 0

	.dwfde $C$DW$CIE, ||ForceMotorOffAndBrakeRelease||
$C$DW$149	.dwtag  DW_TAG_formal_parameter
	.dwattr $C$DW$149, DW_AT_name("pAxis")
	.dwattr $C$DW$149, DW_AT_type(*$C$DW$T$255)
	.dwattr $C$DW$149, DW_AT_location[DW_OP_reg12]

$C$DW$150	.dwtag  DW_TAG_formal_parameter
	.dwattr $C$DW$150, DW_AT_name("value")
	.dwattr $C$DW$150, DW_AT_type(*$C$DW$T$9)
	.dwattr $C$DW$150, DW_AT_location[DW_OP_reg0]


;***************************************************************
;* FNAME: ForceMotorOffAndBrakeRelease  FR SIZE:   4           *
;*                                                             *
;* FUNCTION ENVIRONMENT                                        *
;*                                                             *
;* FUNCTION PROPERTIES                                         *
;*                            0 Parameter,  4 Auto,  0 SOE     *
;***************************************************************

||ForceMotorOffAndBrakeRelease||:
	.dwcfi	cfa_offset, -2
	.dwcfi	save_reg_to_mem, 26, 0
        ADDB      SP,#4                 ; [CPU_ARAU] 
	.dwcfi	cfa_offset, -6
$C$DW$151	.dwtag  DW_TAG_variable
	.dwattr $C$DW$151, DW_AT_name("pAxis")
	.dwattr $C$DW$151, DW_AT_type(*$C$DW$T$255)
	.dwattr $C$DW$151, DW_AT_location[DW_OP_breg20 -2]

$C$DW$152	.dwtag  DW_TAG_variable
	.dwattr $C$DW$152, DW_AT_name("value")
	.dwattr $C$DW$152, DW_AT_type(*$C$DW$T$9)
	.dwattr $C$DW$152, DW_AT_location[DW_OP_breg20 -3]

$C$DW$153	.dwtag  DW_TAG_variable
	.dwattr $C$DW$153, DW_AT_name("mask")
	.dwattr $C$DW$153, DW_AT_type(*$C$DW$T$9)
	.dwattr $C$DW$153, DW_AT_location[DW_OP_breg20 -4]

        MOV       *-SP[3],AL            ; [CPU_ALU] |526| 
        MOVL      *-SP[2],XAR4          ; [CPU_ALU] |526| 
	.dwpsn	file "..\Application\..\..\BHAxes\BhAxes.h",line 528,column 5,is_stmt,isa 0
        PUSH      ST1                   ; [CPU_ALU] |528| 
        SETC      INTM, DBGM            ; [CPU_ALU] |528| 
        MOV       AL,*--SP              ; [CPU_ALU] |528| 
        MOV       *-SP[4],AL            ; [CPU_ALU] |528| 
	.dwpsn	file "..\Application\..\..\BHAxes\BhAxes.h",line 529,column 5,is_stmt,isa 0
        MOVB      ACC,#198              ; [CPU_ALU] |529| 
        ADDL      ACC,*-SP[2]           ; [CPU_ALU] |529| 
        MOVL      XAR7,ACC              ; [CPU_ALU] |529| 
        MOV       AL,*-SP[3]            ; [CPU_ALU] |529| 
        MOV       *+XAR7[0],AL          ; [CPU_ALU] |529| 
	.dwpsn	file "..\Application\..\..\BHAxes\BhAxes.h",line 530,column 5,is_stmt,isa 0
        MOV       AL,*-SP[3]            ; [CPU_ALU] |530| 
        B         ||$C$L4||,EQ          ; [CPU_ALU] |530| 
        ; branchcc occurs ; [] |530| 
	.dwpsn	file "..\Application\..\..\BHAxes\BhAxes.h",line 532,column 9,is_stmt,isa 0
        MOVB      ACC,#199              ; [CPU_ALU] |532| 
        ADDL      ACC,*-SP[2]           ; [CPU_ALU] |532| 
        MOVL      XAR4,ACC              ; [CPU_ALU] |532| 
        MOV       *+XAR4[0],#0          ; [CPU_ALU] |532| 
||$C$L4||:    
	.dwpsn	file "..\Application\..\..\BHAxes\BhAxes.h",line 534,column 5,is_stmt,isa 0
        MOV       AL,*-SP[4]            ; [CPU_ALU] |534| 
        MOV       *SP++,AL              ; [CPU_ALU] |534| 
        POP       ST1                   ; [CPU_ALU] |534| 
	.dwpsn	file "..\Application\..\..\BHAxes\BhAxes.h",line 535,column 1,is_stmt,isa 0
        SUBB      SP,#4                 ; [CPU_ARAU] 
	.dwcfi	cfa_offset, -2
$C$DW$154	.dwtag  DW_TAG_TI_branch
	.dwattr $C$DW$154, DW_AT_low_pc(0x00)
	.dwattr $C$DW$154, DW_AT_TI_return

        LRETR     ; [CPU_ALU] 
        ; return occurs ; [] 
	.dwattr $C$DW$148, DW_AT_TI_end_file("..\Application\..\..\BHAxes\BhAxes.h")
	.dwattr $C$DW$148, DW_AT_TI_end_line(0x217)
	.dwattr $C$DW$148, DW_AT_TI_end_column(0x01)
	.dwendentry
	.dwendtag $C$DW$148

	.sect	".text:ForceMotorOnBrake"
	.clink
	.global	||ForceMotorOnBrake||

$C$DW$155	.dwtag  DW_TAG_subprogram
	.dwattr $C$DW$155, DW_AT_name("ForceMotorOnBrake")
	.dwattr $C$DW$155, DW_AT_low_pc(||ForceMotorOnBrake||)
	.dwattr $C$DW$155, DW_AT_high_pc(0x00)
	.dwattr $C$DW$155, DW_AT_linkage_name("ForceMotorOnBrake")
	.dwattr $C$DW$155, DW_AT_external
	.dwattr $C$DW$155, DW_AT_decl_file("..\Application\..\..\BHAxes\BhAxes.h")
	.dwattr $C$DW$155, DW_AT_decl_line(0x21d)
	.dwattr $C$DW$155, DW_AT_decl_column(0x06)
	.dwattr $C$DW$155, DW_AT_TI_max_frame_size(-6)
	.dwpsn	file "..\Application\..\..\BHAxes\BhAxes.h",line 542,column 1,is_stmt,address ||ForceMotorOnBrake||,isa 0

	.dwfde $C$DW$CIE, ||ForceMotorOnBrake||
$C$DW$156	.dwtag  DW_TAG_formal_parameter
	.dwattr $C$DW$156, DW_AT_name("pAxis")
	.dwattr $C$DW$156, DW_AT_type(*$C$DW$T$255)
	.dwattr $C$DW$156, DW_AT_location[DW_OP_reg12]

$C$DW$157	.dwtag  DW_TAG_formal_parameter
	.dwattr $C$DW$157, DW_AT_name("value")
	.dwattr $C$DW$157, DW_AT_type(*$C$DW$T$9)
	.dwattr $C$DW$157, DW_AT_location[DW_OP_reg0]


;***************************************************************
;* FNAME: ForceMotorOnBrake             FR SIZE:   4           *
;*                                                             *
;* FUNCTION ENVIRONMENT                                        *
;*                                                             *
;* FUNCTION PROPERTIES                                         *
;*                            0 Parameter,  4 Auto,  0 SOE     *
;***************************************************************

||ForceMotorOnBrake||:
	.dwcfi	cfa_offset, -2
	.dwcfi	save_reg_to_mem, 26, 0
        ADDB      SP,#4                 ; [CPU_ARAU] 
	.dwcfi	cfa_offset, -6
$C$DW$158	.dwtag  DW_TAG_variable
	.dwattr $C$DW$158, DW_AT_name("pAxis")
	.dwattr $C$DW$158, DW_AT_type(*$C$DW$T$255)
	.dwattr $C$DW$158, DW_AT_location[DW_OP_breg20 -2]

$C$DW$159	.dwtag  DW_TAG_variable
	.dwattr $C$DW$159, DW_AT_name("value")
	.dwattr $C$DW$159, DW_AT_type(*$C$DW$T$9)
	.dwattr $C$DW$159, DW_AT_location[DW_OP_breg20 -3]

$C$DW$160	.dwtag  DW_TAG_variable
	.dwattr $C$DW$160, DW_AT_name("mask")
	.dwattr $C$DW$160, DW_AT_type(*$C$DW$T$9)
	.dwattr $C$DW$160, DW_AT_location[DW_OP_breg20 -4]

        MOV       *-SP[3],AL            ; [CPU_ALU] |542| 
        MOVL      *-SP[2],XAR4          ; [CPU_ALU] |542| 
	.dwpsn	file "..\Application\..\..\BHAxes\BhAxes.h",line 544,column 5,is_stmt,isa 0
        PUSH      ST1                   ; [CPU_ALU] |544| 
        SETC      INTM, DBGM            ; [CPU_ALU] |544| 
        MOV       AL,*--SP              ; [CPU_ALU] |544| 
        MOV       *-SP[4],AL            ; [CPU_ALU] |544| 
	.dwpsn	file "..\Application\..\..\BHAxes\BhAxes.h",line 545,column 5,is_stmt,isa 0
        MOVB      ACC,#199              ; [CPU_ALU] |545| 
        ADDL      ACC,*-SP[2]           ; [CPU_ALU] |545| 
        MOVL      XAR7,ACC              ; [CPU_ALU] |545| 
        MOV       AL,*-SP[3]            ; [CPU_ALU] |545| 
        MOV       *+XAR7[0],AL          ; [CPU_ALU] |545| 
	.dwpsn	file "..\Application\..\..\BHAxes\BhAxes.h",line 546,column 5,is_stmt,isa 0
        MOV       AL,*-SP[3]            ; [CPU_ALU] |546| 
        B         ||$C$L5||,EQ          ; [CPU_ALU] |546| 
        ; branchcc occurs ; [] |546| 
	.dwpsn	file "..\Application\..\..\BHAxes\BhAxes.h",line 548,column 9,is_stmt,isa 0
        MOVB      ACC,#198              ; [CPU_ALU] |548| 
        ADDL      ACC,*-SP[2]           ; [CPU_ALU] |548| 
        MOVL      XAR4,ACC              ; [CPU_ALU] |548| 
        MOV       *+XAR4[0],#0          ; [CPU_ALU] |548| 
||$C$L5||:    
	.dwpsn	file "..\Application\..\..\BHAxes\BhAxes.h",line 550,column 5,is_stmt,isa 0
        MOV       AL,*-SP[4]            ; [CPU_ALU] |550| 
        MOV       *SP++,AL              ; [CPU_ALU] |550| 
        POP       ST1                   ; [CPU_ALU] |550| 
	.dwpsn	file "..\Application\..\..\BHAxes\BhAxes.h",line 551,column 1,is_stmt,isa 0
        SUBB      SP,#4                 ; [CPU_ARAU] 
	.dwcfi	cfa_offset, -2
$C$DW$161	.dwtag  DW_TAG_TI_branch
	.dwattr $C$DW$161, DW_AT_low_pc(0x00)
	.dwattr $C$DW$161, DW_AT_TI_return

        LRETR     ; [CPU_ALU] 
        ; return occurs ; [] 
	.dwattr $C$DW$155, DW_AT_TI_end_file("..\Application\..\..\BHAxes\BhAxes.h")
	.dwattr $C$DW$155, DW_AT_TI_end_line(0x227)
	.dwattr $C$DW$155, DW_AT_TI_end_column(0x01)
	.dwendentry
	.dwendtag $C$DW$155

	.sect	".text:SetBrakeActionAutomatic"
	.clink
	.global	||SetBrakeActionAutomatic||

$C$DW$162	.dwtag  DW_TAG_subprogram
	.dwattr $C$DW$162, DW_AT_name("SetBrakeActionAutomatic")
	.dwattr $C$DW$162, DW_AT_low_pc(||SetBrakeActionAutomatic||)
	.dwattr $C$DW$162, DW_AT_high_pc(0x00)
	.dwattr $C$DW$162, DW_AT_linkage_name("SetBrakeActionAutomatic")
	.dwattr $C$DW$162, DW_AT_external
	.dwattr $C$DW$162, DW_AT_decl_file("..\Application\..\..\BHAxes\BhAxes.h")
	.dwattr $C$DW$162, DW_AT_decl_line(0x22b)
	.dwattr $C$DW$162, DW_AT_decl_column(0x06)
	.dwattr $C$DW$162, DW_AT_TI_max_frame_size(-6)
	.dwpsn	file "..\Application\..\..\BHAxes\BhAxes.h",line 556,column 1,is_stmt,address ||SetBrakeActionAutomatic||,isa 0

	.dwfde $C$DW$CIE, ||SetBrakeActionAutomatic||
$C$DW$163	.dwtag  DW_TAG_formal_parameter
	.dwattr $C$DW$163, DW_AT_name("pAxis")
	.dwattr $C$DW$163, DW_AT_type(*$C$DW$T$255)
	.dwattr $C$DW$163, DW_AT_location[DW_OP_reg12]


;***************************************************************
;* FNAME: SetBrakeActionAutomatic       FR SIZE:   4           *
;*                                                             *
;* FUNCTION ENVIRONMENT                                        *
;*                                                             *
;* FUNCTION PROPERTIES                                         *
;*                            0 Parameter,  3 Auto,  0 SOE     *
;***************************************************************

||SetBrakeActionAutomatic||:
	.dwcfi	cfa_offset, -2
	.dwcfi	save_reg_to_mem, 26, 0
        ADDB      SP,#4                 ; [CPU_ARAU] 
	.dwcfi	cfa_offset, -6
$C$DW$164	.dwtag  DW_TAG_variable
	.dwattr $C$DW$164, DW_AT_name("pAxis")
	.dwattr $C$DW$164, DW_AT_type(*$C$DW$T$255)
	.dwattr $C$DW$164, DW_AT_location[DW_OP_breg20 -2]

$C$DW$165	.dwtag  DW_TAG_variable
	.dwattr $C$DW$165, DW_AT_name("mask")
	.dwattr $C$DW$165, DW_AT_type(*$C$DW$T$9)
	.dwattr $C$DW$165, DW_AT_location[DW_OP_breg20 -3]

        MOVL      *-SP[2],XAR4          ; [CPU_ALU] |556| 
	.dwpsn	file "..\Application\..\..\BHAxes\BhAxes.h",line 558,column 5,is_stmt,isa 0
        PUSH      ST1                   ; [CPU_ALU] |558| 
        SETC      INTM, DBGM            ; [CPU_ALU] |558| 
        MOV       AL,*--SP              ; [CPU_ALU] |558| 
        MOV       *-SP[3],AL            ; [CPU_ALU] |558| 
	.dwpsn	file "..\Application\..\..\BHAxes\BhAxes.h",line 559,column 5,is_stmt,isa 0
        MOVB      AL,#0                 ; [CPU_ALU] |559| 
        MOVL      XAR4,*-SP[2]          ; [CPU_ALU] |559| 
$C$DW$166	.dwtag  DW_TAG_TI_branch
	.dwattr $C$DW$166, DW_AT_low_pc(0x00)
	.dwattr $C$DW$166, DW_AT_name("ForceMotorOnBrake")
	.dwattr $C$DW$166, DW_AT_TI_call

        LCR       #||ForceMotorOnBrake|| ; [CPU_ALU] |559| 
        ; call occurs [#||ForceMotorOnBrake||] ; [] |559| 
	.dwpsn	file "..\Application\..\..\BHAxes\BhAxes.h",line 560,column 5,is_stmt,isa 0
        MOVB      AL,#0                 ; [CPU_ALU] |560| 
        MOVL      XAR4,*-SP[2]          ; [CPU_ALU] |560| 
$C$DW$167	.dwtag  DW_TAG_TI_branch
	.dwattr $C$DW$167, DW_AT_low_pc(0x00)
	.dwattr $C$DW$167, DW_AT_name("ForceMotorOffAndBrakeRelease")
	.dwattr $C$DW$167, DW_AT_TI_call

        LCR       #||ForceMotorOffAndBrakeRelease|| ; [CPU_ALU] |560| 
        ; call occurs [#||ForceMotorOffAndBrakeRelease||] ; [] |560| 
	.dwpsn	file "..\Application\..\..\BHAxes\BhAxes.h",line 561,column 5,is_stmt,isa 0
        MOV       AL,*-SP[3]            ; [CPU_ALU] |561| 
        MOV       *SP++,AL              ; [CPU_ALU] |561| 
        POP       ST1                   ; [CPU_ALU] |561| 
	.dwpsn	file "..\Application\..\..\BHAxes\BhAxes.h",line 562,column 1,is_stmt,isa 0
        SUBB      SP,#4                 ; [CPU_ARAU] 
	.dwcfi	cfa_offset, -2
$C$DW$168	.dwtag  DW_TAG_TI_branch
	.dwattr $C$DW$168, DW_AT_low_pc(0x00)
	.dwattr $C$DW$168, DW_AT_TI_return

        LRETR     ; [CPU_ALU] 
        ; return occurs ; [] 
	.dwattr $C$DW$162, DW_AT_TI_end_file("..\Application\..\..\BHAxes\BhAxes.h")
	.dwattr $C$DW$162, DW_AT_TI_end_line(0x232)
	.dwattr $C$DW$162, DW_AT_TI_end_column(0x01)
	.dwendentry
	.dwendtag $C$DW$162

	.sect	".text:SetCanAxisWheelTracksSteering"
	.clink
	.global	||SetCanAxisWheelTracksSteering||

$C$DW$169	.dwtag  DW_TAG_subprogram
	.dwattr $C$DW$169, DW_AT_name("SetCanAxisWheelTracksSteering")
	.dwattr $C$DW$169, DW_AT_low_pc(||SetCanAxisWheelTracksSteering||)
	.dwattr $C$DW$169, DW_AT_high_pc(0x00)
	.dwattr $C$DW$169, DW_AT_linkage_name("SetCanAxisWheelTracksSteering")
	.dwattr $C$DW$169, DW_AT_external
	.dwattr $C$DW$169, DW_AT_decl_file("..\Application\..\..\BHAxes\BhAxes.h")
	.dwattr $C$DW$169, DW_AT_decl_line(0x236)
	.dwattr $C$DW$169, DW_AT_decl_column(0x06)
	.dwattr $C$DW$169, DW_AT_TI_max_frame_size(-6)
	.dwpsn	file "..\Application\..\..\BHAxes\BhAxes.h",line 567,column 1,is_stmt,address ||SetCanAxisWheelTracksSteering||,isa 0

	.dwfde $C$DW$CIE, ||SetCanAxisWheelTracksSteering||
$C$DW$170	.dwtag  DW_TAG_formal_parameter
	.dwattr $C$DW$170, DW_AT_name("pAxis")
	.dwattr $C$DW$170, DW_AT_type(*$C$DW$T$255)
	.dwattr $C$DW$170, DW_AT_location[DW_OP_reg12]

$C$DW$171	.dwtag  DW_TAG_formal_parameter
	.dwattr $C$DW$171, DW_AT_name("value")
	.dwattr $C$DW$171, DW_AT_type(*$C$DW$T$9)
	.dwattr $C$DW$171, DW_AT_location[DW_OP_reg0]


;***************************************************************
;* FNAME: SetCanAxisWheelTracksSteering FR SIZE:   4           *
;*                                                             *
;* FUNCTION ENVIRONMENT                                        *
;*                                                             *
;* FUNCTION PROPERTIES                                         *
;*                            0 Parameter,  3 Auto,  0 SOE     *
;***************************************************************

||SetCanAxisWheelTracksSteering||:
	.dwcfi	cfa_offset, -2
	.dwcfi	save_reg_to_mem, 26, 0
        ADDB      SP,#4                 ; [CPU_ARAU] 
	.dwcfi	cfa_offset, -6
$C$DW$172	.dwtag  DW_TAG_variable
	.dwattr $C$DW$172, DW_AT_name("pAxis")
	.dwattr $C$DW$172, DW_AT_type(*$C$DW$T$255)
	.dwattr $C$DW$172, DW_AT_location[DW_OP_breg20 -2]

$C$DW$173	.dwtag  DW_TAG_variable
	.dwattr $C$DW$173, DW_AT_name("value")
	.dwattr $C$DW$173, DW_AT_type(*$C$DW$T$9)
	.dwattr $C$DW$173, DW_AT_location[DW_OP_breg20 -3]

        MOV       *-SP[3],AL            ; [CPU_ALU] |567| 
        MOVL      *-SP[2],XAR4          ; [CPU_ALU] |567| 
	.dwpsn	file "..\Application\..\..\BHAxes\BhAxes.h",line 568,column 5,is_stmt,isa 0
        MOVB      ACC,#197              ; [CPU_ALU] |568| 
        ADDL      ACC,*-SP[2]           ; [CPU_ALU] |568| 
        MOVL      XAR7,ACC              ; [CPU_ALU] |568| 
        MOV       AL,*-SP[3]            ; [CPU_ALU] |568| 
        MOV       *+XAR7[0],AL          ; [CPU_ALU] |568| 
	.dwpsn	file "..\Application\..\..\BHAxes\BhAxes.h",line 569,column 1,is_stmt,isa 0
        SUBB      SP,#4                 ; [CPU_ARAU] 
	.dwcfi	cfa_offset, -2
$C$DW$174	.dwtag  DW_TAG_TI_branch
	.dwattr $C$DW$174, DW_AT_low_pc(0x00)
	.dwattr $C$DW$174, DW_AT_TI_return

        LRETR     ; [CPU_ALU] 
        ; return occurs ; [] 
	.dwattr $C$DW$169, DW_AT_TI_end_file("..\Application\..\..\BHAxes\BhAxes.h")
	.dwattr $C$DW$169, DW_AT_TI_end_line(0x239)
	.dwattr $C$DW$169, DW_AT_TI_end_column(0x01)
	.dwendentry
	.dwendtag $C$DW$169

	.sect	".text:GetCanAxisPosTarget"
	.clink
	.global	||GetCanAxisPosTarget||

$C$DW$175	.dwtag  DW_TAG_subprogram
	.dwattr $C$DW$175, DW_AT_name("GetCanAxisPosTarget")
	.dwattr $C$DW$175, DW_AT_low_pc(||GetCanAxisPosTarget||)
	.dwattr $C$DW$175, DW_AT_high_pc(0x00)
	.dwattr $C$DW$175, DW_AT_linkage_name("GetCanAxisPosTarget")
	.dwattr $C$DW$175, DW_AT_external
	.dwattr $C$DW$175, DW_AT_type(*$C$DW$T$16)
	.dwattr $C$DW$175, DW_AT_decl_file("..\Application\..\..\BHAxes\BhAxes.h")
	.dwattr $C$DW$175, DW_AT_decl_line(0x23d)
	.dwattr $C$DW$175, DW_AT_decl_column(0x07)
	.dwattr $C$DW$175, DW_AT_TI_max_frame_size(-4)
	.dwpsn	file "..\Application\..\..\BHAxes\BhAxes.h",line 574,column 1,is_stmt,address ||GetCanAxisPosTarget||,isa 0

	.dwfde $C$DW$CIE, ||GetCanAxisPosTarget||
$C$DW$176	.dwtag  DW_TAG_formal_parameter
	.dwattr $C$DW$176, DW_AT_name("pAxis")
	.dwattr $C$DW$176, DW_AT_type(*$C$DW$T$255)
	.dwattr $C$DW$176, DW_AT_location[DW_OP_reg12]


;***************************************************************
;* FNAME: GetCanAxisPosTarget           FR SIZE:   2           *
;*                                                             *
;* FUNCTION ENVIRONMENT                                        *
;*                                                             *
;* FUNCTION PROPERTIES                                         *
;*                            0 Parameter,  2 Auto,  0 SOE     *
;***************************************************************

||GetCanAxisPosTarget||:
	.dwcfi	cfa_offset, -2
	.dwcfi	save_reg_to_mem, 26, 0
        ADDB      SP,#2                 ; [CPU_ARAU] 
	.dwcfi	cfa_offset, -4
$C$DW$177	.dwtag  DW_TAG_variable
	.dwattr $C$DW$177, DW_AT_name("pAxis")
	.dwattr $C$DW$177, DW_AT_type(*$C$DW$T$255)
	.dwattr $C$DW$177, DW_AT_location[DW_OP_breg20 -2]

        MOVL      *-SP[2],XAR4          ; [CPU_ALU] |574| 
	.dwpsn	file "..\Application\..\..\BHAxes\BhAxes.h",line 575,column 5,is_stmt,isa 0
        MOVB      ACC,#100              ; [CPU_ALU] |575| 
        ADDL      ACC,*-SP[2]           ; [CPU_ALU] |575| 
        MOVL      XAR4,ACC              ; [CPU_ALU] |575| 
        MOV32     R0H,*+XAR4[0]         ; [CPU_FPU] |575| 
	.dwpsn	file "..\Application\..\..\BHAxes\BhAxes.h",line 576,column 1,is_stmt,isa 0
        SUBB      SP,#2                 ; [CPU_ARAU] 
	.dwcfi	cfa_offset, -2
$C$DW$178	.dwtag  DW_TAG_TI_branch
	.dwattr $C$DW$178, DW_AT_low_pc(0x00)
	.dwattr $C$DW$178, DW_AT_TI_return

        LRETR     ; [CPU_ALU] 
        ; return occurs ; [] 
	.dwattr $C$DW$175, DW_AT_TI_end_file("..\Application\..\..\BHAxes\BhAxes.h")
	.dwattr $C$DW$175, DW_AT_TI_end_line(0x240)
	.dwattr $C$DW$175, DW_AT_TI_end_column(0x01)
	.dwendentry
	.dwendtag $C$DW$175

	.sect	".text:IsAtFault"
	.clink
	.global	||IsAtFault||

$C$DW$179	.dwtag  DW_TAG_subprogram
	.dwattr $C$DW$179, DW_AT_name("IsAtFault")
	.dwattr $C$DW$179, DW_AT_low_pc(||IsAtFault||)
	.dwattr $C$DW$179, DW_AT_high_pc(0x00)
	.dwattr $C$DW$179, DW_AT_linkage_name("IsAtFault")
	.dwattr $C$DW$179, DW_AT_external
	.dwattr $C$DW$179, DW_AT_type(*$C$DW$T$9)
	.dwattr $C$DW$179, DW_AT_decl_file("..\Application\..\..\BHAxes\BhAxes.h")
	.dwattr $C$DW$179, DW_AT_decl_line(0x247)
	.dwattr $C$DW$179, DW_AT_decl_column(0x10)
	.dwattr $C$DW$179, DW_AT_TI_max_frame_size(-4)
	.dwpsn	file "..\Application\..\..\BHAxes\BhAxes.h",line 584,column 1,is_stmt,address ||IsAtFault||,isa 0

	.dwfde $C$DW$CIE, ||IsAtFault||
$C$DW$180	.dwtag  DW_TAG_formal_parameter
	.dwattr $C$DW$180, DW_AT_name("pAxis")
	.dwattr $C$DW$180, DW_AT_type(*$C$DW$T$255)
	.dwattr $C$DW$180, DW_AT_location[DW_OP_reg12]


;***************************************************************
;* FNAME: IsAtFault                     FR SIZE:   2           *
;*                                                             *
;* FUNCTION ENVIRONMENT                                        *
;*                                                             *
;* FUNCTION PROPERTIES                                         *
;*                            0 Parameter,  2 Auto,  0 SOE     *
;***************************************************************

||IsAtFault||:
	.dwcfi	cfa_offset, -2
	.dwcfi	save_reg_to_mem, 26, 0
        ADDB      SP,#2                 ; [CPU_ARAU] 
	.dwcfi	cfa_offset, -4
$C$DW$181	.dwtag  DW_TAG_variable
	.dwattr $C$DW$181, DW_AT_name("pAxis")
	.dwattr $C$DW$181, DW_AT_type(*$C$DW$T$255)
	.dwattr $C$DW$181, DW_AT_location[DW_OP_breg20 -2]

        MOVL      *-SP[2],XAR4          ; [CPU_ALU] |584| 
	.dwpsn	file "..\Application\..\..\BHAxes\BhAxes.h",line 585,column 5,is_stmt,isa 0
        MOVB      ACC,#156              ; [CPU_ALU] |585| 
        ADDL      ACC,*-SP[2]           ; [CPU_ALU] |585| 
        MOVL      XAR4,ACC              ; [CPU_ALU] |585| 
        MOV       AL,*+XAR4[0]          ; [CPU_ALU] |585| 
        B         ||$C$L6||,EQ          ; [CPU_ALU] |585| 
        ; branchcc occurs ; [] |585| 
	.dwpsn	file "..\Application\..\..\BHAxes\BhAxes.h",line 587,column 9,is_stmt,isa 0
        MOVB      AL,#1                 ; [CPU_ALU] |587| 
        B         ||$C$L8||,UNC         ; [CPU_ALU] |587| 
        ; branch occurs ; [] |587| 
||$C$L6||:    
	.dwpsn	file "..\Application\..\..\BHAxes\BhAxes.h",line 589,column 5,is_stmt,isa 0
        MOVB      ACC,#162              ; [CPU_ALU] |589| 
        ADDL      ACC,*-SP[2]           ; [CPU_ALU] |589| 
        MOVL      XAR4,ACC              ; [CPU_ALU] |589| 
        TBIT      *+XAR4[0],#5          ; [CPU_ALU] |589| 
        B         ||$C$L7||,NTC         ; [CPU_ALU] |589| 
        ; branchcc occurs ; [] |589| 
        MOVB      AL,#1                 ; [CPU_ALU] |589| 
        B         ||$C$L8||,UNC         ; [CPU_ALU] |589| 
        ; branch occurs ; [] |589| 
||$C$L7||:    
        MOVB      AL,#0                 ; [CPU_ALU] |589| 
||$C$L8||:    
	.dwpsn	file "..\Application\..\..\BHAxes\BhAxes.h",line 591,column 1,is_stmt,isa 0
        SUBB      SP,#2                 ; [CPU_ARAU] 
	.dwcfi	cfa_offset, -2
$C$DW$182	.dwtag  DW_TAG_TI_branch
	.dwattr $C$DW$182, DW_AT_low_pc(0x00)
	.dwattr $C$DW$182, DW_AT_TI_return

        LRETR     ; [CPU_ALU] 
        ; return occurs ; [] 
	.dwattr $C$DW$179, DW_AT_TI_end_file("..\Application\..\..\BHAxes\BhAxes.h")
	.dwattr $C$DW$179, DW_AT_TI_end_line(0x24f)
	.dwattr $C$DW$179, DW_AT_TI_end_column(0x01)
	.dwendentry
	.dwendtag $C$DW$179

	.sect	".text:IsFaultFree"
	.clink
	.global	||IsFaultFree||

$C$DW$183	.dwtag  DW_TAG_subprogram
	.dwattr $C$DW$183, DW_AT_name("IsFaultFree")
	.dwattr $C$DW$183, DW_AT_low_pc(||IsFaultFree||)
	.dwattr $C$DW$183, DW_AT_high_pc(0x00)
	.dwattr $C$DW$183, DW_AT_linkage_name("IsFaultFree")
	.dwattr $C$DW$183, DW_AT_external
	.dwattr $C$DW$183, DW_AT_type(*$C$DW$T$9)
	.dwattr $C$DW$183, DW_AT_decl_file("..\Application\..\..\BHAxes\BhAxes.h")
	.dwattr $C$DW$183, DW_AT_decl_line(0x252)
	.dwattr $C$DW$183, DW_AT_decl_column(0x10)
	.dwattr $C$DW$183, DW_AT_TI_max_frame_size(-4)
	.dwpsn	file "..\Application\..\..\BHAxes\BhAxes.h",line 595,column 1,is_stmt,address ||IsFaultFree||,isa 0

	.dwfde $C$DW$CIE, ||IsFaultFree||
$C$DW$184	.dwtag  DW_TAG_formal_parameter
	.dwattr $C$DW$184, DW_AT_name("pAxis")
	.dwattr $C$DW$184, DW_AT_type(*$C$DW$T$255)
	.dwattr $C$DW$184, DW_AT_location[DW_OP_reg12]


;***************************************************************
;* FNAME: IsFaultFree                   FR SIZE:   2           *
;*                                                             *
;* FUNCTION ENVIRONMENT                                        *
;*                                                             *
;* FUNCTION PROPERTIES                                         *
;*                            0 Parameter,  2 Auto,  0 SOE     *
;***************************************************************

||IsFaultFree||:
	.dwcfi	cfa_offset, -2
	.dwcfi	save_reg_to_mem, 26, 0
        ADDB      SP,#2                 ; [CPU_ARAU] 
	.dwcfi	cfa_offset, -4
$C$DW$185	.dwtag  DW_TAG_variable
	.dwattr $C$DW$185, DW_AT_name("pAxis")
	.dwattr $C$DW$185, DW_AT_type(*$C$DW$T$255)
	.dwattr $C$DW$185, DW_AT_location[DW_OP_breg20 -2]

        MOVL      *-SP[2],XAR4          ; [CPU_ALU] |595| 
	.dwpsn	file "..\Application\..\..\BHAxes\BhAxes.h",line 596,column 5,is_stmt,isa 0
        MOVB      ACC,#162              ; [CPU_ALU] |596| 
        ADDL      ACC,*-SP[2]           ; [CPU_ALU] |596| 
        MOVL      XAR4,ACC              ; [CPU_ALU] |596| 
        AND       AL,*+XAR4[0],#0x0020  ; [CPU_ALU] |596| 
        MOVL      XAR4,*-SP[2]          ; [CPU_ALU] |596| 
        LSR       AL,5                  ; [CPU_ALU] |596| 
        MOV       T,AL                  ; [CPU_ALU] |596| 
        MPY       ACC,T,*+XAR4[4]       ; [CPU_ALU] |596| 
        CMPB      AL,#0                 ; [CPU_ALU] |596| 
        B         ||$C$L9||,EQ          ; [CPU_ALU] |596| 
        ; branchcc occurs ; [] |596| 
        MOVB      AL,#0                 ; [CPU_ALU] |596| 
        B         ||$C$L10||,UNC        ; [CPU_ALU] |596| 
        ; branch occurs ; [] |596| 
||$C$L9||:    
        MOVB      AL,#1                 ; [CPU_ALU] |596| 
||$C$L10||:    
	.dwpsn	file "..\Application\..\..\BHAxes\BhAxes.h",line 597,column 1,is_stmt,isa 0
        SUBB      SP,#2                 ; [CPU_ARAU] 
	.dwcfi	cfa_offset, -2
$C$DW$186	.dwtag  DW_TAG_TI_branch
	.dwattr $C$DW$186, DW_AT_low_pc(0x00)
	.dwattr $C$DW$186, DW_AT_TI_return

        LRETR     ; [CPU_ALU] 
        ; return occurs ; [] 
	.dwattr $C$DW$183, DW_AT_TI_end_file("..\Application\..\..\BHAxes\BhAxes.h")
	.dwattr $C$DW$183, DW_AT_TI_end_line(0x255)
	.dwattr $C$DW$183, DW_AT_TI_end_column(0x01)
	.dwendentry
	.dwendtag $C$DW$183

	.sect	".text:__isfinite"
	.clink
	.global	||__isfinite||

$C$DW$187	.dwtag  DW_TAG_subprogram
	.dwattr $C$DW$187, DW_AT_name("__isfinite")
	.dwattr $C$DW$187, DW_AT_low_pc(||__isfinite||)
	.dwattr $C$DW$187, DW_AT_high_pc(0x00)
	.dwattr $C$DW$187, DW_AT_linkage_name("__isfinite")
	.dwattr $C$DW$187, DW_AT_external
	.dwattr $C$DW$187, DW_AT_type(*$C$DW$T$10)
	.dwattr $C$DW$187, DW_AT_decl_file("C:/ti/ccs1250/ccs/tools/compiler/ti-cgt-c2000_22.6.1.LTS/include/_defs.h")
	.dwattr $C$DW$187, DW_AT_decl_line(0x14e)
	.dwattr $C$DW$187, DW_AT_decl_column(0x18)
	.dwattr $C$DW$187, DW_AT_TI_max_frame_size(-6)
	.dwpsn	file "C:/ti/ccs1250/ccs/tools/compiler/ti-cgt-c2000_22.6.1.LTS/include/_defs.h",line 335,column 1,is_stmt,address ||__isfinite||,isa 0

	.dwfde $C$DW$CIE, ||__isfinite||
$C$DW$188	.dwtag  DW_TAG_formal_parameter
	.dwattr $C$DW$188, DW_AT_name("d")
	.dwattr $C$DW$188, DW_AT_type(*$C$DW$T$17)
	.dwattr $C$DW$188, DW_AT_location[DW_OP_regx 0x29]


;***************************************************************
;* FNAME: __isfinite                    FR SIZE:   4           *
;*                                                             *
;* FUNCTION ENVIRONMENT                                        *
;*                                                             *
;* FUNCTION PROPERTIES                                         *
;*                            0 Parameter,  4 Auto,  0 SOE     *
;***************************************************************

||__isfinite||:
	.dwcfi	cfa_offset, -2
	.dwcfi	save_reg_to_mem, 26, 0
        ADDB      SP,#4                 ; [CPU_ARAU] 
	.dwcfi	cfa_offset, -6
$C$DW$189	.dwtag  DW_TAG_variable
	.dwattr $C$DW$189, DW_AT_name("d")
	.dwattr $C$DW$189, DW_AT_type(*$C$DW$T$17)
	.dwattr $C$DW$189, DW_AT_location[DW_OP_breg20 -4]

        MOV32     *-SP[4],R0L           ; [CPU_FPU] |335| 
        MOV32     *-SP[2],R0H           ; [CPU_FPU] |335| 
	.dwpsn	file "C:/ti/ccs1250/ccs/tools/compiler/ti-cgt-c2000_22.6.1.LTS/include/_defs.h",line 335,column 3,is_stmt,isa 0
        MOV       T,#48                 ; [CPU_ALU] |335| 
        MOV32     P,R0L                 ; [CPU_FPU] |335| 
        MOVB      XAR6,#0               ; [CPU_ALU] |335| 
        MOVB      XAR7,#0               ; [CPU_ALU] |335| 
        MOV32     ACC,R0H               ; [CPU_FPU] |335| 
        LSR64     ACC:P,T               ; [CPU_ALU] |335| 
        MOV       PH,#0                 ; [CPU_ALU] |335| 
        AND       PL,#0x7ff0            ; [CPU_ALU] |335| 
        MOV       ACC,#32752            ; [CPU_ALU] |335| 
        CMPL      ACC,P                 ; [CPU_ALU] |335| 
        B         ||$C$L11||,NEQ        ; [CPU_ALU] |335| 
        ; branchcc occurs ; [] |335| 
        MOVB      XAR7,#1               ; [CPU_ALU] |335| 
||$C$L11||:    
        MOV       AH,AR7                ; [CPU_ALU] 
        B         ||$C$L12||,NEQ        ; [CPU_ALU] |335| 
        ; branchcc occurs ; [] |335| 
        MOVB      XAR6,#1               ; [CPU_ALU] |335| 
||$C$L12||:    
        MOV       AL,AR6                ; [CPU_ALU] |335| 
	.dwpsn	file "C:/ti/ccs1250/ccs/tools/compiler/ti-cgt-c2000_22.6.1.LTS/include/_defs.h",line 335,column 46,is_stmt,isa 0
        SUBB      SP,#4                 ; [CPU_ARAU] 
	.dwcfi	cfa_offset, -2
$C$DW$190	.dwtag  DW_TAG_TI_branch
	.dwattr $C$DW$190, DW_AT_low_pc(0x00)
	.dwattr $C$DW$190, DW_AT_TI_return

        LRETR     ; [CPU_ALU] 
        ; return occurs ; [] 
	.dwattr $C$DW$187, DW_AT_TI_end_file("C:/ti/ccs1250/ccs/tools/compiler/ti-cgt-c2000_22.6.1.LTS/include/_defs.h")
	.dwattr $C$DW$187, DW_AT_TI_end_line(0x14f)
	.dwattr $C$DW$187, DW_AT_TI_end_column(0x2e)
	.dwendentry
	.dwendtag $C$DW$187

	.sect	".text:__isfinitef"
	.clink
	.global	||__isfinitef||

$C$DW$191	.dwtag  DW_TAG_subprogram
	.dwattr $C$DW$191, DW_AT_name("__isfinitef")
	.dwattr $C$DW$191, DW_AT_low_pc(||__isfinitef||)
	.dwattr $C$DW$191, DW_AT_high_pc(0x00)
	.dwattr $C$DW$191, DW_AT_linkage_name("__isfinitef")
	.dwattr $C$DW$191, DW_AT_external
	.dwattr $C$DW$191, DW_AT_type(*$C$DW$T$10)
	.dwattr $C$DW$191, DW_AT_decl_file("C:/ti/ccs1250/ccs/tools/compiler/ti-cgt-c2000_22.6.1.LTS/include/_defs.h")
	.dwattr $C$DW$191, DW_AT_decl_line(0x150)
	.dwattr $C$DW$191, DW_AT_decl_column(0x18)
	.dwattr $C$DW$191, DW_AT_TI_max_frame_size(-4)
	.dwpsn	file "C:/ti/ccs1250/ccs/tools/compiler/ti-cgt-c2000_22.6.1.LTS/include/_defs.h",line 337,column 1,is_stmt,address ||__isfinitef||,isa 0

	.dwfde $C$DW$CIE, ||__isfinitef||
$C$DW$192	.dwtag  DW_TAG_formal_parameter
	.dwattr $C$DW$192, DW_AT_name("f")
	.dwattr $C$DW$192, DW_AT_type(*$C$DW$T$16)
	.dwattr $C$DW$192, DW_AT_location[DW_OP_regx 0x2b]


;***************************************************************
;* FNAME: __isfinitef                   FR SIZE:   2           *
;*                                                             *
;* FUNCTION ENVIRONMENT                                        *
;*                                                             *
;* FUNCTION PROPERTIES                                         *
;*                            0 Parameter,  2 Auto,  0 SOE     *
;***************************************************************

||__isfinitef||:
	.dwcfi	cfa_offset, -2
	.dwcfi	save_reg_to_mem, 26, 0
        ADDB      SP,#2                 ; [CPU_ARAU] 
	.dwcfi	cfa_offset, -4
$C$DW$193	.dwtag  DW_TAG_variable
	.dwattr $C$DW$193, DW_AT_name("f")
	.dwattr $C$DW$193, DW_AT_type(*$C$DW$T$16)
	.dwattr $C$DW$193, DW_AT_location[DW_OP_breg20 -2]

        MOV32     *-SP[2],R0H           ; [CPU_FPU] |337| 
	.dwpsn	file "C:/ti/ccs1250/ccs/tools/compiler/ti-cgt-c2000_22.6.1.LTS/include/_defs.h",line 337,column 3,is_stmt,isa 0
        MOVL      ACC,*-SP[2]           ; [CPU_ALU] |337| 
        MOV       PH,#0                 ; [CPU_ALU] |337| 
        AND       AH,#0x7f80            ; [CPU_ALU] |337| 
        MOVB      XAR6,#0               ; [CPU_ALU] |337| 
        MOVB      XAR7,#0               ; [CPU_ALU] |337| 
        MOV       PL,AH                 ; [CPU_ALU] |337| 
        MOV       ACC,#32640            ; [CPU_ALU] |337| 
        CMPL      ACC,P                 ; [CPU_ALU] |337| 
        B         ||$C$L13||,NEQ        ; [CPU_ALU] |337| 
        ; branchcc occurs ; [] |337| 
        MOVB      XAR7,#1               ; [CPU_ALU] |337| 
||$C$L13||:    
        MOV       AH,AR7                ; [CPU_ALU] 
        B         ||$C$L14||,NEQ        ; [CPU_ALU] |337| 
        ; branchcc occurs ; [] |337| 
        MOVB      XAR6,#1               ; [CPU_ALU] |337| 
||$C$L14||:    
        MOV       AL,AR6                ; [CPU_ALU] |337| 
	.dwpsn	file "C:/ti/ccs1250/ccs/tools/compiler/ti-cgt-c2000_22.6.1.LTS/include/_defs.h",line 337,column 45,is_stmt,isa 0
        SUBB      SP,#2                 ; [CPU_ARAU] 
	.dwcfi	cfa_offset, -2
$C$DW$194	.dwtag  DW_TAG_TI_branch
	.dwattr $C$DW$194, DW_AT_low_pc(0x00)
	.dwattr $C$DW$194, DW_AT_TI_return

        LRETR     ; [CPU_ALU] 
        ; return occurs ; [] 
	.dwattr $C$DW$191, DW_AT_TI_end_file("C:/ti/ccs1250/ccs/tools/compiler/ti-cgt-c2000_22.6.1.LTS/include/_defs.h")
	.dwattr $C$DW$191, DW_AT_TI_end_line(0x151)
	.dwattr $C$DW$191, DW_AT_TI_end_column(0x2d)
	.dwendentry
	.dwendtag $C$DW$191

	.sect	".text:__isfinitel"
	.clink
	.global	||__isfinitel||

$C$DW$195	.dwtag  DW_TAG_subprogram
	.dwattr $C$DW$195, DW_AT_name("__isfinitel")
	.dwattr $C$DW$195, DW_AT_low_pc(||__isfinitel||)
	.dwattr $C$DW$195, DW_AT_high_pc(0x00)
	.dwattr $C$DW$195, DW_AT_linkage_name("__isfinitel")
	.dwattr $C$DW$195, DW_AT_external
	.dwattr $C$DW$195, DW_AT_type(*$C$DW$T$10)
	.dwattr $C$DW$195, DW_AT_decl_file("C:/ti/ccs1250/ccs/tools/compiler/ti-cgt-c2000_22.6.1.LTS/include/_defs.h")
	.dwattr $C$DW$195, DW_AT_decl_line(0x152)
	.dwattr $C$DW$195, DW_AT_decl_column(0x18)
	.dwattr $C$DW$195, DW_AT_TI_max_frame_size(-6)
	.dwpsn	file "C:/ti/ccs1250/ccs/tools/compiler/ti-cgt-c2000_22.6.1.LTS/include/_defs.h",line 339,column 1,is_stmt,address ||__isfinitel||,isa 0

	.dwfde $C$DW$CIE, ||__isfinitel||
$C$DW$196	.dwtag  DW_TAG_formal_parameter
	.dwattr $C$DW$196, DW_AT_name("e")
	.dwattr $C$DW$196, DW_AT_type(*$C$DW$T$18)
	.dwattr $C$DW$196, DW_AT_location[DW_OP_regx 0x29]


;***************************************************************
;* FNAME: __isfinitel                   FR SIZE:   4           *
;*                                                             *
;* FUNCTION ENVIRONMENT                                        *
;*                                                             *
;* FUNCTION PROPERTIES                                         *
;*                            0 Parameter,  4 Auto,  0 SOE     *
;***************************************************************

||__isfinitel||:
	.dwcfi	cfa_offset, -2
	.dwcfi	save_reg_to_mem, 26, 0
        ADDB      SP,#4                 ; [CPU_ARAU] 
	.dwcfi	cfa_offset, -6
$C$DW$197	.dwtag  DW_TAG_variable
	.dwattr $C$DW$197, DW_AT_name("e")
	.dwattr $C$DW$197, DW_AT_type(*$C$DW$T$18)
	.dwattr $C$DW$197, DW_AT_location[DW_OP_breg20 -4]

        MOV32     *-SP[4],R0L           ; [CPU_FPU] |339| 
        MOV32     *-SP[2],R0H           ; [CPU_FPU] |339| 
	.dwpsn	file "C:/ti/ccs1250/ccs/tools/compiler/ti-cgt-c2000_22.6.1.LTS/include/_defs.h",line 339,column 3,is_stmt,isa 0
        MOV       T,#48                 ; [CPU_ALU] |339| 
        MOV32     P,R0L                 ; [CPU_FPU] |339| 
        MOVB      XAR6,#0               ; [CPU_ALU] |339| 
        MOVB      XAR7,#0               ; [CPU_ALU] |339| 
        MOV32     ACC,R0H               ; [CPU_FPU] |339| 
        LSR64     ACC:P,T               ; [CPU_ALU] |339| 
        MOV       PH,#0                 ; [CPU_ALU] |339| 
        AND       PL,#0x7ff0            ; [CPU_ALU] |339| 
        MOV       ACC,#32752            ; [CPU_ALU] |339| 
        CMPL      ACC,P                 ; [CPU_ALU] |339| 
        B         ||$C$L15||,NEQ        ; [CPU_ALU] |339| 
        ; branchcc occurs ; [] |339| 
        MOVB      XAR7,#1               ; [CPU_ALU] |339| 
||$C$L15||:    
        MOV       AH,AR7                ; [CPU_ALU] 
        B         ||$C$L16||,NEQ        ; [CPU_ALU] |339| 
        ; branchcc occurs ; [] |339| 
        MOVB      XAR6,#1               ; [CPU_ALU] |339| 
||$C$L16||:    
        MOV       AL,AR6                ; [CPU_ALU] |339| 
	.dwpsn	file "C:/ti/ccs1250/ccs/tools/compiler/ti-cgt-c2000_22.6.1.LTS/include/_defs.h",line 339,column 47,is_stmt,isa 0
        SUBB      SP,#4                 ; [CPU_ARAU] 
	.dwcfi	cfa_offset, -2
$C$DW$198	.dwtag  DW_TAG_TI_branch
	.dwattr $C$DW$198, DW_AT_low_pc(0x00)
	.dwattr $C$DW$198, DW_AT_TI_return

        LRETR     ; [CPU_ALU] 
        ; return occurs ; [] 
	.dwattr $C$DW$195, DW_AT_TI_end_file("C:/ti/ccs1250/ccs/tools/compiler/ti-cgt-c2000_22.6.1.LTS/include/_defs.h")
	.dwattr $C$DW$195, DW_AT_TI_end_line(0x153)
	.dwattr $C$DW$195, DW_AT_TI_end_column(0x2f)
	.dwendentry
	.dwendtag $C$DW$195

	.sect	".text:__isnan"
	.clink
	.global	||__isnan||

$C$DW$199	.dwtag  DW_TAG_subprogram
	.dwattr $C$DW$199, DW_AT_name("__isnan")
	.dwattr $C$DW$199, DW_AT_low_pc(||__isnan||)
	.dwattr $C$DW$199, DW_AT_high_pc(0x00)
	.dwattr $C$DW$199, DW_AT_linkage_name("__isnan")
	.dwattr $C$DW$199, DW_AT_external
	.dwattr $C$DW$199, DW_AT_type(*$C$DW$T$10)
	.dwattr $C$DW$199, DW_AT_decl_file("C:/ti/ccs1250/ccs/tools/compiler/ti-cgt-c2000_22.6.1.LTS/include/_defs.h")
	.dwattr $C$DW$199, DW_AT_decl_line(0x155)
	.dwattr $C$DW$199, DW_AT_decl_column(0x18)
	.dwattr $C$DW$199, DW_AT_TI_max_frame_size(-10)
	.dwpsn	file "C:/ti/ccs1250/ccs/tools/compiler/ti-cgt-c2000_22.6.1.LTS/include/_defs.h",line 342,column 1,is_stmt,address ||__isnan||,isa 0

	.dwfde $C$DW$CIE, ||__isnan||
$C$DW$200	.dwtag  DW_TAG_formal_parameter
	.dwattr $C$DW$200, DW_AT_name("d")
	.dwattr $C$DW$200, DW_AT_type(*$C$DW$T$17)
	.dwattr $C$DW$200, DW_AT_location[DW_OP_regx 0x29]


;***************************************************************
;* FNAME: __isnan                       FR SIZE:   8           *
;*                                                             *
;* FUNCTION ENVIRONMENT                                        *
;*                                                             *
;* FUNCTION PROPERTIES                                         *
;*                            4 Parameter,  4 Auto,  0 SOE     *
;***************************************************************

||__isnan||:
	.dwcfi	cfa_offset, -2
	.dwcfi	save_reg_to_mem, 26, 0
        ADDB      SP,#8                 ; [CPU_ARAU] 
	.dwcfi	cfa_offset, -10
$C$DW$201	.dwtag  DW_TAG_variable
	.dwattr $C$DW$201, DW_AT_name("d")
	.dwattr $C$DW$201, DW_AT_type(*$C$DW$T$17)
	.dwattr $C$DW$201, DW_AT_location[DW_OP_breg20 -8]

        MOV32     *-SP[8],R0L           ; [CPU_FPU] |342| 
        MOV32     *-SP[6],R0H           ; [CPU_FPU] |342| 
	.dwpsn	file "C:/ti/ccs1250/ccs/tools/compiler/ti-cgt-c2000_22.6.1.LTS/include/_defs.h",line 342,column 3,is_stmt,isa 0
        MOV       T,#48                 ; [CPU_ALU] |342| 
        MOV32     P,R0L                 ; [CPU_FPU] |342| 
        MOV32     ACC,R0H               ; [CPU_FPU] |342| 
        LSR64     ACC:P,T               ; [CPU_ALU] |342| 
        AND       PL,#0x7ff0            ; [CPU_ALU] |342| 
        MOVZ      AR6,PL                ; [CPU_ALU] |342| 
        MOV       ACC,#32752            ; [CPU_ALU] |342| 
        MOVB      XAR4,#0               ; [CPU_ALU] |342| 
        CMPL      ACC,XAR6              ; [CPU_ALU] |342| 
        B         ||$C$L18||,NEQ        ; [CPU_ALU] |342| 
        ; branchcc occurs ; [] |342| 
        MOVB      ACC,#0                ; [CPU_ALU] |342| 
        MOVL      *-SP[4],ACC           ; [CPU_ALU] |342| 
        MOV       *-SP[2],#0            ; [CPU_ALU] |342| 
        MOV       *-SP[1],#0            ; [CPU_ALU] |342| 
        MOV32     R0H,*-SP[6]           ; [CPU_FPU] |342| 
        MOV32     R0L,*-SP[8]           ; [CPU_FPU] |342| 
        NOP       ; [CPU_ALU] 
        MOV32     P,R0L                 ; [CPU_FPU] |342| 
        AND       PL,#65535             ; [CPU_ALU] |342| 
        AND       PH,#65535             ; [CPU_ALU] |342| 
        MOV32     ACC,R0H               ; [CPU_FPU] |342| 
        AND       AL,#65535             ; [CPU_ALU] |342| 
        ANDB      AH,#15                ; [CPU_ALU] |342| 
$C$DW$202	.dwtag  DW_TAG_TI_branch
	.dwattr $C$DW$202, DW_AT_low_pc(0x00)
	.dwattr $C$DW$202, DW_AT_name("__c28xabi_cmpull")
	.dwattr $C$DW$202, DW_AT_TI_call

        LCR       #||__c28xabi_cmpull|| ; [CPU_ALU] |342| 
        ; call occurs [#||__c28xabi_cmpull||] ; [] |342| 
        MOVB      AH,#0                 ; [CPU_ALU] |342| 
        CMPB      AL,#0                 ; [CPU_ALU] |342| 
        B         ||$C$L17||,NEQ        ; [CPU_ALU] |342| 
        ; branchcc occurs ; [] |342| 
        MOVB      AH,#1                 ; [CPU_ALU] |342| 
||$C$L17||:    
        CMPB      AH,#0                 ; [CPU_ALU] |342| 
        B         ||$C$L18||,NEQ        ; [CPU_ALU] |342| 
        ; branchcc occurs ; [] |342| 
        MOVB      XAR4,#1               ; [CPU_ALU] |342| 
||$C$L18||:    
        MOV       AL,AR4                ; [CPU_ALU] |342| 
	.dwpsn	file "C:/ti/ccs1250/ccs/tools/compiler/ti-cgt-c2000_22.6.1.LTS/include/_defs.h",line 343,column 47,is_stmt,isa 0
        SUBB      SP,#8                 ; [CPU_ARAU] 
	.dwcfi	cfa_offset, -2
$C$DW$203	.dwtag  DW_TAG_TI_branch
	.dwattr $C$DW$203, DW_AT_low_pc(0x00)
	.dwattr $C$DW$203, DW_AT_TI_return

        LRETR     ; [CPU_ALU] 
        ; return occurs ; [] 
	.dwattr $C$DW$199, DW_AT_TI_end_file("C:/ti/ccs1250/ccs/tools/compiler/ti-cgt-c2000_22.6.1.LTS/include/_defs.h")
	.dwattr $C$DW$199, DW_AT_TI_end_line(0x157)
	.dwattr $C$DW$199, DW_AT_TI_end_column(0x2f)
	.dwendentry
	.dwendtag $C$DW$199

	.sect	".text:__isnanf"
	.clink
	.global	||__isnanf||

$C$DW$204	.dwtag  DW_TAG_subprogram
	.dwattr $C$DW$204, DW_AT_name("__isnanf")
	.dwattr $C$DW$204, DW_AT_low_pc(||__isnanf||)
	.dwattr $C$DW$204, DW_AT_high_pc(0x00)
	.dwattr $C$DW$204, DW_AT_linkage_name("__isnanf")
	.dwattr $C$DW$204, DW_AT_external
	.dwattr $C$DW$204, DW_AT_type(*$C$DW$T$10)
	.dwattr $C$DW$204, DW_AT_decl_file("C:/ti/ccs1250/ccs/tools/compiler/ti-cgt-c2000_22.6.1.LTS/include/_defs.h")
	.dwattr $C$DW$204, DW_AT_decl_line(0x158)
	.dwattr $C$DW$204, DW_AT_decl_column(0x18)
	.dwattr $C$DW$204, DW_AT_TI_max_frame_size(-4)
	.dwpsn	file "C:/ti/ccs1250/ccs/tools/compiler/ti-cgt-c2000_22.6.1.LTS/include/_defs.h",line 345,column 1,is_stmt,address ||__isnanf||,isa 0

	.dwfde $C$DW$CIE, ||__isnanf||
$C$DW$205	.dwtag  DW_TAG_formal_parameter
	.dwattr $C$DW$205, DW_AT_name("f")
	.dwattr $C$DW$205, DW_AT_type(*$C$DW$T$16)
	.dwattr $C$DW$205, DW_AT_location[DW_OP_regx 0x2b]


;***************************************************************
;* FNAME: __isnanf                      FR SIZE:   2           *
;*                                                             *
;* FUNCTION ENVIRONMENT                                        *
;*                                                             *
;* FUNCTION PROPERTIES                                         *
;*                            0 Parameter,  2 Auto,  0 SOE     *
;***************************************************************

||__isnanf||:
	.dwcfi	cfa_offset, -2
	.dwcfi	save_reg_to_mem, 26, 0
        ADDB      SP,#2                 ; [CPU_ARAU] 
	.dwcfi	cfa_offset, -4
$C$DW$206	.dwtag  DW_TAG_variable
	.dwattr $C$DW$206, DW_AT_name("f")
	.dwattr $C$DW$206, DW_AT_type(*$C$DW$T$16)
	.dwattr $C$DW$206, DW_AT_location[DW_OP_breg20 -2]

        MOV32     *-SP[2],R0H           ; [CPU_FPU] |345| 
	.dwpsn	file "C:/ti/ccs1250/ccs/tools/compiler/ti-cgt-c2000_22.6.1.LTS/include/_defs.h",line 345,column 3,is_stmt,isa 0
        MOVL      ACC,*-SP[2]           ; [CPU_ALU] |345| 
        AND       AH,#0x7f80            ; [CPU_ALU] |345| 
        MOVZ      AR7,AH                ; [CPU_ALU] |345| 
        MOVB      XAR6,#0               ; [CPU_ALU] |345| 
        MOV       ACC,#32640            ; [CPU_ALU] |345| 
        CMPL      ACC,XAR7              ; [CPU_ALU] |345| 
        B         ||$C$L20||,NEQ        ; [CPU_ALU] |345| 
        ; branchcc occurs ; [] |345| 
        MOVL      ACC,*-SP[2]           ; [CPU_ALU] |345| 
        ANDB      AH,#127               ; [CPU_ALU] |345| 
        MOVB      XAR7,#0               ; [CPU_FPU] |345| 
        TEST      ACC                   ; [CPU_ALU] |345| 
        B         ||$C$L19||,NEQ        ; [CPU_ALU] |345| 
        ; branchcc occurs ; [] |345| 
        MOVB      XAR7,#1               ; [CPU_ALU] |345| 
||$C$L19||:    
        MOV       AH,AR7                ; [CPU_ALU] 
        B         ||$C$L20||,NEQ        ; [CPU_ALU] |345| 
        ; branchcc occurs ; [] |345| 
        MOVB      XAR6,#1               ; [CPU_ALU] |345| 
||$C$L20||:    
        MOV       AL,AR6                ; [CPU_ALU] |345| 
	.dwpsn	file "C:/ti/ccs1250/ccs/tools/compiler/ti-cgt-c2000_22.6.1.LTS/include/_defs.h",line 346,column 46,is_stmt,isa 0
        SUBB      SP,#2                 ; [CPU_ARAU] 
	.dwcfi	cfa_offset, -2
$C$DW$207	.dwtag  DW_TAG_TI_branch
	.dwattr $C$DW$207, DW_AT_low_pc(0x00)
	.dwattr $C$DW$207, DW_AT_TI_return

        LRETR     ; [CPU_ALU] 
        ; return occurs ; [] 
	.dwattr $C$DW$204, DW_AT_TI_end_file("C:/ti/ccs1250/ccs/tools/compiler/ti-cgt-c2000_22.6.1.LTS/include/_defs.h")
	.dwattr $C$DW$204, DW_AT_TI_end_line(0x15a)
	.dwattr $C$DW$204, DW_AT_TI_end_column(0x2e)
	.dwendentry
	.dwendtag $C$DW$204

	.sect	".text:__isnanl"
	.clink
	.global	||__isnanl||

$C$DW$208	.dwtag  DW_TAG_subprogram
	.dwattr $C$DW$208, DW_AT_name("__isnanl")
	.dwattr $C$DW$208, DW_AT_low_pc(||__isnanl||)
	.dwattr $C$DW$208, DW_AT_high_pc(0x00)
	.dwattr $C$DW$208, DW_AT_linkage_name("__isnanl")
	.dwattr $C$DW$208, DW_AT_external
	.dwattr $C$DW$208, DW_AT_type(*$C$DW$T$10)
	.dwattr $C$DW$208, DW_AT_decl_file("C:/ti/ccs1250/ccs/tools/compiler/ti-cgt-c2000_22.6.1.LTS/include/_defs.h")
	.dwattr $C$DW$208, DW_AT_decl_line(0x15b)
	.dwattr $C$DW$208, DW_AT_decl_column(0x18)
	.dwattr $C$DW$208, DW_AT_TI_max_frame_size(-10)
	.dwpsn	file "C:/ti/ccs1250/ccs/tools/compiler/ti-cgt-c2000_22.6.1.LTS/include/_defs.h",line 348,column 1,is_stmt,address ||__isnanl||,isa 0

	.dwfde $C$DW$CIE, ||__isnanl||
$C$DW$209	.dwtag  DW_TAG_formal_parameter
	.dwattr $C$DW$209, DW_AT_name("e")
	.dwattr $C$DW$209, DW_AT_type(*$C$DW$T$18)
	.dwattr $C$DW$209, DW_AT_location[DW_OP_regx 0x29]


;***************************************************************
;* FNAME: __isnanl                      FR SIZE:   8           *
;*                                                             *
;* FUNCTION ENVIRONMENT                                        *
;*                                                             *
;* FUNCTION PROPERTIES                                         *
;*                            4 Parameter,  4 Auto,  0 SOE     *
;***************************************************************

||__isnanl||:
	.dwcfi	cfa_offset, -2
	.dwcfi	save_reg_to_mem, 26, 0
        ADDB      SP,#8                 ; [CPU_ARAU] 
	.dwcfi	cfa_offset, -10
$C$DW$210	.dwtag  DW_TAG_variable
	.dwattr $C$DW$210, DW_AT_name("e")
	.dwattr $C$DW$210, DW_AT_type(*$C$DW$T$18)
	.dwattr $C$DW$210, DW_AT_location[DW_OP_breg20 -8]

        MOV32     *-SP[8],R0L           ; [CPU_FPU] |348| 
        MOV32     *-SP[6],R0H           ; [CPU_FPU] |348| 
	.dwpsn	file "C:/ti/ccs1250/ccs/tools/compiler/ti-cgt-c2000_22.6.1.LTS/include/_defs.h",line 348,column 3,is_stmt,isa 0
        MOV       T,#48                 ; [CPU_ALU] |348| 
        MOV32     P,R0L                 ; [CPU_FPU] |348| 
        MOV32     ACC,R0H               ; [CPU_FPU] |348| 
        LSR64     ACC:P,T               ; [CPU_ALU] |348| 
        AND       PL,#0x7ff0            ; [CPU_ALU] |348| 
        MOVZ      AR6,PL                ; [CPU_ALU] |348| 
        MOV       ACC,#32752            ; [CPU_ALU] |348| 
        MOVB      XAR4,#0               ; [CPU_ALU] |348| 
        CMPL      ACC,XAR6              ; [CPU_ALU] |348| 
        B         ||$C$L22||,NEQ        ; [CPU_ALU] |348| 
        ; branchcc occurs ; [] |348| 
        MOVB      ACC,#0                ; [CPU_ALU] |348| 
        MOVL      *-SP[4],ACC           ; [CPU_ALU] |348| 
        MOV       *-SP[2],#0            ; [CPU_ALU] |348| 
        MOV       *-SP[1],#0            ; [CPU_ALU] |348| 
        MOV32     R0H,*-SP[6]           ; [CPU_FPU] |348| 
        MOV32     R0L,*-SP[8]           ; [CPU_FPU] |348| 
        NOP       ; [CPU_ALU] 
        MOV32     P,R0L                 ; [CPU_FPU] |348| 
        AND       PL,#65535             ; [CPU_ALU] |348| 
        AND       PH,#65535             ; [CPU_ALU] |348| 
        MOV32     ACC,R0H               ; [CPU_FPU] |348| 
        AND       AL,#65535             ; [CPU_ALU] |348| 
        ANDB      AH,#15                ; [CPU_ALU] |348| 
$C$DW$211	.dwtag  DW_TAG_TI_branch
	.dwattr $C$DW$211, DW_AT_low_pc(0x00)
	.dwattr $C$DW$211, DW_AT_name("__c28xabi_cmpull")
	.dwattr $C$DW$211, DW_AT_TI_call

        LCR       #||__c28xabi_cmpull|| ; [CPU_ALU] |348| 
        ; call occurs [#||__c28xabi_cmpull||] ; [] |348| 
        MOVB      AH,#0                 ; [CPU_ALU] |348| 
        CMPB      AL,#0                 ; [CPU_ALU] |348| 
        B         ||$C$L21||,NEQ        ; [CPU_ALU] |348| 
        ; branchcc occurs ; [] |348| 
        MOVB      AH,#1                 ; [CPU_ALU] |348| 
||$C$L21||:    
        CMPB      AH,#0                 ; [CPU_ALU] |348| 
        B         ||$C$L22||,NEQ        ; [CPU_ALU] |348| 
        ; branchcc occurs ; [] |348| 
        MOVB      XAR4,#1               ; [CPU_ALU] |348| 
||$C$L22||:    
        MOV       AL,AR4                ; [CPU_ALU] |348| 
	.dwpsn	file "C:/ti/ccs1250/ccs/tools/compiler/ti-cgt-c2000_22.6.1.LTS/include/_defs.h",line 349,column 48,is_stmt,isa 0
        SUBB      SP,#8                 ; [CPU_ARAU] 
	.dwcfi	cfa_offset, -2
$C$DW$212	.dwtag  DW_TAG_TI_branch
	.dwattr $C$DW$212, DW_AT_low_pc(0x00)
	.dwattr $C$DW$212, DW_AT_TI_return

        LRETR     ; [CPU_ALU] 
        ; return occurs ; [] 
	.dwattr $C$DW$208, DW_AT_TI_end_file("C:/ti/ccs1250/ccs/tools/compiler/ti-cgt-c2000_22.6.1.LTS/include/_defs.h")
	.dwattr $C$DW$208, DW_AT_TI_end_line(0x15d)
	.dwattr $C$DW$208, DW_AT_TI_end_column(0x30)
	.dwendentry
	.dwendtag $C$DW$208

	.sect	".text:__isnormal"
	.clink
	.global	||__isnormal||

$C$DW$213	.dwtag  DW_TAG_subprogram
	.dwattr $C$DW$213, DW_AT_name("__isnormal")
	.dwattr $C$DW$213, DW_AT_low_pc(||__isnormal||)
	.dwattr $C$DW$213, DW_AT_high_pc(0x00)
	.dwattr $C$DW$213, DW_AT_linkage_name("__isnormal")
	.dwattr $C$DW$213, DW_AT_external
	.dwattr $C$DW$213, DW_AT_type(*$C$DW$T$10)
	.dwattr $C$DW$213, DW_AT_decl_file("C:/ti/ccs1250/ccs/tools/compiler/ti-cgt-c2000_22.6.1.LTS/include/_defs.h")
	.dwattr $C$DW$213, DW_AT_decl_line(0x15f)
	.dwattr $C$DW$213, DW_AT_decl_column(0x18)
	.dwattr $C$DW$213, DW_AT_TI_max_frame_size(-10)
	.dwpsn	file "C:/ti/ccs1250/ccs/tools/compiler/ti-cgt-c2000_22.6.1.LTS/include/_defs.h",line 352,column 1,is_stmt,address ||__isnormal||,isa 0

	.dwfde $C$DW$CIE, ||__isnormal||
$C$DW$214	.dwtag  DW_TAG_formal_parameter
	.dwattr $C$DW$214, DW_AT_name("d")
	.dwattr $C$DW$214, DW_AT_type(*$C$DW$T$17)
	.dwattr $C$DW$214, DW_AT_location[DW_OP_regx 0x29]


;***************************************************************
;* FNAME: __isnormal                    FR SIZE:   8           *
;*                                                             *
;* FUNCTION ENVIRONMENT                                        *
;*                                                             *
;* FUNCTION PROPERTIES                                         *
;*                            4 Parameter,  4 Auto,  0 SOE     *
;***************************************************************

||__isnormal||:
	.dwcfi	cfa_offset, -2
	.dwcfi	save_reg_to_mem, 26, 0
        ADDB      SP,#8                 ; [CPU_ARAU] 
	.dwcfi	cfa_offset, -10
$C$DW$215	.dwtag  DW_TAG_variable
	.dwattr $C$DW$215, DW_AT_name("d")
	.dwattr $C$DW$215, DW_AT_type(*$C$DW$T$17)
	.dwattr $C$DW$215, DW_AT_location[DW_OP_breg20 -8]

        MOV32     *-SP[8],R0L           ; [CPU_FPU] |352| 
        MOV32     *-SP[6],R0H           ; [CPU_FPU] |352| 
	.dwpsn	file "C:/ti/ccs1250/ccs/tools/compiler/ti-cgt-c2000_22.6.1.LTS/include/_defs.h",line 352,column 3,is_stmt,isa 0
        MOVB      ACC,#0                ; [CPU_ALU] |352| 
        MOVL      *-SP[4],ACC           ; [CPU_ALU] |352| 
        MOV       *-SP[2],#0            ; [CPU_ALU] |352| 
        MOV       *-SP[1],#0            ; [CPU_ALU] |352| 
        MOV32     R0H,*-SP[6]           ; [CPU_FPU] |352| 
        MOV32     R0L,*-SP[8]           ; [CPU_FPU] |352| 
        MOV       T,#52                 ; [CPU_ALU] |352| 
        MOV32     P,R0L                 ; [CPU_FPU] |352| 
        MOV32     ACC,R0H               ; [CPU_FPU] |352| 
        LSR64     ACC:P,T               ; [CPU_ALU] |352| 
        ANDB      AL,#0                 ; [CPU_ALU] |352| 
        ANDB      AH,#0                 ; [CPU_ALU] |352| 
        AND       PL,#2047              ; [CPU_ALU] |352| 
        AND       PH,#0                 ; [CPU_ALU] |352| 
$C$DW$216	.dwtag  DW_TAG_TI_branch
	.dwattr $C$DW$216, DW_AT_low_pc(0x00)
	.dwattr $C$DW$216, DW_AT_name("__c28xabi_cmpull")
	.dwattr $C$DW$216, DW_AT_TI_call

        LCR       #||__c28xabi_cmpull|| ; [CPU_ALU] |352| 
        ; call occurs [#||__c28xabi_cmpull||] ; [] |352| 
        MOVB      XAR7,#0               ; [CPU_ALU] |352| 
        MOVB      AH,#0                 ; [CPU_ALU] |352| 
        CMPB      AL,#0                 ; [CPU_ALU] |352| 
        B         ||$C$L23||,NEQ        ; [CPU_ALU] |352| 
        ; branchcc occurs ; [] |352| 
        MOVB      AH,#1                 ; [CPU_ALU] |352| 
||$C$L23||:    
        CMPB      AH,#0                 ; [CPU_ALU] |352| 
        B         ||$C$L25||,NEQ        ; [CPU_ALU] |352| 
        ; branchcc occurs ; [] |352| 
        MOV32     R0H,*-SP[6]           ; [CPU_FPU] |352| 
        MOV       T,#48                 ; [CPU_ALU] |352| 
        MOV32     R0L,*-SP[8]           ; [CPU_FPU] |352| 
        MOVB      XAR6,#0               ; [CPU_ALU] |352| 
        MOV32     P,R0L                 ; [CPU_FPU] |352| 
        MOV32     ACC,R0H               ; [CPU_FPU] |352| 
        LSR64     ACC:P,T               ; [CPU_ALU] |352| 
        MOV       PH,#0                 ; [CPU_ALU] |352| 
        AND       PL,#0x7ff0            ; [CPU_ALU] |352| 
        MOV       ACC,#32752            ; [CPU_ALU] |352| 
        CMPL      ACC,P                 ; [CPU_ALU] |352| 
        B         ||$C$L24||,NEQ        ; [CPU_ALU] |352| 
        ; branchcc occurs ; [] |352| 
        MOVB      XAR6,#1               ; [CPU_ALU] |352| 
||$C$L24||:    
        MOV       AL,AR6                ; [CPU_ALU] 
        B         ||$C$L25||,NEQ        ; [CPU_ALU] |352| 
        ; branchcc occurs ; [] |352| 
        MOVB      XAR7,#1               ; [CPU_ALU] |352| 
||$C$L25||:    
        MOV       AL,AR7                ; [CPU_ALU] |352| 
	.dwpsn	file "C:/ti/ccs1250/ccs/tools/compiler/ti-cgt-c2000_22.6.1.LTS/include/_defs.h",line 353,column 48,is_stmt,isa 0
        SUBB      SP,#8                 ; [CPU_ARAU] 
	.dwcfi	cfa_offset, -2
$C$DW$217	.dwtag  DW_TAG_TI_branch
	.dwattr $C$DW$217, DW_AT_low_pc(0x00)
	.dwattr $C$DW$217, DW_AT_TI_return

        LRETR     ; [CPU_ALU] 
        ; return occurs ; [] 
	.dwattr $C$DW$213, DW_AT_TI_end_file("C:/ti/ccs1250/ccs/tools/compiler/ti-cgt-c2000_22.6.1.LTS/include/_defs.h")
	.dwattr $C$DW$213, DW_AT_TI_end_line(0x161)
	.dwattr $C$DW$213, DW_AT_TI_end_column(0x30)
	.dwendentry
	.dwendtag $C$DW$213

	.sect	".text:__isnormalf"
	.clink
	.global	||__isnormalf||

$C$DW$218	.dwtag  DW_TAG_subprogram
	.dwattr $C$DW$218, DW_AT_name("__isnormalf")
	.dwattr $C$DW$218, DW_AT_low_pc(||__isnormalf||)
	.dwattr $C$DW$218, DW_AT_high_pc(0x00)
	.dwattr $C$DW$218, DW_AT_linkage_name("__isnormalf")
	.dwattr $C$DW$218, DW_AT_external
	.dwattr $C$DW$218, DW_AT_type(*$C$DW$T$10)
	.dwattr $C$DW$218, DW_AT_decl_file("C:/ti/ccs1250/ccs/tools/compiler/ti-cgt-c2000_22.6.1.LTS/include/_defs.h")
	.dwattr $C$DW$218, DW_AT_decl_line(0x163)
	.dwattr $C$DW$218, DW_AT_decl_column(0x18)
	.dwattr $C$DW$218, DW_AT_TI_max_frame_size(-4)
	.dwpsn	file "C:/ti/ccs1250/ccs/tools/compiler/ti-cgt-c2000_22.6.1.LTS/include/_defs.h",line 356,column 1,is_stmt,address ||__isnormalf||,isa 0

	.dwfde $C$DW$CIE, ||__isnormalf||
$C$DW$219	.dwtag  DW_TAG_formal_parameter
	.dwattr $C$DW$219, DW_AT_name("f")
	.dwattr $C$DW$219, DW_AT_type(*$C$DW$T$16)
	.dwattr $C$DW$219, DW_AT_location[DW_OP_regx 0x2b]


;***************************************************************
;* FNAME: __isnormalf                   FR SIZE:   2           *
;*                                                             *
;* FUNCTION ENVIRONMENT                                        *
;*                                                             *
;* FUNCTION PROPERTIES                                         *
;*                            0 Parameter,  2 Auto,  0 SOE     *
;***************************************************************

||__isnormalf||:
	.dwcfi	cfa_offset, -2
	.dwcfi	save_reg_to_mem, 26, 0
        ADDB      SP,#2                 ; [CPU_ARAU] 
	.dwcfi	cfa_offset, -4
$C$DW$220	.dwtag  DW_TAG_variable
	.dwattr $C$DW$220, DW_AT_name("f")
	.dwattr $C$DW$220, DW_AT_type(*$C$DW$T$16)
	.dwattr $C$DW$220, DW_AT_location[DW_OP_breg20 -2]

        MOV32     *-SP[2],R0H           ; [CPU_FPU] |356| 
	.dwpsn	file "C:/ti/ccs1250/ccs/tools/compiler/ti-cgt-c2000_22.6.1.LTS/include/_defs.h",line 356,column 3,is_stmt,isa 0
        MOV       T,#23                 ; [CPU_ALU] |356| 
        MOVL      ACC,*-SP[2]           ; [CPU_ALU] |356| 
        MOVB      XAR6,#0               ; [CPU_ALU] |356| 
        LSRL      ACC,T                 ; [CPU_ALU] |356| 
        MOVB      AH,#0                 ; [CPU_ALU] |356| 
        ANDB      AL,#0xff              ; [CPU_ALU] |356| 
        CMPB      AL,#0                 ; [CPU_ALU] |356| 
        B         ||$C$L26||,NEQ        ; [CPU_ALU] |356| 
        ; branchcc occurs ; [] |356| 
        MOVB      AH,#1                 ; [CPU_ALU] |356| 
||$C$L26||:    
        CMPB      AH,#0                 ; [CPU_ALU] |356| 
        B         ||$C$L28||,NEQ        ; [CPU_ALU] |356| 
        ; branchcc occurs ; [] |356| 
        MOVL      P,*-SP[2]             ; [CPU_ALU] |356| 
        MOV       ACC,#32640            ; [CPU_ALU] |356| 
        AND       PH,#0x7f80            ; [CPU_ALU] |356| 
        MOVB      XAR7,#0               ; [CPU_ALU] |356| 
        MOV       PL,PH                 ; [CPU_ALU] |356| 
        MOV       PH,#0                 ; [CPU_ALU] |356| 
        CMPL      ACC,P                 ; [CPU_ALU] |356| 
        B         ||$C$L27||,NEQ        ; [CPU_ALU] |356| 
        ; branchcc occurs ; [] |356| 
        MOVB      XAR7,#1               ; [CPU_ALU] |356| 
||$C$L27||:    
        MOV       AH,AR7                ; [CPU_ALU] 
        B         ||$C$L28||,NEQ        ; [CPU_ALU] |356| 
        ; branchcc occurs ; [] |356| 
        MOVB      XAR6,#1               ; [CPU_ALU] |356| 
||$C$L28||:    
        MOV       AL,AR6                ; [CPU_ALU] |356| 
	.dwpsn	file "C:/ti/ccs1250/ccs/tools/compiler/ti-cgt-c2000_22.6.1.LTS/include/_defs.h",line 357,column 47,is_stmt,isa 0
        SUBB      SP,#2                 ; [CPU_ARAU] 
	.dwcfi	cfa_offset, -2
$C$DW$221	.dwtag  DW_TAG_TI_branch
	.dwattr $C$DW$221, DW_AT_low_pc(0x00)
	.dwattr $C$DW$221, DW_AT_TI_return

        LRETR     ; [CPU_ALU] 
        ; return occurs ; [] 
	.dwattr $C$DW$218, DW_AT_TI_end_file("C:/ti/ccs1250/ccs/tools/compiler/ti-cgt-c2000_22.6.1.LTS/include/_defs.h")
	.dwattr $C$DW$218, DW_AT_TI_end_line(0x165)
	.dwattr $C$DW$218, DW_AT_TI_end_column(0x2f)
	.dwendentry
	.dwendtag $C$DW$218

	.sect	".text:__isnormall"
	.clink
	.global	||__isnormall||

$C$DW$222	.dwtag  DW_TAG_subprogram
	.dwattr $C$DW$222, DW_AT_name("__isnormall")
	.dwattr $C$DW$222, DW_AT_low_pc(||__isnormall||)
	.dwattr $C$DW$222, DW_AT_high_pc(0x00)
	.dwattr $C$DW$222, DW_AT_linkage_name("__isnormall")
	.dwattr $C$DW$222, DW_AT_external
	.dwattr $C$DW$222, DW_AT_type(*$C$DW$T$10)
	.dwattr $C$DW$222, DW_AT_decl_file("C:/ti/ccs1250/ccs/tools/compiler/ti-cgt-c2000_22.6.1.LTS/include/_defs.h")
	.dwattr $C$DW$222, DW_AT_decl_line(0x167)
	.dwattr $C$DW$222, DW_AT_decl_column(0x18)
	.dwattr $C$DW$222, DW_AT_TI_max_frame_size(-10)
	.dwpsn	file "C:/ti/ccs1250/ccs/tools/compiler/ti-cgt-c2000_22.6.1.LTS/include/_defs.h",line 360,column 1,is_stmt,address ||__isnormall||,isa 0

	.dwfde $C$DW$CIE, ||__isnormall||
$C$DW$223	.dwtag  DW_TAG_formal_parameter
	.dwattr $C$DW$223, DW_AT_name("e")
	.dwattr $C$DW$223, DW_AT_type(*$C$DW$T$18)
	.dwattr $C$DW$223, DW_AT_location[DW_OP_regx 0x29]


;***************************************************************
;* FNAME: __isnormall                   FR SIZE:   8           *
;*                                                             *
;* FUNCTION ENVIRONMENT                                        *
;*                                                             *
;* FUNCTION PROPERTIES                                         *
;*                            4 Parameter,  4 Auto,  0 SOE     *
;***************************************************************

||__isnormall||:
	.dwcfi	cfa_offset, -2
	.dwcfi	save_reg_to_mem, 26, 0
        ADDB      SP,#8                 ; [CPU_ARAU] 
	.dwcfi	cfa_offset, -10
$C$DW$224	.dwtag  DW_TAG_variable
	.dwattr $C$DW$224, DW_AT_name("e")
	.dwattr $C$DW$224, DW_AT_type(*$C$DW$T$18)
	.dwattr $C$DW$224, DW_AT_location[DW_OP_breg20 -8]

        MOV32     *-SP[8],R0L           ; [CPU_FPU] |360| 
        MOV32     *-SP[6],R0H           ; [CPU_FPU] |360| 
	.dwpsn	file "C:/ti/ccs1250/ccs/tools/compiler/ti-cgt-c2000_22.6.1.LTS/include/_defs.h",line 360,column 3,is_stmt,isa 0
        MOVB      ACC,#0                ; [CPU_ALU] |360| 
        MOVL      *-SP[4],ACC           ; [CPU_ALU] |360| 
        MOV       *-SP[2],#0            ; [CPU_ALU] |360| 
        MOV       *-SP[1],#0            ; [CPU_ALU] |360| 
        MOV32     R0H,*-SP[6]           ; [CPU_FPU] |360| 
        MOV32     R0L,*-SP[8]           ; [CPU_FPU] |360| 
        MOV       T,#52                 ; [CPU_ALU] |360| 
        MOV32     P,R0L                 ; [CPU_FPU] |360| 
        MOV32     ACC,R0H               ; [CPU_FPU] |360| 
        LSR64     ACC:P,T               ; [CPU_ALU] |360| 
        ANDB      AL,#0                 ; [CPU_ALU] |360| 
        ANDB      AH,#0                 ; [CPU_ALU] |360| 
        AND       PL,#2047              ; [CPU_ALU] |360| 
        AND       PH,#0                 ; [CPU_ALU] |360| 
$C$DW$225	.dwtag  DW_TAG_TI_branch
	.dwattr $C$DW$225, DW_AT_low_pc(0x00)
	.dwattr $C$DW$225, DW_AT_name("__c28xabi_cmpull")
	.dwattr $C$DW$225, DW_AT_TI_call

        LCR       #||__c28xabi_cmpull|| ; [CPU_ALU] |360| 
        ; call occurs [#||__c28xabi_cmpull||] ; [] |360| 
        MOVB      XAR7,#0               ; [CPU_ALU] |360| 
        MOVB      AH,#0                 ; [CPU_ALU] |360| 
        CMPB      AL,#0                 ; [CPU_ALU] |360| 
        B         ||$C$L29||,NEQ        ; [CPU_ALU] |360| 
        ; branchcc occurs ; [] |360| 
        MOVB      AH,#1                 ; [CPU_ALU] |360| 
||$C$L29||:    
        CMPB      AH,#0                 ; [CPU_ALU] |360| 
        B         ||$C$L31||,NEQ        ; [CPU_ALU] |360| 
        ; branchcc occurs ; [] |360| 
        MOV32     R0H,*-SP[6]           ; [CPU_FPU] |360| 
        MOV       T,#48                 ; [CPU_ALU] |360| 
        MOV32     R0L,*-SP[8]           ; [CPU_FPU] |360| 
        MOVB      XAR6,#0               ; [CPU_ALU] |360| 
        MOV32     P,R0L                 ; [CPU_FPU] |360| 
        MOV32     ACC,R0H               ; [CPU_FPU] |360| 
        LSR64     ACC:P,T               ; [CPU_ALU] |360| 
        MOV       PH,#0                 ; [CPU_ALU] |360| 
        AND       PL,#0x7ff0            ; [CPU_ALU] |360| 
        MOV       ACC,#32752            ; [CPU_ALU] |360| 
        CMPL      ACC,P                 ; [CPU_ALU] |360| 
        B         ||$C$L30||,NEQ        ; [CPU_ALU] |360| 
        ; branchcc occurs ; [] |360| 
        MOVB      XAR6,#1               ; [CPU_ALU] |360| 
||$C$L30||:    
        MOV       AL,AR6                ; [CPU_ALU] 
        B         ||$C$L31||,NEQ        ; [CPU_ALU] |360| 
        ; branchcc occurs ; [] |360| 
        MOVB      XAR7,#1               ; [CPU_ALU] |360| 
||$C$L31||:    
        MOV       AL,AR7                ; [CPU_ALU] |360| 
	.dwpsn	file "C:/ti/ccs1250/ccs/tools/compiler/ti-cgt-c2000_22.6.1.LTS/include/_defs.h",line 361,column 49,is_stmt,isa 0
        SUBB      SP,#8                 ; [CPU_ARAU] 
	.dwcfi	cfa_offset, -2
$C$DW$226	.dwtag  DW_TAG_TI_branch
	.dwattr $C$DW$226, DW_AT_low_pc(0x00)
	.dwattr $C$DW$226, DW_AT_TI_return

        LRETR     ; [CPU_ALU] 
        ; return occurs ; [] 
	.dwattr $C$DW$222, DW_AT_TI_end_file("C:/ti/ccs1250/ccs/tools/compiler/ti-cgt-c2000_22.6.1.LTS/include/_defs.h")
	.dwattr $C$DW$222, DW_AT_TI_end_line(0x169)
	.dwattr $C$DW$222, DW_AT_TI_end_column(0x31)
	.dwendentry
	.dwendtag $C$DW$222

	.sect	".text:__signbit"
	.clink
	.global	||__signbit||

$C$DW$227	.dwtag  DW_TAG_subprogram
	.dwattr $C$DW$227, DW_AT_name("__signbit")
	.dwattr $C$DW$227, DW_AT_low_pc(||__signbit||)
	.dwattr $C$DW$227, DW_AT_high_pc(0x00)
	.dwattr $C$DW$227, DW_AT_linkage_name("__signbit")
	.dwattr $C$DW$227, DW_AT_external
	.dwattr $C$DW$227, DW_AT_type(*$C$DW$T$10)
	.dwattr $C$DW$227, DW_AT_decl_file("C:/ti/ccs1250/ccs/tools/compiler/ti-cgt-c2000_22.6.1.LTS/include/_defs.h")
	.dwattr $C$DW$227, DW_AT_decl_line(0x16b)
	.dwattr $C$DW$227, DW_AT_decl_column(0x18)
	.dwattr $C$DW$227, DW_AT_TI_max_frame_size(-10)
	.dwpsn	file "C:/ti/ccs1250/ccs/tools/compiler/ti-cgt-c2000_22.6.1.LTS/include/_defs.h",line 364,column 1,is_stmt,address ||__signbit||,isa 0

	.dwfde $C$DW$CIE, ||__signbit||
$C$DW$228	.dwtag  DW_TAG_formal_parameter
	.dwattr $C$DW$228, DW_AT_name("d")
	.dwattr $C$DW$228, DW_AT_type(*$C$DW$T$17)
	.dwattr $C$DW$228, DW_AT_location[DW_OP_regx 0x29]


;***************************************************************
;* FNAME: __signbit                     FR SIZE:   8           *
;*                                                             *
;* FUNCTION ENVIRONMENT                                        *
;*                                                             *
;* FUNCTION PROPERTIES                                         *
;*                            4 Parameter,  4 Auto,  0 SOE     *
;***************************************************************

||__signbit||:
	.dwcfi	cfa_offset, -2
	.dwcfi	save_reg_to_mem, 26, 0
        ADDB      SP,#8                 ; [CPU_ARAU] 
	.dwcfi	cfa_offset, -10
$C$DW$229	.dwtag  DW_TAG_variable
	.dwattr $C$DW$229, DW_AT_name("d")
	.dwattr $C$DW$229, DW_AT_type(*$C$DW$T$17)
	.dwattr $C$DW$229, DW_AT_location[DW_OP_breg20 -8]

        MOV32     *-SP[8],R0L           ; [CPU_FPU] |364| 
        MOV32     *-SP[6],R0H           ; [CPU_FPU] |364| 
	.dwpsn	file "C:/ti/ccs1250/ccs/tools/compiler/ti-cgt-c2000_22.6.1.LTS/include/_defs.h",line 364,column 3,is_stmt,isa 0
        MOVB      ACC,#0                ; [CPU_ALU] |364| 
        MOVL      *-SP[4],ACC           ; [CPU_ALU] |364| 
        MOV       *-SP[2],#0            ; [CPU_ALU] |364| 
        MOV       *-SP[1],#0            ; [CPU_ALU] |364| 
        MOV32     R0H,*-SP[6]           ; [CPU_FPU] |364| 
        MOV32     R0L,*-SP[8]           ; [CPU_FPU] |364| 
        NOP       ; [CPU_ALU] 
        MOV32     P,R0L                 ; [CPU_FPU] |364| 
        AND       PL,#0                 ; [CPU_ALU] |364| 
        AND       PH,#0                 ; [CPU_ALU] |364| 
        MOV32     ACC,R0H               ; [CPU_FPU] |364| 
        ANDB      AL,#0                 ; [CPU_ALU] |364| 
        AND       AH,#32768             ; [CPU_ALU] |364| 
$C$DW$230	.dwtag  DW_TAG_TI_branch
	.dwattr $C$DW$230, DW_AT_low_pc(0x00)
	.dwattr $C$DW$230, DW_AT_name("__c28xabi_cmpull")
	.dwattr $C$DW$230, DW_AT_TI_call

        LCR       #||__c28xabi_cmpull|| ; [CPU_ALU] |364| 
        ; call occurs [#||__c28xabi_cmpull||] ; [] |364| 
        MOVB      XAR6,#0               ; [CPU_ALU] |364| 
        MOVB      AH,#0                 ; [CPU_ALU] |364| 
        CMPB      AL,#0                 ; [CPU_ALU] |364| 
        B         ||$C$L32||,NEQ        ; [CPU_ALU] |364| 
        ; branchcc occurs ; [] |364| 
        MOVB      AH,#1                 ; [CPU_ALU] |364| 
||$C$L32||:    
        CMPB      AH,#0                 ; [CPU_ALU] |364| 
        B         ||$C$L33||,NEQ        ; [CPU_ALU] |364| 
        ; branchcc occurs ; [] |364| 
        MOVB      XAR6,#1               ; [CPU_ALU] |364| 
||$C$L33||:    
        MOV       AL,AR6                ; [CPU_ALU] |364| 
	.dwpsn	file "C:/ti/ccs1250/ccs/tools/compiler/ti-cgt-c2000_22.6.1.LTS/include/_defs.h",line 364,column 42,is_stmt,isa 0
        SUBB      SP,#8                 ; [CPU_ARAU] 
	.dwcfi	cfa_offset, -2
$C$DW$231	.dwtag  DW_TAG_TI_branch
	.dwattr $C$DW$231, DW_AT_low_pc(0x00)
	.dwattr $C$DW$231, DW_AT_TI_return

        LRETR     ; [CPU_ALU] 
        ; return occurs ; [] 
	.dwattr $C$DW$227, DW_AT_TI_end_file("C:/ti/ccs1250/ccs/tools/compiler/ti-cgt-c2000_22.6.1.LTS/include/_defs.h")
	.dwattr $C$DW$227, DW_AT_TI_end_line(0x16c)
	.dwattr $C$DW$227, DW_AT_TI_end_column(0x2a)
	.dwendentry
	.dwendtag $C$DW$227

	.sect	".text:__signbitf"
	.clink
	.global	||__signbitf||

$C$DW$232	.dwtag  DW_TAG_subprogram
	.dwattr $C$DW$232, DW_AT_name("__signbitf")
	.dwattr $C$DW$232, DW_AT_low_pc(||__signbitf||)
	.dwattr $C$DW$232, DW_AT_high_pc(0x00)
	.dwattr $C$DW$232, DW_AT_linkage_name("__signbitf")
	.dwattr $C$DW$232, DW_AT_external
	.dwattr $C$DW$232, DW_AT_type(*$C$DW$T$10)
	.dwattr $C$DW$232, DW_AT_decl_file("C:/ti/ccs1250/ccs/tools/compiler/ti-cgt-c2000_22.6.1.LTS/include/_defs.h")
	.dwattr $C$DW$232, DW_AT_decl_line(0x16d)
	.dwattr $C$DW$232, DW_AT_decl_column(0x18)
	.dwattr $C$DW$232, DW_AT_TI_max_frame_size(-4)
	.dwpsn	file "C:/ti/ccs1250/ccs/tools/compiler/ti-cgt-c2000_22.6.1.LTS/include/_defs.h",line 366,column 1,is_stmt,address ||__signbitf||,isa 0

	.dwfde $C$DW$CIE, ||__signbitf||
$C$DW$233	.dwtag  DW_TAG_formal_parameter
	.dwattr $C$DW$233, DW_AT_name("f")
	.dwattr $C$DW$233, DW_AT_type(*$C$DW$T$16)
	.dwattr $C$DW$233, DW_AT_location[DW_OP_regx 0x2b]


;***************************************************************
;* FNAME: __signbitf                    FR SIZE:   2           *
;*                                                             *
;* FUNCTION ENVIRONMENT                                        *
;*                                                             *
;* FUNCTION PROPERTIES                                         *
;*                            0 Parameter,  2 Auto,  0 SOE     *
;***************************************************************

||__signbitf||:
	.dwcfi	cfa_offset, -2
	.dwcfi	save_reg_to_mem, 26, 0
        ADDB      SP,#2                 ; [CPU_ARAU] 
	.dwcfi	cfa_offset, -4
$C$DW$234	.dwtag  DW_TAG_variable
	.dwattr $C$DW$234, DW_AT_name("f")
	.dwattr $C$DW$234, DW_AT_type(*$C$DW$T$16)
	.dwattr $C$DW$234, DW_AT_location[DW_OP_breg20 -2]

        MOV32     *-SP[2],R0H           ; [CPU_FPU] |366| 
	.dwpsn	file "C:/ti/ccs1250/ccs/tools/compiler/ti-cgt-c2000_22.6.1.LTS/include/_defs.h",line 366,column 3,is_stmt,isa 0
        MOVL      ACC,*-SP[2]           ; [CPU_ALU] |366| 
        MOVB      XAR6,#0               ; [CPU_ALU] |366| 
        MOVB      XAR7,#0               ; [CPU_ALU] |366| 
        ANDB      AL,#0                 ; [CPU_ALU] |366| 
        AND       AH,#32768             ; [CPU_ALU] |366| 
        TEST      ACC                   ; [CPU_ALU] |366| 
        B         ||$C$L34||,NEQ        ; [CPU_ALU] |366| 
        ; branchcc occurs ; [] |366| 
        MOVB      XAR7,#1               ; [CPU_ALU] |366| 
||$C$L34||:    
        MOV       AH,AR7                ; [CPU_ALU] 
        B         ||$C$L35||,NEQ        ; [CPU_ALU] |366| 
        ; branchcc occurs ; [] |366| 
        MOVB      XAR6,#1               ; [CPU_ALU] |366| 
||$C$L35||:    
        MOV       AL,AR6                ; [CPU_ALU] |366| 
	.dwpsn	file "C:/ti/ccs1250/ccs/tools/compiler/ti-cgt-c2000_22.6.1.LTS/include/_defs.h",line 366,column 41,is_stmt,isa 0
        SUBB      SP,#2                 ; [CPU_ARAU] 
	.dwcfi	cfa_offset, -2
$C$DW$235	.dwtag  DW_TAG_TI_branch
	.dwattr $C$DW$235, DW_AT_low_pc(0x00)
	.dwattr $C$DW$235, DW_AT_TI_return

        LRETR     ; [CPU_ALU] 
        ; return occurs ; [] 
	.dwattr $C$DW$232, DW_AT_TI_end_file("C:/ti/ccs1250/ccs/tools/compiler/ti-cgt-c2000_22.6.1.LTS/include/_defs.h")
	.dwattr $C$DW$232, DW_AT_TI_end_line(0x16e)
	.dwattr $C$DW$232, DW_AT_TI_end_column(0x29)
	.dwendentry
	.dwendtag $C$DW$232

	.sect	".text:__signbitl"
	.clink
	.global	||__signbitl||

$C$DW$236	.dwtag  DW_TAG_subprogram
	.dwattr $C$DW$236, DW_AT_name("__signbitl")
	.dwattr $C$DW$236, DW_AT_low_pc(||__signbitl||)
	.dwattr $C$DW$236, DW_AT_high_pc(0x00)
	.dwattr $C$DW$236, DW_AT_linkage_name("__signbitl")
	.dwattr $C$DW$236, DW_AT_external
	.dwattr $C$DW$236, DW_AT_type(*$C$DW$T$10)
	.dwattr $C$DW$236, DW_AT_decl_file("C:/ti/ccs1250/ccs/tools/compiler/ti-cgt-c2000_22.6.1.LTS/include/_defs.h")
	.dwattr $C$DW$236, DW_AT_decl_line(0x16f)
	.dwattr $C$DW$236, DW_AT_decl_column(0x18)
	.dwattr $C$DW$236, DW_AT_TI_max_frame_size(-10)
	.dwpsn	file "C:/ti/ccs1250/ccs/tools/compiler/ti-cgt-c2000_22.6.1.LTS/include/_defs.h",line 368,column 1,is_stmt,address ||__signbitl||,isa 0

	.dwfde $C$DW$CIE, ||__signbitl||
$C$DW$237	.dwtag  DW_TAG_formal_parameter
	.dwattr $C$DW$237, DW_AT_name("e")
	.dwattr $C$DW$237, DW_AT_type(*$C$DW$T$18)
	.dwattr $C$DW$237, DW_AT_location[DW_OP_regx 0x29]


;***************************************************************
;* FNAME: __signbitl                    FR SIZE:   8           *
;*                                                             *
;* FUNCTION ENVIRONMENT                                        *
;*                                                             *
;* FUNCTION PROPERTIES                                         *
;*                            4 Parameter,  4 Auto,  0 SOE     *
;***************************************************************

||__signbitl||:
	.dwcfi	cfa_offset, -2
	.dwcfi	save_reg_to_mem, 26, 0
        ADDB      SP,#8                 ; [CPU_ARAU] 
	.dwcfi	cfa_offset, -10
$C$DW$238	.dwtag  DW_TAG_variable
	.dwattr $C$DW$238, DW_AT_name("e")
	.dwattr $C$DW$238, DW_AT_type(*$C$DW$T$18)
	.dwattr $C$DW$238, DW_AT_location[DW_OP_breg20 -8]

        MOV32     *-SP[8],R0L           ; [CPU_FPU] |368| 
        MOV32     *-SP[6],R0H           ; [CPU_FPU] |368| 
	.dwpsn	file "C:/ti/ccs1250/ccs/tools/compiler/ti-cgt-c2000_22.6.1.LTS/include/_defs.h",line 368,column 3,is_stmt,isa 0
        MOVB      ACC,#0                ; [CPU_ALU] |368| 
        MOVL      *-SP[4],ACC           ; [CPU_ALU] |368| 
        MOV       *-SP[2],#0            ; [CPU_ALU] |368| 
        MOV       *-SP[1],#0            ; [CPU_ALU] |368| 
        MOV32     R0H,*-SP[6]           ; [CPU_FPU] |368| 
        MOV32     R0L,*-SP[8]           ; [CPU_FPU] |368| 
        NOP       ; [CPU_ALU] 
        MOV32     P,R0L                 ; [CPU_FPU] |368| 
        AND       PL,#0                 ; [CPU_ALU] |368| 
        AND       PH,#0                 ; [CPU_ALU] |368| 
        MOV32     ACC,R0H               ; [CPU_FPU] |368| 
        ANDB      AL,#0                 ; [CPU_ALU] |368| 
        AND       AH,#32768             ; [CPU_ALU] |368| 
$C$DW$239	.dwtag  DW_TAG_TI_branch
	.dwattr $C$DW$239, DW_AT_low_pc(0x00)
	.dwattr $C$DW$239, DW_AT_name("__c28xabi_cmpull")
	.dwattr $C$DW$239, DW_AT_TI_call

        LCR       #||__c28xabi_cmpull|| ; [CPU_ALU] |368| 
        ; call occurs [#||__c28xabi_cmpull||] ; [] |368| 
        MOVB      XAR6,#0               ; [CPU_ALU] |368| 
        MOVB      AH,#0                 ; [CPU_ALU] |368| 
        CMPB      AL,#0                 ; [CPU_ALU] |368| 
        B         ||$C$L36||,NEQ        ; [CPU_ALU] |368| 
        ; branchcc occurs ; [] |368| 
        MOVB      AH,#1                 ; [CPU_ALU] |368| 
||$C$L36||:    
        CMPB      AH,#0                 ; [CPU_ALU] |368| 
        B         ||$C$L37||,NEQ        ; [CPU_ALU] |368| 
        ; branchcc occurs ; [] |368| 
        MOVB      XAR6,#1               ; [CPU_ALU] |368| 
||$C$L37||:    
        MOV       AL,AR6                ; [CPU_ALU] |368| 
	.dwpsn	file "C:/ti/ccs1250/ccs/tools/compiler/ti-cgt-c2000_22.6.1.LTS/include/_defs.h",line 368,column 43,is_stmt,isa 0
        SUBB      SP,#8                 ; [CPU_ARAU] 
	.dwcfi	cfa_offset, -2
$C$DW$240	.dwtag  DW_TAG_TI_branch
	.dwattr $C$DW$240, DW_AT_low_pc(0x00)
	.dwattr $C$DW$240, DW_AT_TI_return

        LRETR     ; [CPU_ALU] 
        ; return occurs ; [] 
	.dwattr $C$DW$236, DW_AT_TI_end_file("C:/ti/ccs1250/ccs/tools/compiler/ti-cgt-c2000_22.6.1.LTS/include/_defs.h")
	.dwattr $C$DW$236, DW_AT_TI_end_line(0x170)
	.dwattr $C$DW$236, DW_AT_TI_end_column(0x2b)
	.dwendentry
	.dwendtag $C$DW$236

	.sect	".text:__isinff"
	.clink
	.global	||__isinff||

$C$DW$241	.dwtag  DW_TAG_subprogram
	.dwattr $C$DW$241, DW_AT_name("__isinff")
	.dwattr $C$DW$241, DW_AT_low_pc(||__isinff||)
	.dwattr $C$DW$241, DW_AT_high_pc(0x00)
	.dwattr $C$DW$241, DW_AT_linkage_name("__isinff")
	.dwattr $C$DW$241, DW_AT_external
	.dwattr $C$DW$241, DW_AT_type(*$C$DW$T$10)
	.dwattr $C$DW$241, DW_AT_decl_file("C:/ti/ccs1250/ccs/tools/compiler/ti-cgt-c2000_22.6.1.LTS/include/_defs.h")
	.dwattr $C$DW$241, DW_AT_decl_line(0x176)
	.dwattr $C$DW$241, DW_AT_decl_column(0x18)
	.dwattr $C$DW$241, DW_AT_TI_max_frame_size(-4)
	.dwpsn	file "C:/ti/ccs1250/ccs/tools/compiler/ti-cgt-c2000_22.6.1.LTS/include/_defs.h",line 375,column 1,is_stmt,address ||__isinff||,isa 0

	.dwfde $C$DW$CIE, ||__isinff||
$C$DW$242	.dwtag  DW_TAG_formal_parameter
	.dwattr $C$DW$242, DW_AT_name("f")
	.dwattr $C$DW$242, DW_AT_type(*$C$DW$T$16)
	.dwattr $C$DW$242, DW_AT_location[DW_OP_regx 0x2b]


;***************************************************************
;* FNAME: __isinff                      FR SIZE:   2           *
;*                                                             *
;* FUNCTION ENVIRONMENT                                        *
;*                                                             *
;* FUNCTION PROPERTIES                                         *
;*                            0 Parameter,  2 Auto,  0 SOE     *
;***************************************************************

||__isinff||:
	.dwcfi	cfa_offset, -2
	.dwcfi	save_reg_to_mem, 26, 0
        ADDB      SP,#2                 ; [CPU_ARAU] 
	.dwcfi	cfa_offset, -4
$C$DW$243	.dwtag  DW_TAG_variable
	.dwattr $C$DW$243, DW_AT_name("f")
	.dwattr $C$DW$243, DW_AT_type(*$C$DW$T$16)
	.dwattr $C$DW$243, DW_AT_location[DW_OP_breg20 -2]

        MOV32     *-SP[2],R0H           ; [CPU_FPU] |375| 
	.dwpsn	file "C:/ti/ccs1250/ccs/tools/compiler/ti-cgt-c2000_22.6.1.LTS/include/_defs.h",line 375,column 3,is_stmt,isa 0
        MOVL      ACC,*-SP[2]           ; [CPU_ALU] |375| 
        AND       AH,#0x7f80            ; [CPU_ALU] |375| 
        MOVZ      AR7,AH                ; [CPU_ALU] |375| 
        MOVB      XAR6,#0               ; [CPU_ALU] |375| 
        MOV       ACC,#32640            ; [CPU_ALU] |375| 
        CMPL      ACC,XAR7              ; [CPU_ALU] |375| 
        B         ||$C$L38||,NEQ        ; [CPU_ALU] |375| 
        ; branchcc occurs ; [] |375| 
        MOVL      ACC,*-SP[2]           ; [CPU_ALU] |375| 
        ANDB      AH,#127               ; [CPU_ALU] |375| 
        TEST      ACC                   ; [CPU_ALU] |375| 
        B         ||$C$L38||,NEQ        ; [CPU_ALU] |375| 
        ; branchcc occurs ; [] |375| 
        MOVB      XAR6,#1               ; [CPU_ALU] |375| 
||$C$L38||:    
        MOV       AL,AR6                ; [CPU_ALU] |375| 
	.dwpsn	file "C:/ti/ccs1250/ccs/tools/compiler/ti-cgt-c2000_22.6.1.LTS/include/_defs.h",line 375,column 72,is_stmt,isa 0
        SUBB      SP,#2                 ; [CPU_ARAU] 
	.dwcfi	cfa_offset, -2
$C$DW$244	.dwtag  DW_TAG_TI_branch
	.dwattr $C$DW$244, DW_AT_low_pc(0x00)
	.dwattr $C$DW$244, DW_AT_TI_return

        LRETR     ; [CPU_ALU] 
        ; return occurs ; [] 
	.dwattr $C$DW$241, DW_AT_TI_end_file("C:/ti/ccs1250/ccs/tools/compiler/ti-cgt-c2000_22.6.1.LTS/include/_defs.h")
	.dwattr $C$DW$241, DW_AT_TI_end_line(0x177)
	.dwattr $C$DW$241, DW_AT_TI_end_column(0x48)
	.dwendentry
	.dwendtag $C$DW$241

	.sect	".text:__isinf"
	.clink
	.global	||__isinf||

$C$DW$245	.dwtag  DW_TAG_subprogram
	.dwattr $C$DW$245, DW_AT_name("__isinf")
	.dwattr $C$DW$245, DW_AT_low_pc(||__isinf||)
	.dwattr $C$DW$245, DW_AT_high_pc(0x00)
	.dwattr $C$DW$245, DW_AT_linkage_name("__isinf")
	.dwattr $C$DW$245, DW_AT_external
	.dwattr $C$DW$245, DW_AT_type(*$C$DW$T$10)
	.dwattr $C$DW$245, DW_AT_decl_file("C:/ti/ccs1250/ccs/tools/compiler/ti-cgt-c2000_22.6.1.LTS/include/_defs.h")
	.dwattr $C$DW$245, DW_AT_decl_line(0x178)
	.dwattr $C$DW$245, DW_AT_decl_column(0x18)
	.dwattr $C$DW$245, DW_AT_TI_max_frame_size(-10)
	.dwpsn	file "C:/ti/ccs1250/ccs/tools/compiler/ti-cgt-c2000_22.6.1.LTS/include/_defs.h",line 377,column 1,is_stmt,address ||__isinf||,isa 0

	.dwfde $C$DW$CIE, ||__isinf||
$C$DW$246	.dwtag  DW_TAG_formal_parameter
	.dwattr $C$DW$246, DW_AT_name("d")
	.dwattr $C$DW$246, DW_AT_type(*$C$DW$T$17)
	.dwattr $C$DW$246, DW_AT_location[DW_OP_regx 0x29]


;***************************************************************
;* FNAME: __isinf                       FR SIZE:   8           *
;*                                                             *
;* FUNCTION ENVIRONMENT                                        *
;*                                                             *
;* FUNCTION PROPERTIES                                         *
;*                            4 Parameter,  4 Auto,  0 SOE     *
;***************************************************************

||__isinf||:
	.dwcfi	cfa_offset, -2
	.dwcfi	save_reg_to_mem, 26, 0
        ADDB      SP,#8                 ; [CPU_ARAU] 
	.dwcfi	cfa_offset, -10
$C$DW$247	.dwtag  DW_TAG_variable
	.dwattr $C$DW$247, DW_AT_name("d")
	.dwattr $C$DW$247, DW_AT_type(*$C$DW$T$17)
	.dwattr $C$DW$247, DW_AT_location[DW_OP_breg20 -8]

        MOV32     *-SP[8],R0L           ; [CPU_FPU] |377| 
        MOV32     *-SP[6],R0H           ; [CPU_FPU] |377| 
	.dwpsn	file "C:/ti/ccs1250/ccs/tools/compiler/ti-cgt-c2000_22.6.1.LTS/include/_defs.h",line 377,column 3,is_stmt,isa 0
        MOV       T,#48                 ; [CPU_ALU] |377| 
        MOV32     P,R0L                 ; [CPU_FPU] |377| 
        MOV32     ACC,R0H               ; [CPU_FPU] |377| 
        LSR64     ACC:P,T               ; [CPU_ALU] |377| 
        AND       PL,#0x7ff0            ; [CPU_ALU] |377| 
        MOVZ      AR6,PL                ; [CPU_ALU] |377| 
        MOV       ACC,#32752            ; [CPU_ALU] |377| 
        MOVB      XAR4,#0               ; [CPU_ALU] |377| 
        CMPL      ACC,XAR6              ; [CPU_ALU] |377| 
        B         ||$C$L39||,NEQ        ; [CPU_ALU] |377| 
        ; branchcc occurs ; [] |377| 
        MOVB      ACC,#0                ; [CPU_ALU] |377| 
        MOVL      *-SP[4],ACC           ; [CPU_ALU] |377| 
        MOV       *-SP[2],#0            ; [CPU_ALU] |377| 
        MOV       *-SP[1],#0            ; [CPU_ALU] |377| 
        MOV32     R0H,*-SP[6]           ; [CPU_FPU] |377| 
        MOV32     R0L,*-SP[8]           ; [CPU_FPU] |377| 
        NOP       ; [CPU_ALU] 
        MOV32     P,R0L                 ; [CPU_FPU] |377| 
        AND       PL,#65535             ; [CPU_ALU] |377| 
        AND       PH,#65535             ; [CPU_ALU] |377| 
        MOV32     ACC,R0H               ; [CPU_FPU] |377| 
        AND       AL,#65535             ; [CPU_ALU] |377| 
        ANDB      AH,#15                ; [CPU_ALU] |377| 
$C$DW$248	.dwtag  DW_TAG_TI_branch
	.dwattr $C$DW$248, DW_AT_low_pc(0x00)
	.dwattr $C$DW$248, DW_AT_name("__c28xabi_cmpull")
	.dwattr $C$DW$248, DW_AT_TI_call

        LCR       #||__c28xabi_cmpull|| ; [CPU_ALU] |377| 
        ; call occurs [#||__c28xabi_cmpull||] ; [] |377| 
        CMPB      AL,#0                 ; [CPU_ALU] |377| 
        B         ||$C$L39||,NEQ        ; [CPU_ALU] |377| 
        ; branchcc occurs ; [] |377| 
        MOVB      XAR4,#1               ; [CPU_ALU] |377| 
||$C$L39||:    
        MOV       AL,AR4                ; [CPU_ALU] |377| 
	.dwpsn	file "C:/ti/ccs1250/ccs/tools/compiler/ti-cgt-c2000_22.6.1.LTS/include/_defs.h",line 377,column 74,is_stmt,isa 0
        SUBB      SP,#8                 ; [CPU_ARAU] 
	.dwcfi	cfa_offset, -2
$C$DW$249	.dwtag  DW_TAG_TI_branch
	.dwattr $C$DW$249, DW_AT_low_pc(0x00)
	.dwattr $C$DW$249, DW_AT_TI_return

        LRETR     ; [CPU_ALU] 
        ; return occurs ; [] 
	.dwattr $C$DW$245, DW_AT_TI_end_file("C:/ti/ccs1250/ccs/tools/compiler/ti-cgt-c2000_22.6.1.LTS/include/_defs.h")
	.dwattr $C$DW$245, DW_AT_TI_end_line(0x179)
	.dwattr $C$DW$245, DW_AT_TI_end_column(0x4a)
	.dwendentry
	.dwendtag $C$DW$245

	.sect	".text:__isinfl"
	.clink
	.global	||__isinfl||

$C$DW$250	.dwtag  DW_TAG_subprogram
	.dwattr $C$DW$250, DW_AT_name("__isinfl")
	.dwattr $C$DW$250, DW_AT_low_pc(||__isinfl||)
	.dwattr $C$DW$250, DW_AT_high_pc(0x00)
	.dwattr $C$DW$250, DW_AT_linkage_name("__isinfl")
	.dwattr $C$DW$250, DW_AT_external
	.dwattr $C$DW$250, DW_AT_type(*$C$DW$T$10)
	.dwattr $C$DW$250, DW_AT_decl_file("C:/ti/ccs1250/ccs/tools/compiler/ti-cgt-c2000_22.6.1.LTS/include/_defs.h")
	.dwattr $C$DW$250, DW_AT_decl_line(0x17a)
	.dwattr $C$DW$250, DW_AT_decl_column(0x18)
	.dwattr $C$DW$250, DW_AT_TI_max_frame_size(-10)
	.dwpsn	file "C:/ti/ccs1250/ccs/tools/compiler/ti-cgt-c2000_22.6.1.LTS/include/_defs.h",line 379,column 1,is_stmt,address ||__isinfl||,isa 0

	.dwfde $C$DW$CIE, ||__isinfl||
$C$DW$251	.dwtag  DW_TAG_formal_parameter
	.dwattr $C$DW$251, DW_AT_name("e")
	.dwattr $C$DW$251, DW_AT_type(*$C$DW$T$18)
	.dwattr $C$DW$251, DW_AT_location[DW_OP_regx 0x29]


;***************************************************************
;* FNAME: __isinfl                      FR SIZE:   8           *
;*                                                             *
;* FUNCTION ENVIRONMENT                                        *
;*                                                             *
;* FUNCTION PROPERTIES                                         *
;*                            4 Parameter,  4 Auto,  0 SOE     *
;***************************************************************

||__isinfl||:
	.dwcfi	cfa_offset, -2
	.dwcfi	save_reg_to_mem, 26, 0
        ADDB      SP,#8                 ; [CPU_ARAU] 
	.dwcfi	cfa_offset, -10
$C$DW$252	.dwtag  DW_TAG_variable
	.dwattr $C$DW$252, DW_AT_name("e")
	.dwattr $C$DW$252, DW_AT_type(*$C$DW$T$18)
	.dwattr $C$DW$252, DW_AT_location[DW_OP_breg20 -8]

        MOV32     *-SP[8],R0L           ; [CPU_FPU] |379| 
        MOV32     *-SP[6],R0H           ; [CPU_FPU] |379| 
	.dwpsn	file "C:/ti/ccs1250/ccs/tools/compiler/ti-cgt-c2000_22.6.1.LTS/include/_defs.h",line 379,column 3,is_stmt,isa 0
        MOV       T,#48                 ; [CPU_ALU] |379| 
        MOV32     P,R0L                 ; [CPU_FPU] |379| 
        MOV32     ACC,R0H               ; [CPU_FPU] |379| 
        LSR64     ACC:P,T               ; [CPU_ALU] |379| 
        AND       PL,#0x7ff0            ; [CPU_ALU] |379| 
        MOVZ      AR6,PL                ; [CPU_ALU] |379| 
        MOV       ACC,#32752            ; [CPU_ALU] |379| 
        MOVB      XAR4,#0               ; [CPU_ALU] |379| 
        CMPL      ACC,XAR6              ; [CPU_ALU] |379| 
        B         ||$C$L40||,NEQ        ; [CPU_ALU] |379| 
        ; branchcc occurs ; [] |379| 
        MOVB      ACC,#0                ; [CPU_ALU] |379| 
        MOVL      *-SP[4],ACC           ; [CPU_ALU] |379| 
        MOV       *-SP[2],#0            ; [CPU_ALU] |379| 
        MOV       *-SP[1],#0            ; [CPU_ALU] |379| 
        MOV32     R0H,*-SP[6]           ; [CPU_FPU] |379| 
        MOV32     R0L,*-SP[8]           ; [CPU_FPU] |379| 
        NOP       ; [CPU_ALU] 
        MOV32     P,R0L                 ; [CPU_FPU] |379| 
        AND       PL,#65535             ; [CPU_ALU] |379| 
        AND       PH,#65535             ; [CPU_ALU] |379| 
        MOV32     ACC,R0H               ; [CPU_FPU] |379| 
        AND       AL,#65535             ; [CPU_ALU] |379| 
        ANDB      AH,#15                ; [CPU_ALU] |379| 
$C$DW$253	.dwtag  DW_TAG_TI_branch
	.dwattr $C$DW$253, DW_AT_low_pc(0x00)
	.dwattr $C$DW$253, DW_AT_name("__c28xabi_cmpull")
	.dwattr $C$DW$253, DW_AT_TI_call

        LCR       #||__c28xabi_cmpull|| ; [CPU_ALU] |379| 
        ; call occurs [#||__c28xabi_cmpull||] ; [] |379| 
        CMPB      AL,#0                 ; [CPU_ALU] |379| 
        B         ||$C$L40||,NEQ        ; [CPU_ALU] |379| 
        ; branchcc occurs ; [] |379| 
        MOVB      XAR4,#1               ; [CPU_ALU] |379| 
||$C$L40||:    
        MOV       AL,AR4                ; [CPU_ALU] |379| 
	.dwpsn	file "C:/ti/ccs1250/ccs/tools/compiler/ti-cgt-c2000_22.6.1.LTS/include/_defs.h",line 379,column 76,is_stmt,isa 0
        SUBB      SP,#8                 ; [CPU_ARAU] 
	.dwcfi	cfa_offset, -2
$C$DW$254	.dwtag  DW_TAG_TI_branch
	.dwattr $C$DW$254, DW_AT_low_pc(0x00)
	.dwattr $C$DW$254, DW_AT_TI_return

        LRETR     ; [CPU_ALU] 
        ; return occurs ; [] 
	.dwattr $C$DW$250, DW_AT_TI_end_file("C:/ti/ccs1250/ccs/tools/compiler/ti-cgt-c2000_22.6.1.LTS/include/_defs.h")
	.dwattr $C$DW$250, DW_AT_TI_end_line(0x17b)
	.dwattr $C$DW$250, DW_AT_TI_end_column(0x4c)
	.dwendentry
	.dwendtag $C$DW$250

	.sect	".text:__fpclassifyf"
	.clink
	.global	||__fpclassifyf||

$C$DW$255	.dwtag  DW_TAG_subprogram
	.dwattr $C$DW$255, DW_AT_name("__fpclassifyf")
	.dwattr $C$DW$255, DW_AT_low_pc(||__fpclassifyf||)
	.dwattr $C$DW$255, DW_AT_high_pc(0x00)
	.dwattr $C$DW$255, DW_AT_linkage_name("__fpclassifyf")
	.dwattr $C$DW$255, DW_AT_external
	.dwattr $C$DW$255, DW_AT_type(*$C$DW$T$10)
	.dwattr $C$DW$255, DW_AT_decl_file("C:/ti/ccs1250/ccs/tools/compiler/ti-cgt-c2000_22.6.1.LTS/include/_defs.h")
	.dwattr $C$DW$255, DW_AT_decl_line(0x18c)
	.dwattr $C$DW$255, DW_AT_decl_column(0x18)
	.dwattr $C$DW$255, DW_AT_TI_max_frame_size(-4)
	.dwpsn	file "C:/ti/ccs1250/ccs/tools/compiler/ti-cgt-c2000_22.6.1.LTS/include/_defs.h",line 397,column 1,is_stmt,address ||__fpclassifyf||,isa 0

	.dwfde $C$DW$CIE, ||__fpclassifyf||
$C$DW$256	.dwtag  DW_TAG_formal_parameter
	.dwattr $C$DW$256, DW_AT_name("f")
	.dwattr $C$DW$256, DW_AT_type(*$C$DW$T$16)
	.dwattr $C$DW$256, DW_AT_location[DW_OP_regx 0x2b]


;***************************************************************
;* FNAME: __fpclassifyf                 FR SIZE:   2           *
;*                                                             *
;* FUNCTION ENVIRONMENT                                        *
;*                                                             *
;* FUNCTION PROPERTIES                                         *
;*                            0 Parameter,  2 Auto,  0 SOE     *
;***************************************************************

||__fpclassifyf||:
	.dwcfi	cfa_offset, -2
	.dwcfi	save_reg_to_mem, 26, 0
        ADDB      SP,#2                 ; [CPU_ARAU] 
	.dwcfi	cfa_offset, -4
$C$DW$257	.dwtag  DW_TAG_variable
	.dwattr $C$DW$257, DW_AT_name("f")
	.dwattr $C$DW$257, DW_AT_type(*$C$DW$T$16)
	.dwattr $C$DW$257, DW_AT_location[DW_OP_breg20 -2]

        MOV32     *-SP[2],R0H           ; [CPU_FPU] |397| 
	.dwpsn	file "C:/ti/ccs1250/ccs/tools/compiler/ti-cgt-c2000_22.6.1.LTS/include/_defs.h",line 398,column 5,is_stmt,isa 0
        MOVL      ACC,*-SP[2]           ; [CPU_ALU] |398| 
        AND       AH,#0x7f80            ; [CPU_ALU] |398| 
        MOVZ      AR6,AH                ; [CPU_ALU] |398| 
        MOV       ACC,#32640            ; [CPU_ALU] |398| 
        CMPL      ACC,XAR6              ; [CPU_ALU] |398| 
        B         ||$C$L42||,NEQ        ; [CPU_ALU] |398| 
        ; branchcc occurs ; [] |398| 
	.dwpsn	file "C:/ti/ccs1250/ccs/tools/compiler/ti-cgt-c2000_22.6.1.LTS/include/_defs.h",line 400,column 9,is_stmt,isa 0
        MOVL      ACC,*-SP[2]           ; [CPU_ALU] |400| 
        ANDB      AH,#127               ; [CPU_ALU] |400| 
        TEST      ACC                   ; [CPU_ALU] |400| 
        B         ||$C$L41||,NEQ        ; [CPU_ALU] |400| 
        ; branchcc occurs ; [] |400| 
	.dwpsn	file "C:/ti/ccs1250/ccs/tools/compiler/ti-cgt-c2000_22.6.1.LTS/include/_defs.h",line 401,column 13,is_stmt,isa 0
        MOVB      AL,#1                 ; [CPU_ALU] |401| 
        B         ||$C$L45||,UNC        ; [CPU_ALU] |401| 
        ; branch occurs ; [] |401| 
||$C$L41||:    
	.dwpsn	file "C:/ti/ccs1250/ccs/tools/compiler/ti-cgt-c2000_22.6.1.LTS/include/_defs.h",line 402,column 14,is_stmt,isa 0
        MOVB      AL,#2                 ; [CPU_ALU] |402| 
        B         ||$C$L45||,UNC        ; [CPU_ALU] |402| 
        ; branch occurs ; [] |402| 
||$C$L42||:    
	.dwpsn	file "C:/ti/ccs1250/ccs/tools/compiler/ti-cgt-c2000_22.6.1.LTS/include/_defs.h",line 404,column 5,is_stmt,isa 0
        MOVL      ACC,*-SP[2]           ; [CPU_ALU] |404| 
        MOV       T,#23                 ; [CPU_ALU] |404| 
        LSRL      ACC,T                 ; [CPU_ALU] |404| 
        ANDB      AL,#0xff              ; [CPU_ALU] |404| 
        B         ||$C$L44||,NEQ        ; [CPU_ALU] |404| 
        ; branchcc occurs ; [] |404| 
	.dwpsn	file "C:/ti/ccs1250/ccs/tools/compiler/ti-cgt-c2000_22.6.1.LTS/include/_defs.h",line 406,column 9,is_stmt,isa 0
        MOVL      ACC,*-SP[2]           ; [CPU_ALU] |406| 
        ANDB      AH,#127               ; [CPU_ALU] |406| 
        TEST      ACC                   ; [CPU_ALU] |406| 
        B         ||$C$L43||,NEQ        ; [CPU_ALU] |406| 
        ; branchcc occurs ; [] |406| 
	.dwpsn	file "C:/ti/ccs1250/ccs/tools/compiler/ti-cgt-c2000_22.6.1.LTS/include/_defs.h",line 407,column 13,is_stmt,isa 0
        MOVB      AL,#0                 ; [CPU_ALU] |407| 
        B         ||$C$L45||,UNC        ; [CPU_ALU] |407| 
        ; branch occurs ; [] |407| 
||$C$L43||:    
	.dwpsn	file "C:/ti/ccs1250/ccs/tools/compiler/ti-cgt-c2000_22.6.1.LTS/include/_defs.h",line 408,column 14,is_stmt,isa 0
        MOV       AL,#-2                ; [CPU_ALU] |408| 
        B         ||$C$L45||,UNC        ; [CPU_ALU] |408| 
        ; branch occurs ; [] |408| 
||$C$L44||:    
	.dwpsn	file "C:/ti/ccs1250/ccs/tools/compiler/ti-cgt-c2000_22.6.1.LTS/include/_defs.h",line 410,column 5,is_stmt,isa 0
        MOV       AL,#-1                ; [CPU_ALU] |410| 
||$C$L45||:    
	.dwpsn	file "C:/ti/ccs1250/ccs/tools/compiler/ti-cgt-c2000_22.6.1.LTS/include/_defs.h",line 411,column 1,is_stmt,isa 0
        SUBB      SP,#2                 ; [CPU_ARAU] 
	.dwcfi	cfa_offset, -2
$C$DW$258	.dwtag  DW_TAG_TI_branch
	.dwattr $C$DW$258, DW_AT_low_pc(0x00)
	.dwattr $C$DW$258, DW_AT_TI_return

        LRETR     ; [CPU_ALU] 
        ; return occurs ; [] 
	.dwattr $C$DW$255, DW_AT_TI_end_file("C:/ti/ccs1250/ccs/tools/compiler/ti-cgt-c2000_22.6.1.LTS/include/_defs.h")
	.dwattr $C$DW$255, DW_AT_TI_end_line(0x19b)
	.dwattr $C$DW$255, DW_AT_TI_end_column(0x01)
	.dwendentry
	.dwendtag $C$DW$255

	.sect	".text:__fpclassify"
	.clink
	.global	||__fpclassify||

$C$DW$259	.dwtag  DW_TAG_subprogram
	.dwattr $C$DW$259, DW_AT_name("__fpclassify")
	.dwattr $C$DW$259, DW_AT_low_pc(||__fpclassify||)
	.dwattr $C$DW$259, DW_AT_high_pc(0x00)
	.dwattr $C$DW$259, DW_AT_linkage_name("__fpclassify")
	.dwattr $C$DW$259, DW_AT_external
	.dwattr $C$DW$259, DW_AT_type(*$C$DW$T$10)
	.dwattr $C$DW$259, DW_AT_decl_file("C:/ti/ccs1250/ccs/tools/compiler/ti-cgt-c2000_22.6.1.LTS/include/_defs.h")
	.dwattr $C$DW$259, DW_AT_decl_line(0x19d)
	.dwattr $C$DW$259, DW_AT_decl_column(0x18)
	.dwattr $C$DW$259, DW_AT_TI_max_frame_size(-10)
	.dwpsn	file "C:/ti/ccs1250/ccs/tools/compiler/ti-cgt-c2000_22.6.1.LTS/include/_defs.h",line 414,column 1,is_stmt,address ||__fpclassify||,isa 0

	.dwfde $C$DW$CIE, ||__fpclassify||
$C$DW$260	.dwtag  DW_TAG_formal_parameter
	.dwattr $C$DW$260, DW_AT_name("d")
	.dwattr $C$DW$260, DW_AT_type(*$C$DW$T$17)
	.dwattr $C$DW$260, DW_AT_location[DW_OP_regx 0x29]


;***************************************************************
;* FNAME: __fpclassify                  FR SIZE:   8           *
;*                                                             *
;* FUNCTION ENVIRONMENT                                        *
;*                                                             *
;* FUNCTION PROPERTIES                                         *
;*                            4 Parameter,  4 Auto,  0 SOE     *
;***************************************************************

||__fpclassify||:
	.dwcfi	cfa_offset, -2
	.dwcfi	save_reg_to_mem, 26, 0
        ADDB      SP,#8                 ; [CPU_ARAU] 
	.dwcfi	cfa_offset, -10
$C$DW$261	.dwtag  DW_TAG_variable
	.dwattr $C$DW$261, DW_AT_name("d")
	.dwattr $C$DW$261, DW_AT_type(*$C$DW$T$17)
	.dwattr $C$DW$261, DW_AT_location[DW_OP_breg20 -8]

        MOV32     *-SP[8],R0L           ; [CPU_FPU] |414| 
        MOV32     *-SP[6],R0H           ; [CPU_FPU] |414| 
	.dwpsn	file "C:/ti/ccs1250/ccs/tools/compiler/ti-cgt-c2000_22.6.1.LTS/include/_defs.h",line 415,column 5,is_stmt,isa 0
        MOV       T,#48                 ; [CPU_ALU] |415| 
        MOV32     P,R0L                 ; [CPU_FPU] |415| 
        MOV32     ACC,R0H               ; [CPU_FPU] |415| 
        LSR64     ACC:P,T               ; [CPU_ALU] |415| 
        AND       PL,#0x7ff0            ; [CPU_ALU] |415| 
        MOVZ      AR6,PL                ; [CPU_ALU] |415| 
        MOV       ACC,#32752            ; [CPU_ALU] |415| 
        CMPL      ACC,XAR6              ; [CPU_ALU] |415| 
        B         ||$C$L47||,NEQ        ; [CPU_ALU] |415| 
        ; branchcc occurs ; [] |415| 
	.dwpsn	file "C:/ti/ccs1250/ccs/tools/compiler/ti-cgt-c2000_22.6.1.LTS/include/_defs.h",line 417,column 9,is_stmt,isa 0
        MOVB      ACC,#0                ; [CPU_ALU] |417| 
        MOVL      *-SP[4],ACC           ; [CPU_ALU] |417| 
        MOV       *-SP[2],#0            ; [CPU_ALU] |417| 
        MOV       *-SP[1],#0            ; [CPU_ALU] |417| 
        MOV32     R0H,*-SP[6]           ; [CPU_FPU] |417| 
        MOV32     R0L,*-SP[8]           ; [CPU_FPU] |417| 
        NOP       ; [CPU_ALU] 
        MOV32     P,R0L                 ; [CPU_FPU] |417| 
        AND       PL,#65535             ; [CPU_ALU] |417| 
        AND       PH,#65535             ; [CPU_ALU] |417| 
        MOV32     ACC,R0H               ; [CPU_FPU] |417| 
        AND       AL,#65535             ; [CPU_ALU] |417| 
        ANDB      AH,#15                ; [CPU_ALU] |417| 
$C$DW$262	.dwtag  DW_TAG_TI_branch
	.dwattr $C$DW$262, DW_AT_low_pc(0x00)
	.dwattr $C$DW$262, DW_AT_name("__c28xabi_cmpull")
	.dwattr $C$DW$262, DW_AT_TI_call

        LCR       #||__c28xabi_cmpull|| ; [CPU_ALU] |417| 
        ; call occurs [#||__c28xabi_cmpull||] ; [] |417| 
        CMPB      AL,#0                 ; [CPU_ALU] |417| 
        B         ||$C$L46||,NEQ        ; [CPU_ALU] |417| 
        ; branchcc occurs ; [] |417| 
	.dwpsn	file "C:/ti/ccs1250/ccs/tools/compiler/ti-cgt-c2000_22.6.1.LTS/include/_defs.h",line 418,column 13,is_stmt,isa 0
        MOVB      AL,#1                 ; [CPU_ALU] |418| 
        B         ||$C$L50||,UNC        ; [CPU_ALU] |418| 
        ; branch occurs ; [] |418| 
||$C$L46||:    
	.dwpsn	file "C:/ti/ccs1250/ccs/tools/compiler/ti-cgt-c2000_22.6.1.LTS/include/_defs.h",line 419,column 14,is_stmt,isa 0
        MOVB      AL,#2                 ; [CPU_ALU] |419| 
        B         ||$C$L50||,UNC        ; [CPU_ALU] |419| 
        ; branch occurs ; [] |419| 
||$C$L47||:    
	.dwpsn	file "C:/ti/ccs1250/ccs/tools/compiler/ti-cgt-c2000_22.6.1.LTS/include/_defs.h",line 421,column 5,is_stmt,isa 0
        MOVB      ACC,#0                ; [CPU_ALU] |421| 
        MOVL      *-SP[4],ACC           ; [CPU_ALU] |421| 
        MOV       *-SP[2],#0            ; [CPU_ALU] |421| 
        MOV       *-SP[1],#0            ; [CPU_ALU] |421| 
        MOV32     R0H,*-SP[6]           ; [CPU_FPU] |421| 
        MOV32     R0L,*-SP[8]           ; [CPU_FPU] |421| 
        MOV       T,#52                 ; [CPU_ALU] |421| 
        MOV32     P,R0L                 ; [CPU_FPU] |421| 
        MOV32     ACC,R0H               ; [CPU_FPU] |421| 
        LSR64     ACC:P,T               ; [CPU_ALU] |421| 
        ANDB      AL,#0                 ; [CPU_ALU] |421| 
        ANDB      AH,#0                 ; [CPU_ALU] |421| 
        AND       PL,#2047              ; [CPU_ALU] |421| 
        AND       PH,#0                 ; [CPU_ALU] |421| 
$C$DW$263	.dwtag  DW_TAG_TI_branch
	.dwattr $C$DW$263, DW_AT_low_pc(0x00)
	.dwattr $C$DW$263, DW_AT_name("__c28xabi_cmpull")
	.dwattr $C$DW$263, DW_AT_TI_call

        LCR       #||__c28xabi_cmpull|| ; [CPU_ALU] |421| 
        ; call occurs [#||__c28xabi_cmpull||] ; [] |421| 
        CMPB      AL,#0                 ; [CPU_ALU] |421| 
        B         ||$C$L49||,NEQ        ; [CPU_ALU] |421| 
        ; branchcc occurs ; [] |421| 
	.dwpsn	file "C:/ti/ccs1250/ccs/tools/compiler/ti-cgt-c2000_22.6.1.LTS/include/_defs.h",line 423,column 9,is_stmt,isa 0
        MOVB      ACC,#0                ; [CPU_ALU] |423| 
        MOVL      *-SP[4],ACC           ; [CPU_ALU] |423| 
        MOV       *-SP[2],#0            ; [CPU_ALU] |423| 
        MOV       *-SP[1],#0            ; [CPU_ALU] |423| 
        MOV32     R0H,*-SP[6]           ; [CPU_FPU] |423| 
        MOV32     R0L,*-SP[8]           ; [CPU_FPU] |423| 
        NOP       ; [CPU_ALU] 
        MOV32     P,R0L                 ; [CPU_FPU] |423| 
        AND       PL,#65535             ; [CPU_ALU] |423| 
        AND       PH,#65535             ; [CPU_ALU] |423| 
        MOV32     ACC,R0H               ; [CPU_FPU] |423| 
        AND       AL,#65535             ; [CPU_ALU] |423| 
        ANDB      AH,#15                ; [CPU_ALU] |423| 
$C$DW$264	.dwtag  DW_TAG_TI_branch
	.dwattr $C$DW$264, DW_AT_low_pc(0x00)
	.dwattr $C$DW$264, DW_AT_name("__c28xabi_cmpull")
	.dwattr $C$DW$264, DW_AT_TI_call

        LCR       #||__c28xabi_cmpull|| ; [CPU_ALU] |423| 
        ; call occurs [#||__c28xabi_cmpull||] ; [] |423| 
        CMPB      AL,#0                 ; [CPU_ALU] |423| 
        B         ||$C$L48||,NEQ        ; [CPU_ALU] |423| 
        ; branchcc occurs ; [] |423| 
	.dwpsn	file "C:/ti/ccs1250/ccs/tools/compiler/ti-cgt-c2000_22.6.1.LTS/include/_defs.h",line 424,column 13,is_stmt,isa 0
        MOVB      AL,#0                 ; [CPU_ALU] |424| 
        B         ||$C$L50||,UNC        ; [CPU_ALU] |424| 
        ; branch occurs ; [] |424| 
||$C$L48||:    
	.dwpsn	file "C:/ti/ccs1250/ccs/tools/compiler/ti-cgt-c2000_22.6.1.LTS/include/_defs.h",line 425,column 14,is_stmt,isa 0
        MOV       AL,#-2                ; [CPU_ALU] |425| 
        B         ||$C$L50||,UNC        ; [CPU_ALU] |425| 
        ; branch occurs ; [] |425| 
||$C$L49||:    
	.dwpsn	file "C:/ti/ccs1250/ccs/tools/compiler/ti-cgt-c2000_22.6.1.LTS/include/_defs.h",line 427,column 5,is_stmt,isa 0
        MOV       AL,#-1                ; [CPU_ALU] |427| 
||$C$L50||:    
	.dwpsn	file "C:/ti/ccs1250/ccs/tools/compiler/ti-cgt-c2000_22.6.1.LTS/include/_defs.h",line 428,column 1,is_stmt,isa 0
        SUBB      SP,#8                 ; [CPU_ARAU] 
	.dwcfi	cfa_offset, -2
$C$DW$265	.dwtag  DW_TAG_TI_branch
	.dwattr $C$DW$265, DW_AT_low_pc(0x00)
	.dwattr $C$DW$265, DW_AT_TI_return

        LRETR     ; [CPU_ALU] 
        ; return occurs ; [] 
	.dwattr $C$DW$259, DW_AT_TI_end_file("C:/ti/ccs1250/ccs/tools/compiler/ti-cgt-c2000_22.6.1.LTS/include/_defs.h")
	.dwattr $C$DW$259, DW_AT_TI_end_line(0x1ac)
	.dwattr $C$DW$259, DW_AT_TI_end_column(0x01)
	.dwendentry
	.dwendtag $C$DW$259

	.sect	".text:__fpclassifyl"
	.clink
	.global	||__fpclassifyl||

$C$DW$266	.dwtag  DW_TAG_subprogram
	.dwattr $C$DW$266, DW_AT_name("__fpclassifyl")
	.dwattr $C$DW$266, DW_AT_low_pc(||__fpclassifyl||)
	.dwattr $C$DW$266, DW_AT_high_pc(0x00)
	.dwattr $C$DW$266, DW_AT_linkage_name("__fpclassifyl")
	.dwattr $C$DW$266, DW_AT_external
	.dwattr $C$DW$266, DW_AT_type(*$C$DW$T$10)
	.dwattr $C$DW$266, DW_AT_decl_file("C:/ti/ccs1250/ccs/tools/compiler/ti-cgt-c2000_22.6.1.LTS/include/_defs.h")
	.dwattr $C$DW$266, DW_AT_decl_line(0x1ae)
	.dwattr $C$DW$266, DW_AT_decl_column(0x18)
	.dwattr $C$DW$266, DW_AT_TI_max_frame_size(-10)
	.dwpsn	file "C:/ti/ccs1250/ccs/tools/compiler/ti-cgt-c2000_22.6.1.LTS/include/_defs.h",line 431,column 1,is_stmt,address ||__fpclassifyl||,isa 0

	.dwfde $C$DW$CIE, ||__fpclassifyl||
$C$DW$267	.dwtag  DW_TAG_formal_parameter
	.dwattr $C$DW$267, DW_AT_name("e")
	.dwattr $C$DW$267, DW_AT_type(*$C$DW$T$18)
	.dwattr $C$DW$267, DW_AT_location[DW_OP_regx 0x29]


;***************************************************************
;* FNAME: __fpclassifyl                 FR SIZE:   8           *
;*                                                             *
;* FUNCTION ENVIRONMENT                                        *
;*                                                             *
;* FUNCTION PROPERTIES                                         *
;*                            4 Parameter,  4 Auto,  0 SOE     *
;***************************************************************

||__fpclassifyl||:
	.dwcfi	cfa_offset, -2
	.dwcfi	save_reg_to_mem, 26, 0
        ADDB      SP,#8                 ; [CPU_ARAU] 
	.dwcfi	cfa_offset, -10
$C$DW$268	.dwtag  DW_TAG_variable
	.dwattr $C$DW$268, DW_AT_name("e")
	.dwattr $C$DW$268, DW_AT_type(*$C$DW$T$18)
	.dwattr $C$DW$268, DW_AT_location[DW_OP_breg20 -8]

        MOV32     *-SP[8],R0L           ; [CPU_FPU] |431| 
        MOV32     *-SP[6],R0H           ; [CPU_FPU] |431| 
	.dwpsn	file "C:/ti/ccs1250/ccs/tools/compiler/ti-cgt-c2000_22.6.1.LTS/include/_defs.h",line 432,column 5,is_stmt,isa 0
        MOV       T,#48                 ; [CPU_ALU] |432| 
        MOV32     P,R0L                 ; [CPU_FPU] |432| 
        MOV32     ACC,R0H               ; [CPU_FPU] |432| 
        LSR64     ACC:P,T               ; [CPU_ALU] |432| 
        AND       PL,#0x7ff0            ; [CPU_ALU] |432| 
        MOVZ      AR6,PL                ; [CPU_ALU] |432| 
        MOV       ACC,#32752            ; [CPU_ALU] |432| 
        CMPL      ACC,XAR6              ; [CPU_ALU] |432| 
        B         ||$C$L52||,NEQ        ; [CPU_ALU] |432| 
        ; branchcc occurs ; [] |432| 
	.dwpsn	file "C:/ti/ccs1250/ccs/tools/compiler/ti-cgt-c2000_22.6.1.LTS/include/_defs.h",line 434,column 9,is_stmt,isa 0
        MOVB      ACC,#0                ; [CPU_ALU] |434| 
        MOVL      *-SP[4],ACC           ; [CPU_ALU] |434| 
        MOV       *-SP[2],#0            ; [CPU_ALU] |434| 
        MOV       *-SP[1],#0            ; [CPU_ALU] |434| 
        MOV32     R0H,*-SP[6]           ; [CPU_FPU] |434| 
        MOV32     R0L,*-SP[8]           ; [CPU_FPU] |434| 
        NOP       ; [CPU_ALU] 
        MOV32     P,R0L                 ; [CPU_FPU] |434| 
        AND       PL,#65535             ; [CPU_ALU] |434| 
        AND       PH,#65535             ; [CPU_ALU] |434| 
        MOV32     ACC,R0H               ; [CPU_FPU] |434| 
        AND       AL,#65535             ; [CPU_ALU] |434| 
        ANDB      AH,#15                ; [CPU_ALU] |434| 
$C$DW$269	.dwtag  DW_TAG_TI_branch
	.dwattr $C$DW$269, DW_AT_low_pc(0x00)
	.dwattr $C$DW$269, DW_AT_name("__c28xabi_cmpull")
	.dwattr $C$DW$269, DW_AT_TI_call

        LCR       #||__c28xabi_cmpull|| ; [CPU_ALU] |434| 
        ; call occurs [#||__c28xabi_cmpull||] ; [] |434| 
        CMPB      AL,#0                 ; [CPU_ALU] |434| 
        B         ||$C$L51||,NEQ        ; [CPU_ALU] |434| 
        ; branchcc occurs ; [] |434| 
	.dwpsn	file "C:/ti/ccs1250/ccs/tools/compiler/ti-cgt-c2000_22.6.1.LTS/include/_defs.h",line 435,column 13,is_stmt,isa 0
        MOVB      AL,#1                 ; [CPU_ALU] |435| 
        B         ||$C$L55||,UNC        ; [CPU_ALU] |435| 
        ; branch occurs ; [] |435| 
||$C$L51||:    
	.dwpsn	file "C:/ti/ccs1250/ccs/tools/compiler/ti-cgt-c2000_22.6.1.LTS/include/_defs.h",line 436,column 14,is_stmt,isa 0
        MOVB      AL,#2                 ; [CPU_ALU] |436| 
        B         ||$C$L55||,UNC        ; [CPU_ALU] |436| 
        ; branch occurs ; [] |436| 
||$C$L52||:    
	.dwpsn	file "C:/ti/ccs1250/ccs/tools/compiler/ti-cgt-c2000_22.6.1.LTS/include/_defs.h",line 438,column 5,is_stmt,isa 0
        MOVB      ACC,#0                ; [CPU_ALU] |438| 
        MOVL      *-SP[4],ACC           ; [CPU_ALU] |438| 
        MOV       *-SP[2],#0            ; [CPU_ALU] |438| 
        MOV       *-SP[1],#0            ; [CPU_ALU] |438| 
        MOV32     R0H,*-SP[6]           ; [CPU_FPU] |438| 
        MOV32     R0L,*-SP[8]           ; [CPU_FPU] |438| 
        MOV       T,#52                 ; [CPU_ALU] |438| 
        MOV32     P,R0L                 ; [CPU_FPU] |438| 
        MOV32     ACC,R0H               ; [CPU_FPU] |438| 
        LSR64     ACC:P,T               ; [CPU_ALU] |438| 
        ANDB      AL,#0                 ; [CPU_ALU] |438| 
        ANDB      AH,#0                 ; [CPU_ALU] |438| 
        AND       PL,#2047              ; [CPU_ALU] |438| 
        AND       PH,#0                 ; [CPU_ALU] |438| 
$C$DW$270	.dwtag  DW_TAG_TI_branch
	.dwattr $C$DW$270, DW_AT_low_pc(0x00)
	.dwattr $C$DW$270, DW_AT_name("__c28xabi_cmpull")
	.dwattr $C$DW$270, DW_AT_TI_call

        LCR       #||__c28xabi_cmpull|| ; [CPU_ALU] |438| 
        ; call occurs [#||__c28xabi_cmpull||] ; [] |438| 
        CMPB      AL,#0                 ; [CPU_ALU] |438| 
        B         ||$C$L54||,NEQ        ; [CPU_ALU] |438| 
        ; branchcc occurs ; [] |438| 
	.dwpsn	file "C:/ti/ccs1250/ccs/tools/compiler/ti-cgt-c2000_22.6.1.LTS/include/_defs.h",line 440,column 9,is_stmt,isa 0
        MOVB      ACC,#0                ; [CPU_ALU] |440| 
        MOVL      *-SP[4],ACC           ; [CPU_ALU] |440| 
        MOV       *-SP[2],#0            ; [CPU_ALU] |440| 
        MOV       *-SP[1],#0            ; [CPU_ALU] |440| 
        MOV32     R0H,*-SP[6]           ; [CPU_FPU] |440| 
        MOV32     R0L,*-SP[8]           ; [CPU_FPU] |440| 
        NOP       ; [CPU_ALU] 
        MOV32     P,R0L                 ; [CPU_FPU] |440| 
        AND       PL,#65535             ; [CPU_ALU] |440| 
        AND       PH,#65535             ; [CPU_ALU] |440| 
        MOV32     ACC,R0H               ; [CPU_FPU] |440| 
        AND       AL,#65535             ; [CPU_ALU] |440| 
        ANDB      AH,#15                ; [CPU_ALU] |440| 
$C$DW$271	.dwtag  DW_TAG_TI_branch
	.dwattr $C$DW$271, DW_AT_low_pc(0x00)
	.dwattr $C$DW$271, DW_AT_name("__c28xabi_cmpull")
	.dwattr $C$DW$271, DW_AT_TI_call

        LCR       #||__c28xabi_cmpull|| ; [CPU_ALU] |440| 
        ; call occurs [#||__c28xabi_cmpull||] ; [] |440| 
        CMPB      AL,#0                 ; [CPU_ALU] |440| 
        B         ||$C$L53||,NEQ        ; [CPU_ALU] |440| 
        ; branchcc occurs ; [] |440| 
	.dwpsn	file "C:/ti/ccs1250/ccs/tools/compiler/ti-cgt-c2000_22.6.1.LTS/include/_defs.h",line 441,column 13,is_stmt,isa 0
        MOVB      AL,#0                 ; [CPU_ALU] |441| 
        B         ||$C$L55||,UNC        ; [CPU_ALU] |441| 
        ; branch occurs ; [] |441| 
||$C$L53||:    
	.dwpsn	file "C:/ti/ccs1250/ccs/tools/compiler/ti-cgt-c2000_22.6.1.LTS/include/_defs.h",line 442,column 14,is_stmt,isa 0
        MOV       AL,#-2                ; [CPU_ALU] |442| 
        B         ||$C$L55||,UNC        ; [CPU_ALU] |442| 
        ; branch occurs ; [] |442| 
||$C$L54||:    
	.dwpsn	file "C:/ti/ccs1250/ccs/tools/compiler/ti-cgt-c2000_22.6.1.LTS/include/_defs.h",line 444,column 5,is_stmt,isa 0
        MOV       AL,#-1                ; [CPU_ALU] |444| 
||$C$L55||:    
	.dwpsn	file "C:/ti/ccs1250/ccs/tools/compiler/ti-cgt-c2000_22.6.1.LTS/include/_defs.h",line 445,column 1,is_stmt,isa 0
        SUBB      SP,#8                 ; [CPU_ARAU] 
	.dwcfi	cfa_offset, -2
$C$DW$272	.dwtag  DW_TAG_TI_branch
	.dwattr $C$DW$272, DW_AT_low_pc(0x00)
	.dwattr $C$DW$272, DW_AT_TI_return

        LRETR     ; [CPU_ALU] 
        ; return occurs ; [] 
	.dwattr $C$DW$266, DW_AT_TI_end_file("C:/ti/ccs1250/ccs/tools/compiler/ti-cgt-c2000_22.6.1.LTS/include/_defs.h")
	.dwattr $C$DW$266, DW_AT_TI_end_line(0x1bd)
	.dwattr $C$DW$266, DW_AT_TI_end_column(0x01)
	.dwendentry
	.dwendtag $C$DW$266

	.sect	".text:__relaxed_fmaxf"
	.clink
	.global	||__relaxed_fmaxf||

$C$DW$273	.dwtag  DW_TAG_subprogram
	.dwattr $C$DW$273, DW_AT_name("__relaxed_fmaxf")
	.dwattr $C$DW$273, DW_AT_low_pc(||__relaxed_fmaxf||)
	.dwattr $C$DW$273, DW_AT_high_pc(0x00)
	.dwattr $C$DW$273, DW_AT_linkage_name("__relaxed_fmaxf")
	.dwattr $C$DW$273, DW_AT_external
	.dwattr $C$DW$273, DW_AT_type(*$C$DW$T$16)
	.dwattr $C$DW$273, DW_AT_decl_file("C:/ti/ccs1250/ccs/tools/compiler/ti-cgt-c2000_22.6.1.LTS/include/math.h")
	.dwattr $C$DW$273, DW_AT_decl_line(0xe8)
	.dwattr $C$DW$273, DW_AT_decl_column(0x10)
	.dwattr $C$DW$273, DW_AT_TI_max_frame_size(-6)
	.dwpsn	file "C:/ti/ccs1250/ccs/tools/compiler/ti-cgt-c2000_22.6.1.LTS/include/math.h",line 233,column 1,is_stmt,address ||__relaxed_fmaxf||,isa 0

	.dwfde $C$DW$CIE, ||__relaxed_fmaxf||
$C$DW$274	.dwtag  DW_TAG_formal_parameter
	.dwattr $C$DW$274, DW_AT_name("x")
	.dwattr $C$DW$274, DW_AT_type(*$C$DW$T$16)
	.dwattr $C$DW$274, DW_AT_location[DW_OP_regx 0x2b]

$C$DW$275	.dwtag  DW_TAG_formal_parameter
	.dwattr $C$DW$275, DW_AT_name("y")
	.dwattr $C$DW$275, DW_AT_type(*$C$DW$T$16)
	.dwattr $C$DW$275, DW_AT_location[DW_OP_regx 0x2f]


;***************************************************************
;* FNAME: __relaxed_fmaxf               FR SIZE:   4           *
;*                                                             *
;* FUNCTION ENVIRONMENT                                        *
;*                                                             *
;* FUNCTION PROPERTIES                                         *
;*                            0 Parameter,  4 Auto,  0 SOE     *
;***************************************************************

||__relaxed_fmaxf||:
	.dwcfi	cfa_offset, -2
	.dwcfi	save_reg_to_mem, 26, 0
        ADDB      SP,#4                 ; [CPU_ARAU] 
	.dwcfi	cfa_offset, -6
$C$DW$276	.dwtag  DW_TAG_variable
	.dwattr $C$DW$276, DW_AT_name("x")
	.dwattr $C$DW$276, DW_AT_type(*$C$DW$T$16)
	.dwattr $C$DW$276, DW_AT_location[DW_OP_breg20 -2]

$C$DW$277	.dwtag  DW_TAG_variable
	.dwattr $C$DW$277, DW_AT_name("y")
	.dwattr $C$DW$277, DW_AT_type(*$C$DW$T$16)
	.dwattr $C$DW$277, DW_AT_location[DW_OP_breg20 -4]

        MOV32     *-SP[4],R1H           ; [CPU_FPU] |233| 
        MOV32     *-SP[2],R0H           ; [CPU_FPU] |233| 
	.dwpsn	file "C:/ti/ccs1250/ccs/tools/compiler/ti-cgt-c2000_22.6.1.LTS/include/math.h",line 234,column 5,is_stmt,isa 0
        MAXF32    R0H,R1H               ; [CPU_FPU] |234| 
	.dwpsn	file "C:/ti/ccs1250/ccs/tools/compiler/ti-cgt-c2000_22.6.1.LTS/include/math.h",line 235,column 1,is_stmt,isa 0
        SUBB      SP,#4                 ; [CPU_ARAU] 
	.dwcfi	cfa_offset, -2
$C$DW$278	.dwtag  DW_TAG_TI_branch
	.dwattr $C$DW$278, DW_AT_low_pc(0x00)
	.dwattr $C$DW$278, DW_AT_TI_return

        LRETR     ; [CPU_ALU] 
        ; return occurs ; [] 
	.dwattr $C$DW$273, DW_AT_TI_end_file("C:/ti/ccs1250/ccs/tools/compiler/ti-cgt-c2000_22.6.1.LTS/include/math.h")
	.dwattr $C$DW$273, DW_AT_TI_end_line(0xeb)
	.dwattr $C$DW$273, DW_AT_TI_end_column(0x01)
	.dwendentry
	.dwendtag $C$DW$273

	.sect	".text:__relaxed_fminf"
	.clink
	.global	||__relaxed_fminf||

$C$DW$279	.dwtag  DW_TAG_subprogram
	.dwattr $C$DW$279, DW_AT_name("__relaxed_fminf")
	.dwattr $C$DW$279, DW_AT_low_pc(||__relaxed_fminf||)
	.dwattr $C$DW$279, DW_AT_high_pc(0x00)
	.dwattr $C$DW$279, DW_AT_linkage_name("__relaxed_fminf")
	.dwattr $C$DW$279, DW_AT_external
	.dwattr $C$DW$279, DW_AT_type(*$C$DW$T$16)
	.dwattr $C$DW$279, DW_AT_decl_file("C:/ti/ccs1250/ccs/tools/compiler/ti-cgt-c2000_22.6.1.LTS/include/math.h")
	.dwattr $C$DW$279, DW_AT_decl_line(0xee)
	.dwattr $C$DW$279, DW_AT_decl_column(0x10)
	.dwattr $C$DW$279, DW_AT_TI_max_frame_size(-6)
	.dwpsn	file "C:/ti/ccs1250/ccs/tools/compiler/ti-cgt-c2000_22.6.1.LTS/include/math.h",line 239,column 1,is_stmt,address ||__relaxed_fminf||,isa 0

	.dwfde $C$DW$CIE, ||__relaxed_fminf||
$C$DW$280	.dwtag  DW_TAG_formal_parameter
	.dwattr $C$DW$280, DW_AT_name("x")
	.dwattr $C$DW$280, DW_AT_type(*$C$DW$T$16)
	.dwattr $C$DW$280, DW_AT_location[DW_OP_regx 0x2b]

$C$DW$281	.dwtag  DW_TAG_formal_parameter
	.dwattr $C$DW$281, DW_AT_name("y")
	.dwattr $C$DW$281, DW_AT_type(*$C$DW$T$16)
	.dwattr $C$DW$281, DW_AT_location[DW_OP_regx 0x2f]


;***************************************************************
;* FNAME: __relaxed_fminf               FR SIZE:   4           *
;*                                                             *
;* FUNCTION ENVIRONMENT                                        *
;*                                                             *
;* FUNCTION PROPERTIES                                         *
;*                            0 Parameter,  4 Auto,  0 SOE     *
;***************************************************************

||__relaxed_fminf||:
	.dwcfi	cfa_offset, -2
	.dwcfi	save_reg_to_mem, 26, 0
        ADDB      SP,#4                 ; [CPU_ARAU] 
	.dwcfi	cfa_offset, -6
$C$DW$282	.dwtag  DW_TAG_variable
	.dwattr $C$DW$282, DW_AT_name("x")
	.dwattr $C$DW$282, DW_AT_type(*$C$DW$T$16)
	.dwattr $C$DW$282, DW_AT_location[DW_OP_breg20 -2]

$C$DW$283	.dwtag  DW_TAG_variable
	.dwattr $C$DW$283, DW_AT_name("y")
	.dwattr $C$DW$283, DW_AT_type(*$C$DW$T$16)
	.dwattr $C$DW$283, DW_AT_location[DW_OP_breg20 -4]

        MOV32     *-SP[4],R1H           ; [CPU_FPU] |239| 
        MOV32     *-SP[2],R0H           ; [CPU_FPU] |239| 
	.dwpsn	file "C:/ti/ccs1250/ccs/tools/compiler/ti-cgt-c2000_22.6.1.LTS/include/math.h",line 240,column 5,is_stmt,isa 0
        MINF32    R0H,R1H               ; [CPU_FPU] |240| 
	.dwpsn	file "C:/ti/ccs1250/ccs/tools/compiler/ti-cgt-c2000_22.6.1.LTS/include/math.h",line 241,column 1,is_stmt,isa 0
        SUBB      SP,#4                 ; [CPU_ARAU] 
	.dwcfi	cfa_offset, -2
$C$DW$284	.dwtag  DW_TAG_TI_branch
	.dwattr $C$DW$284, DW_AT_low_pc(0x00)
	.dwattr $C$DW$284, DW_AT_TI_return

        LRETR     ; [CPU_ALU] 
        ; return occurs ; [] 
	.dwattr $C$DW$279, DW_AT_TI_end_file("C:/ti/ccs1250/ccs/tools/compiler/ti-cgt-c2000_22.6.1.LTS/include/math.h")
	.dwattr $C$DW$279, DW_AT_TI_end_line(0xf1)
	.dwattr $C$DW$279, DW_AT_TI_end_column(0x01)
	.dwendentry
	.dwendtag $C$DW$279

	.sect	".text:__relaxed_sqrtf"
	.clink
	.global	||__relaxed_sqrtf||

$C$DW$285	.dwtag  DW_TAG_subprogram
	.dwattr $C$DW$285, DW_AT_name("__relaxed_sqrtf")
	.dwattr $C$DW$285, DW_AT_low_pc(||__relaxed_sqrtf||)
	.dwattr $C$DW$285, DW_AT_high_pc(0x00)
	.dwattr $C$DW$285, DW_AT_linkage_name("__relaxed_sqrtf")
	.dwattr $C$DW$285, DW_AT_external
	.dwattr $C$DW$285, DW_AT_type(*$C$DW$T$16)
	.dwattr $C$DW$285, DW_AT_decl_file("C:/ti/ccs1250/ccs/tools/compiler/ti-cgt-c2000_22.6.1.LTS/include/math.h")
	.dwattr $C$DW$285, DW_AT_decl_line(0x103)
	.dwattr $C$DW$285, DW_AT_decl_column(0x10)
	.dwattr $C$DW$285, DW_AT_TI_max_frame_size(-4)
	.dwpsn	file "C:/ti/ccs1250/ccs/tools/compiler/ti-cgt-c2000_22.6.1.LTS/include/math.h",line 260,column 1,is_stmt,address ||__relaxed_sqrtf||,isa 0

	.dwfde $C$DW$CIE, ||__relaxed_sqrtf||
$C$DW$286	.dwtag  DW_TAG_formal_parameter
	.dwattr $C$DW$286, DW_AT_name("x")
	.dwattr $C$DW$286, DW_AT_type(*$C$DW$T$16)
	.dwattr $C$DW$286, DW_AT_location[DW_OP_regx 0x2b]


;***************************************************************
;* FNAME: __relaxed_sqrtf               FR SIZE:   2           *
;*                                                             *
;* FUNCTION ENVIRONMENT                                        *
;*                                                             *
;* FUNCTION PROPERTIES                                         *
;*                            0 Parameter,  2 Auto,  0 SOE     *
;***************************************************************

||__relaxed_sqrtf||:
	.dwcfi	cfa_offset, -2
	.dwcfi	save_reg_to_mem, 26, 0
        ADDB      SP,#2                 ; [CPU_ARAU] 
	.dwcfi	cfa_offset, -4
$C$DW$287	.dwtag  DW_TAG_variable
	.dwattr $C$DW$287, DW_AT_name("x")
	.dwattr $C$DW$287, DW_AT_type(*$C$DW$T$16)
	.dwattr $C$DW$287, DW_AT_location[DW_OP_breg20 -2]

        MOV32     *-SP[2],R0H           ; [CPU_FPU] |260| 
	.dwpsn	file "C:/ti/ccs1250/ccs/tools/compiler/ti-cgt-c2000_22.6.1.LTS/include/math.h",line 261,column 5,is_stmt,isa 0
        SQRTF32   R0H,R0H               ; [CPU_FPU] |261| 
        NOP       ; [CPU_ALU] 
        NOP       ; [CPU_ALU] 
	.dwpsn	file "C:/ti/ccs1250/ccs/tools/compiler/ti-cgt-c2000_22.6.1.LTS/include/math.h",line 262,column 1,is_stmt,isa 0
        SUBB      SP,#2                 ; [CPU_ARAU] 
	.dwcfi	cfa_offset, -2
$C$DW$288	.dwtag  DW_TAG_TI_branch
	.dwattr $C$DW$288, DW_AT_low_pc(0x00)
	.dwattr $C$DW$288, DW_AT_TI_return

        LRETR     ; [CPU_ALU] 
        ; return occurs ; [] 
	.dwattr $C$DW$285, DW_AT_TI_end_file("C:/ti/ccs1250/ccs/tools/compiler/ti-cgt-c2000_22.6.1.LTS/include/math.h")
	.dwattr $C$DW$285, DW_AT_TI_end_line(0x106)
	.dwattr $C$DW$285, DW_AT_TI_end_column(0x01)
	.dwendentry
	.dwendtag $C$DW$285

	.sect	".text:__relaxed_sinf"
	.clink
	.global	||__relaxed_sinf||

$C$DW$289	.dwtag  DW_TAG_subprogram
	.dwattr $C$DW$289, DW_AT_name("__relaxed_sinf")
	.dwattr $C$DW$289, DW_AT_low_pc(||__relaxed_sinf||)
	.dwattr $C$DW$289, DW_AT_high_pc(0x00)
	.dwattr $C$DW$289, DW_AT_linkage_name("__relaxed_sinf")
	.dwattr $C$DW$289, DW_AT_external
	.dwattr $C$DW$289, DW_AT_type(*$C$DW$T$16)
	.dwattr $C$DW$289, DW_AT_decl_file("C:/ti/ccs1250/ccs/tools/compiler/ti-cgt-c2000_22.6.1.LTS/include/math.h")
	.dwattr $C$DW$289, DW_AT_decl_line(0x108)
	.dwattr $C$DW$289, DW_AT_decl_column(0x10)
	.dwattr $C$DW$289, DW_AT_TI_max_frame_size(-4)
	.dwpsn	file "C:/ti/ccs1250/ccs/tools/compiler/ti-cgt-c2000_22.6.1.LTS/include/math.h",line 265,column 1,is_stmt,address ||__relaxed_sinf||,isa 0

	.dwfde $C$DW$CIE, ||__relaxed_sinf||
$C$DW$290	.dwtag  DW_TAG_formal_parameter
	.dwattr $C$DW$290, DW_AT_name("x")
	.dwattr $C$DW$290, DW_AT_type(*$C$DW$T$16)
	.dwattr $C$DW$290, DW_AT_location[DW_OP_regx 0x2b]


;***************************************************************
;* FNAME: __relaxed_sinf                FR SIZE:   2           *
;*                                                             *
;* FUNCTION ENVIRONMENT                                        *
;*                                                             *
;* FUNCTION PROPERTIES                                         *
;*                            0 Parameter,  2 Auto,  0 SOE     *
;***************************************************************

||__relaxed_sinf||:
	.dwcfi	cfa_offset, -2
	.dwcfi	save_reg_to_mem, 26, 0
        ADDB      SP,#2                 ; [CPU_ARAU] 
	.dwcfi	cfa_offset, -4
$C$DW$291	.dwtag  DW_TAG_variable
	.dwattr $C$DW$291, DW_AT_name("x")
	.dwattr $C$DW$291, DW_AT_type(*$C$DW$T$16)
	.dwattr $C$DW$291, DW_AT_location[DW_OP_breg20 -2]

        MOV32     *-SP[2],R0H           ; [CPU_FPU] |265| 
	.dwpsn	file "C:/ti/ccs1250/ccs/tools/compiler/ti-cgt-c2000_22.6.1.LTS/include/math.h",line 266,column 5,is_stmt,isa 0
        DIV2PIF32 R0H,R0H               ; [CPU_FPU] |266| 
        NOP       ; [CPU_ALU] 
        SINPUF32  R0H,R0H               ; [CPU_FPU] |266| 
        NOP       ; [CPU_ALU] 
	.dwpsn	file "C:/ti/ccs1250/ccs/tools/compiler/ti-cgt-c2000_22.6.1.LTS/include/math.h",line 267,column 1,is_stmt,isa 0
        SUBB      SP,#2                 ; [CPU_ARAU] 
	.dwcfi	cfa_offset, -2
$C$DW$292	.dwtag  DW_TAG_TI_branch
	.dwattr $C$DW$292, DW_AT_low_pc(0x00)
	.dwattr $C$DW$292, DW_AT_TI_return

        LRETR     ; [CPU_ALU] 
        ; return occurs ; [] 
	.dwattr $C$DW$289, DW_AT_TI_end_file("C:/ti/ccs1250/ccs/tools/compiler/ti-cgt-c2000_22.6.1.LTS/include/math.h")
	.dwattr $C$DW$289, DW_AT_TI_end_line(0x10b)
	.dwattr $C$DW$289, DW_AT_TI_end_column(0x01)
	.dwendentry
	.dwendtag $C$DW$289

	.sect	".text:__relaxed_cosf"
	.clink
	.global	||__relaxed_cosf||

$C$DW$293	.dwtag  DW_TAG_subprogram
	.dwattr $C$DW$293, DW_AT_name("__relaxed_cosf")
	.dwattr $C$DW$293, DW_AT_low_pc(||__relaxed_cosf||)
	.dwattr $C$DW$293, DW_AT_high_pc(0x00)
	.dwattr $C$DW$293, DW_AT_linkage_name("__relaxed_cosf")
	.dwattr $C$DW$293, DW_AT_external
	.dwattr $C$DW$293, DW_AT_type(*$C$DW$T$16)
	.dwattr $C$DW$293, DW_AT_decl_file("C:/ti/ccs1250/ccs/tools/compiler/ti-cgt-c2000_22.6.1.LTS/include/math.h")
	.dwattr $C$DW$293, DW_AT_decl_line(0x10d)
	.dwattr $C$DW$293, DW_AT_decl_column(0x10)
	.dwattr $C$DW$293, DW_AT_TI_max_frame_size(-4)
	.dwpsn	file "C:/ti/ccs1250/ccs/tools/compiler/ti-cgt-c2000_22.6.1.LTS/include/math.h",line 270,column 1,is_stmt,address ||__relaxed_cosf||,isa 0

	.dwfde $C$DW$CIE, ||__relaxed_cosf||
$C$DW$294	.dwtag  DW_TAG_formal_parameter
	.dwattr $C$DW$294, DW_AT_name("x")
	.dwattr $C$DW$294, DW_AT_type(*$C$DW$T$16)
	.dwattr $C$DW$294, DW_AT_location[DW_OP_regx 0x2b]


;***************************************************************
;* FNAME: __relaxed_cosf                FR SIZE:   2           *
;*                                                             *
;* FUNCTION ENVIRONMENT                                        *
;*                                                             *
;* FUNCTION PROPERTIES                                         *
;*                            0 Parameter,  2 Auto,  0 SOE     *
;***************************************************************

||__relaxed_cosf||:
	.dwcfi	cfa_offset, -2
	.dwcfi	save_reg_to_mem, 26, 0
        ADDB      SP,#2                 ; [CPU_ARAU] 
	.dwcfi	cfa_offset, -4
$C$DW$295	.dwtag  DW_TAG_variable
	.dwattr $C$DW$295, DW_AT_name("x")
	.dwattr $C$DW$295, DW_AT_type(*$C$DW$T$16)
	.dwattr $C$DW$295, DW_AT_location[DW_OP_breg20 -2]

        MOV32     *-SP[2],R0H           ; [CPU_FPU] |270| 
	.dwpsn	file "C:/ti/ccs1250/ccs/tools/compiler/ti-cgt-c2000_22.6.1.LTS/include/math.h",line 271,column 5,is_stmt,isa 0
        DIV2PIF32 R0H,R0H               ; [CPU_FPU] |271| 
        NOP       ; [CPU_ALU] 
        COSPUF32  R0H,R0H               ; [CPU_FPU] |271| 
        NOP       ; [CPU_ALU] 
	.dwpsn	file "C:/ti/ccs1250/ccs/tools/compiler/ti-cgt-c2000_22.6.1.LTS/include/math.h",line 272,column 1,is_stmt,isa 0
        SUBB      SP,#2                 ; [CPU_ARAU] 
	.dwcfi	cfa_offset, -2
$C$DW$296	.dwtag  DW_TAG_TI_branch
	.dwattr $C$DW$296, DW_AT_low_pc(0x00)
	.dwattr $C$DW$296, DW_AT_TI_return

        LRETR     ; [CPU_ALU] 
        ; return occurs ; [] 
	.dwattr $C$DW$293, DW_AT_TI_end_file("C:/ti/ccs1250/ccs/tools/compiler/ti-cgt-c2000_22.6.1.LTS/include/math.h")
	.dwattr $C$DW$293, DW_AT_TI_end_line(0x110)
	.dwattr $C$DW$293, DW_AT_TI_end_column(0x01)
	.dwendentry
	.dwendtag $C$DW$293

	.sect	".text:__relaxed_atanf"
	.clink
	.global	||__relaxed_atanf||

$C$DW$297	.dwtag  DW_TAG_subprogram
	.dwattr $C$DW$297, DW_AT_name("__relaxed_atanf")
	.dwattr $C$DW$297, DW_AT_low_pc(||__relaxed_atanf||)
	.dwattr $C$DW$297, DW_AT_high_pc(0x00)
	.dwattr $C$DW$297, DW_AT_linkage_name("__relaxed_atanf")
	.dwattr $C$DW$297, DW_AT_external
	.dwattr $C$DW$297, DW_AT_type(*$C$DW$T$16)
	.dwattr $C$DW$297, DW_AT_decl_file("C:/ti/ccs1250/ccs/tools/compiler/ti-cgt-c2000_22.6.1.LTS/include/math.h")
	.dwattr $C$DW$297, DW_AT_decl_line(0x112)
	.dwattr $C$DW$297, DW_AT_decl_column(0x10)
	.dwattr $C$DW$297, DW_AT_TI_max_frame_size(-4)
	.dwpsn	file "C:/ti/ccs1250/ccs/tools/compiler/ti-cgt-c2000_22.6.1.LTS/include/math.h",line 275,column 1,is_stmt,address ||__relaxed_atanf||,isa 0

	.dwfde $C$DW$CIE, ||__relaxed_atanf||
$C$DW$298	.dwtag  DW_TAG_formal_parameter
	.dwattr $C$DW$298, DW_AT_name("x")
	.dwattr $C$DW$298, DW_AT_type(*$C$DW$T$16)
	.dwattr $C$DW$298, DW_AT_location[DW_OP_regx 0x2b]


;***************************************************************
;* FNAME: __relaxed_atanf               FR SIZE:   2           *
;*                                                             *
;* FUNCTION ENVIRONMENT                                        *
;*                                                             *
;* FUNCTION PROPERTIES                                         *
;*                            0 Parameter,  2 Auto,  0 SOE     *
;***************************************************************

||__relaxed_atanf||:
	.dwcfi	cfa_offset, -2
	.dwcfi	save_reg_to_mem, 26, 0
        ADDB      SP,#2                 ; [CPU_ARAU] 
	.dwcfi	cfa_offset, -4
$C$DW$299	.dwtag  DW_TAG_variable
	.dwattr $C$DW$299, DW_AT_name("x")
	.dwattr $C$DW$299, DW_AT_type(*$C$DW$T$16)
	.dwattr $C$DW$299, DW_AT_location[DW_OP_breg20 -2]

        MOV32     *-SP[2],R0H           ; [CPU_FPU] |275| 
	.dwpsn	file "C:/ti/ccs1250/ccs/tools/compiler/ti-cgt-c2000_22.6.1.LTS/include/math.h",line 276,column 3,is_stmt,isa 0
        MOVIZ     R0H,#16256            ; [CPU_FPU] |276| 
        MOV32     R1H,*-SP[2]           ; [CPU_FPU] |276| 
        QUADF32   R1H,R0H,R1H,R0H       ; [CPU_FPU] |276| 
        NOP       ; [CPU_ALU] 
        NOP       ; [CPU_ALU] 
        NOP       ; [CPU_ALU] 
        NOP       ; [CPU_ALU] 
        ATANPUF32 R0H,R0H               ; [CPU_FPU] |276| 
        NOP       ; [CPU_ALU] 
        NOP       ; [CPU_ALU] 
        NOP       ; [CPU_ALU] 
        ADDF32    R0H,R0H,R1H           ; [CPU_FPU] |276| 
        NOP       ; [CPU_ALU] 
        NOP       ; [CPU_ALU] 
        MPY2PIF32 R0H,R0H               ; [CPU_FPU] |276| 
	.dwpsn	file "C:/ti/ccs1250/ccs/tools/compiler/ti-cgt-c2000_22.6.1.LTS/include/math.h",line 277,column 1,is_stmt,isa 0
        SUBB      SP,#2                 ; [CPU_ARAU] 
	.dwcfi	cfa_offset, -2
$C$DW$300	.dwtag  DW_TAG_TI_branch
	.dwattr $C$DW$300, DW_AT_low_pc(0x00)
	.dwattr $C$DW$300, DW_AT_TI_return

        LRETR     ; [CPU_ALU] 
        ; return occurs ; [] 
	.dwattr $C$DW$297, DW_AT_TI_end_file("C:/ti/ccs1250/ccs/tools/compiler/ti-cgt-c2000_22.6.1.LTS/include/math.h")
	.dwattr $C$DW$297, DW_AT_TI_end_line(0x115)
	.dwattr $C$DW$297, DW_AT_TI_end_column(0x01)
	.dwendentry
	.dwendtag $C$DW$297

	.sect	".text:__relaxed_atan2f"
	.clink
	.global	||__relaxed_atan2f||

$C$DW$301	.dwtag  DW_TAG_subprogram
	.dwattr $C$DW$301, DW_AT_name("__relaxed_atan2f")
	.dwattr $C$DW$301, DW_AT_low_pc(||__relaxed_atan2f||)
	.dwattr $C$DW$301, DW_AT_high_pc(0x00)
	.dwattr $C$DW$301, DW_AT_linkage_name("__relaxed_atan2f")
	.dwattr $C$DW$301, DW_AT_external
	.dwattr $C$DW$301, DW_AT_type(*$C$DW$T$16)
	.dwattr $C$DW$301, DW_AT_decl_file("C:/ti/ccs1250/ccs/tools/compiler/ti-cgt-c2000_22.6.1.LTS/include/math.h")
	.dwattr $C$DW$301, DW_AT_decl_line(0x117)
	.dwattr $C$DW$301, DW_AT_decl_column(0x10)
	.dwattr $C$DW$301, DW_AT_TI_max_frame_size(-6)
	.dwpsn	file "C:/ti/ccs1250/ccs/tools/compiler/ti-cgt-c2000_22.6.1.LTS/include/math.h",line 280,column 1,is_stmt,address ||__relaxed_atan2f||,isa 0

	.dwfde $C$DW$CIE, ||__relaxed_atan2f||
$C$DW$302	.dwtag  DW_TAG_formal_parameter
	.dwattr $C$DW$302, DW_AT_name("y")
	.dwattr $C$DW$302, DW_AT_type(*$C$DW$T$16)
	.dwattr $C$DW$302, DW_AT_location[DW_OP_regx 0x2b]

$C$DW$303	.dwtag  DW_TAG_formal_parameter
	.dwattr $C$DW$303, DW_AT_name("x")
	.dwattr $C$DW$303, DW_AT_type(*$C$DW$T$16)
	.dwattr $C$DW$303, DW_AT_location[DW_OP_regx 0x2f]


;***************************************************************
;* FNAME: __relaxed_atan2f              FR SIZE:   4           *
;*                                                             *
;* FUNCTION ENVIRONMENT                                        *
;*                                                             *
;* FUNCTION PROPERTIES                                         *
;*                            0 Parameter,  4 Auto,  0 SOE     *
;***************************************************************

||__relaxed_atan2f||:
	.dwcfi	cfa_offset, -2
	.dwcfi	save_reg_to_mem, 26, 0
        ADDB      SP,#4                 ; [CPU_ARAU] 
	.dwcfi	cfa_offset, -6
$C$DW$304	.dwtag  DW_TAG_variable
	.dwattr $C$DW$304, DW_AT_name("y")
	.dwattr $C$DW$304, DW_AT_type(*$C$DW$T$16)
	.dwattr $C$DW$304, DW_AT_location[DW_OP_breg20 -2]

$C$DW$305	.dwtag  DW_TAG_variable
	.dwattr $C$DW$305, DW_AT_name("x")
	.dwattr $C$DW$305, DW_AT_type(*$C$DW$T$16)
	.dwattr $C$DW$305, DW_AT_location[DW_OP_breg20 -4]

        MOV32     *-SP[4],R1H           ; [CPU_FPU] |280| 
        MOV32     *-SP[2],R0H           ; [CPU_FPU] |280| 
	.dwpsn	file "C:/ti/ccs1250/ccs/tools/compiler/ti-cgt-c2000_22.6.1.LTS/include/math.h",line 281,column 3,is_stmt,isa 0
        MOV32     R0H,*-SP[4]           ; [CPU_FPU] |281| 
        MOV32     R1H,*-SP[2]           ; [CPU_FPU] |281| 
        QUADF32   R1H,R0H,R1H,R0H       ; [CPU_FPU] |281| 
        NOP       ; [CPU_ALU] 
        NOP       ; [CPU_ALU] 
        NOP       ; [CPU_ALU] 
        NOP       ; [CPU_ALU] 
        ATANPUF32 R0H,R0H               ; [CPU_FPU] |281| 
        NOP       ; [CPU_ALU] 
        NOP       ; [CPU_ALU] 
        NOP       ; [CPU_ALU] 
        ADDF32    R0H,R0H,R1H           ; [CPU_FPU] |281| 
        NOP       ; [CPU_ALU] 
        NOP       ; [CPU_ALU] 
        MPY2PIF32 R0H,R0H               ; [CPU_FPU] |281| 
	.dwpsn	file "C:/ti/ccs1250/ccs/tools/compiler/ti-cgt-c2000_22.6.1.LTS/include/math.h",line 282,column 1,is_stmt,isa 0
        SUBB      SP,#4                 ; [CPU_ARAU] 
	.dwcfi	cfa_offset, -2
$C$DW$306	.dwtag  DW_TAG_TI_branch
	.dwattr $C$DW$306, DW_AT_low_pc(0x00)
	.dwattr $C$DW$306, DW_AT_TI_return

        LRETR     ; [CPU_ALU] 
        ; return occurs ; [] 
	.dwattr $C$DW$301, DW_AT_TI_end_file("C:/ti/ccs1250/ccs/tools/compiler/ti-cgt-c2000_22.6.1.LTS/include/math.h")
	.dwattr $C$DW$301, DW_AT_TI_end_line(0x11a)
	.dwattr $C$DW$301, DW_AT_TI_end_column(0x01)
	.dwendentry
	.dwendtag $C$DW$301

	.sect	".text:__relaxed_fmodf"
	.clink
	.global	||__relaxed_fmodf||

$C$DW$307	.dwtag  DW_TAG_subprogram
	.dwattr $C$DW$307, DW_AT_name("__relaxed_fmodf")
	.dwattr $C$DW$307, DW_AT_low_pc(||__relaxed_fmodf||)
	.dwattr $C$DW$307, DW_AT_high_pc(0x00)
	.dwattr $C$DW$307, DW_AT_linkage_name("__relaxed_fmodf")
	.dwattr $C$DW$307, DW_AT_external
	.dwattr $C$DW$307, DW_AT_type(*$C$DW$T$16)
	.dwattr $C$DW$307, DW_AT_decl_file("C:/ti/ccs1250/ccs/tools/compiler/ti-cgt-c2000_22.6.1.LTS/include/math.h")
	.dwattr $C$DW$307, DW_AT_decl_line(0x11c)
	.dwattr $C$DW$307, DW_AT_decl_column(0x10)
	.dwattr $C$DW$307, DW_AT_TI_max_frame_size(-6)
	.dwpsn	file "C:/ti/ccs1250/ccs/tools/compiler/ti-cgt-c2000_22.6.1.LTS/include/math.h",line 285,column 1,is_stmt,address ||__relaxed_fmodf||,isa 0

	.dwfde $C$DW$CIE, ||__relaxed_fmodf||
$C$DW$308	.dwtag  DW_TAG_formal_parameter
	.dwattr $C$DW$308, DW_AT_name("y")
	.dwattr $C$DW$308, DW_AT_type(*$C$DW$T$16)
	.dwattr $C$DW$308, DW_AT_location[DW_OP_regx 0x2b]

$C$DW$309	.dwtag  DW_TAG_formal_parameter
	.dwattr $C$DW$309, DW_AT_name("x")
	.dwattr $C$DW$309, DW_AT_type(*$C$DW$T$16)
	.dwattr $C$DW$309, DW_AT_location[DW_OP_regx 0x2f]


;***************************************************************
;* FNAME: __relaxed_fmodf               FR SIZE:   4           *
;*                                                             *
;* FUNCTION ENVIRONMENT                                        *
;*                                                             *
;* FUNCTION PROPERTIES                                         *
;*                            0 Parameter,  4 Auto,  0 SOE     *
;***************************************************************

||__relaxed_fmodf||:
	.dwcfi	cfa_offset, -2
	.dwcfi	save_reg_to_mem, 26, 0
        ADDB      SP,#4                 ; [CPU_ARAU] 
	.dwcfi	cfa_offset, -6
$C$DW$310	.dwtag  DW_TAG_variable
	.dwattr $C$DW$310, DW_AT_name("y")
	.dwattr $C$DW$310, DW_AT_type(*$C$DW$T$16)
	.dwattr $C$DW$310, DW_AT_location[DW_OP_breg20 -2]

$C$DW$311	.dwtag  DW_TAG_variable
	.dwattr $C$DW$311, DW_AT_name("x")
	.dwattr $C$DW$311, DW_AT_type(*$C$DW$T$16)
	.dwattr $C$DW$311, DW_AT_location[DW_OP_breg20 -4]

        MOV32     *-SP[4],R1H           ; [CPU_FPU] |285| 
        MOV32     *-SP[2],R0H           ; [CPU_FPU] |285| 
	.dwpsn	file "C:/ti/ccs1250/ccs/tools/compiler/ti-cgt-c2000_22.6.1.LTS/include/math.h",line 286,column 3,is_stmt,isa 0
        MOV32     R2H,*-SP[2]           ; [CPU_FPU] |286| 
        DIVF32    R0H,R2H,R1H           ; [CPU_FPU] |286| 
        NOP       ; [CPU_ALU] 
        NOP       ; [CPU_ALU] 
        NOP       ; [CPU_ALU] 
        NOP       ; [CPU_ALU] 
        F32TOI32  R0H,R0H               ; [CPU_FPU] |286| 
        NOP       ; [CPU_ALU] 
        I32TOF32  R0H,R0H               ; [CPU_FPU] |286| 
        NOP       ; [CPU_ALU] 
        MPYF32    R0H,R1H,R0H           ; [CPU_FPU] |286| 
        NOP       ; [CPU_ALU] 
        SUBF32    R0H,R2H,R0H           ; [CPU_FPU] |286| 
	.dwpsn	file "C:/ti/ccs1250/ccs/tools/compiler/ti-cgt-c2000_22.6.1.LTS/include/math.h",line 287,column 1,is_stmt,isa 0
        SUBB      SP,#4                 ; [CPU_ARAU] 
	.dwcfi	cfa_offset, -2
$C$DW$312	.dwtag  DW_TAG_TI_branch
	.dwattr $C$DW$312, DW_AT_low_pc(0x00)
	.dwattr $C$DW$312, DW_AT_TI_return

        LRETR     ; [CPU_ALU] 
        ; return occurs ; [] 
	.dwattr $C$DW$307, DW_AT_TI_end_file("C:/ti/ccs1250/ccs/tools/compiler/ti-cgt-c2000_22.6.1.LTS/include/math.h")
	.dwattr $C$DW$307, DW_AT_TI_end_line(0x11f)
	.dwattr $C$DW$307, DW_AT_TI_end_column(0x01)
	.dwendentry
	.dwendtag $C$DW$307

	.sect	".text:IsGen3"
	.clink
	.global	||IsGen3||

$C$DW$313	.dwtag  DW_TAG_subprogram
	.dwattr $C$DW$313, DW_AT_name("IsGen3")
	.dwattr $C$DW$313, DW_AT_low_pc(||IsGen3||)
	.dwattr $C$DW$313, DW_AT_high_pc(0x00)
	.dwattr $C$DW$313, DW_AT_linkage_name("IsGen3")
	.dwattr $C$DW$313, DW_AT_external
	.dwattr $C$DW$313, DW_AT_type(*$C$DW$T$8)
	.dwattr $C$DW$313, DW_AT_decl_file("..\Application\StructDef2.h")
	.dwattr $C$DW$313, DW_AT_decl_line(0x55a)
	.dwattr $C$DW$313, DW_AT_decl_column(0x07)
	.dwattr $C$DW$313, DW_AT_TI_max_frame_size(-2)
	.dwpsn	file "..\Application\StructDef2.h",line 1371,column 1,is_stmt,address ||IsGen3||,isa 0

	.dwfde $C$DW$CIE, ||IsGen3||

;***************************************************************
;* FNAME: IsGen3                        FR SIZE:   0           *
;*                                                             *
;* FUNCTION ENVIRONMENT                                        *
;*                                                             *
;* FUNCTION PROPERTIES                                         *
;*                            0 Parameter,  0 Auto,  0 SOE     *
;***************************************************************

||IsGen3||:
	.dwcfi	cfa_offset, -2
	.dwcfi	save_reg_to_mem, 26, 0
	.dwpsn	file "..\Application\StructDef2.h",line 1372,column 5,is_stmt,isa 0
        MOVW      DP,#||S2M||+30        ; [CPU_ARAU] 
        MOV       AL,@$BLOCKED(||S2M||)+30 ; [CPU_ALU] |1372| 
        ANDB      AL,#0x0f              ; [CPU_ALU] |1372| 
        CMPB      AL,#3                 ; [CPU_ALU] |1372| 
        B         ||$C$L56||,NEQ        ; [CPU_ALU] |1372| 
        ; branchcc occurs ; [] |1372| 
        MOVB      AL,#1                 ; [CPU_ALU] |1372| 
        B         ||$C$L57||,UNC        ; [CPU_ALU] |1372| 
        ; branch occurs ; [] |1372| 
||$C$L56||:    
        MOVB      AL,#0                 ; [CPU_ALU] |1372| 
||$C$L57||:    
	.dwpsn	file "..\Application\StructDef2.h",line 1373,column 1,is_stmt,isa 0
$C$DW$314	.dwtag  DW_TAG_TI_branch
	.dwattr $C$DW$314, DW_AT_low_pc(0x00)
	.dwattr $C$DW$314, DW_AT_TI_return

        LRETR     ; [CPU_ALU] 
        ; return occurs ; [] 
	.dwattr $C$DW$313, DW_AT_TI_end_file("..\Application\StructDef2.h")
	.dwattr $C$DW$313, DW_AT_TI_end_line(0x55d)
	.dwattr $C$DW$313, DW_AT_TI_end_column(0x01)
	.dwendentry
	.dwendtag $C$DW$313

	.sect	".text:IsPsActive"
	.clink
	.global	||IsPsActive||

$C$DW$315	.dwtag  DW_TAG_subprogram
	.dwattr $C$DW$315, DW_AT_name("IsPsActive")
	.dwattr $C$DW$315, DW_AT_low_pc(||IsPsActive||)
	.dwattr $C$DW$315, DW_AT_high_pc(0x00)
	.dwattr $C$DW$315, DW_AT_linkage_name("IsPsActive")
	.dwattr $C$DW$315, DW_AT_external
	.dwattr $C$DW$315, DW_AT_type(*$C$DW$T$8)
	.dwattr $C$DW$315, DW_AT_decl_file("..\Application\StructDef2.h")
	.dwattr $C$DW$315, DW_AT_decl_line(0x560)
	.dwattr $C$DW$315, DW_AT_decl_column(0x07)
	.dwattr $C$DW$315, DW_AT_TI_max_frame_size(-2)
	.dwpsn	file "..\Application\StructDef2.h",line 1377,column 1,is_stmt,address ||IsPsActive||,isa 0

	.dwfde $C$DW$CIE, ||IsPsActive||

;***************************************************************
;* FNAME: IsPsActive                    FR SIZE:   0           *
;*                                                             *
;* FUNCTION ENVIRONMENT                                        *
;*                                                             *
;* FUNCTION PROPERTIES                                         *
;*                            0 Parameter,  0 Auto,  0 SOE     *
;***************************************************************

||IsPsActive||:
	.dwcfi	cfa_offset, -2
	.dwcfi	save_reg_to_mem, 26, 0
	.dwpsn	file "..\Application\StructDef2.h",line 1378,column 5,is_stmt,isa 0
        MOVW      DP,#||SysState||+352  ; [CPU_ARAU] 
        MOV       AL,@$BLOCKED(||SysState||)+352 ; [CPU_ALU] |1378| 
	.dwpsn	file "..\Application\StructDef2.h",line 1379,column 1,is_stmt,isa 0
$C$DW$316	.dwtag  DW_TAG_TI_branch
	.dwattr $C$DW$316, DW_AT_low_pc(0x00)
	.dwattr $C$DW$316, DW_AT_TI_return

        LRETR     ; [CPU_ALU] 
        ; return occurs ; [] 
	.dwattr $C$DW$315, DW_AT_TI_end_file("..\Application\StructDef2.h")
	.dwattr $C$DW$315, DW_AT_TI_end_line(0x563)
	.dwattr $C$DW$315, DW_AT_TI_end_column(0x01)
	.dwendentry
	.dwendtag $C$DW$315

	.sect	".text:StopSuctionNoMonitor"
	.clink
	.global	||StopSuctionNoMonitor||

$C$DW$317	.dwtag  DW_TAG_subprogram
	.dwattr $C$DW$317, DW_AT_name("StopSuctionNoMonitor")
	.dwattr $C$DW$317, DW_AT_low_pc(||StopSuctionNoMonitor||)
	.dwattr $C$DW$317, DW_AT_high_pc(0x00)
	.dwattr $C$DW$317, DW_AT_linkage_name("StopSuctionNoMonitor")
	.dwattr $C$DW$317, DW_AT_external
	.dwattr $C$DW$317, DW_AT_decl_file("..\Application\StructDef2.h")
	.dwattr $C$DW$317, DW_AT_decl_line(0x567)
	.dwattr $C$DW$317, DW_AT_decl_column(0x06)
	.dwattr $C$DW$317, DW_AT_TI_max_frame_size(-2)
	.dwpsn	file "..\Application\StructDef2.h",line 1384,column 1,is_stmt,address ||StopSuctionNoMonitor||,isa 0

	.dwfde $C$DW$CIE, ||StopSuctionNoMonitor||

;***************************************************************
;* FNAME: StopSuctionNoMonitor          FR SIZE:   0           *
;*                                                             *
;* FUNCTION ENVIRONMENT                                        *
;*                                                             *
;* FUNCTION PROPERTIES                                         *
;*                            0 Parameter,  0 Auto,  0 SOE     *
;***************************************************************

||StopSuctionNoMonitor||:
	.dwcfi	cfa_offset, -2
	.dwcfi	save_reg_to_mem, 26, 0
	.dwpsn	file "..\Application\StructDef2.h",line 1385,column 5,is_stmt,isa 0
        MOVB      ACC,#0                ; [CPU_ALU] |1385| 
        MOVW      DP,#||SysState||+150  ; [CPU_ARAU] 
        MOVL      @$BLOCKED(||SysState||)+150,ACC ; [CPU_ALU] |1385| 
	.dwpsn	file "..\Application\StructDef2.h",line 1386,column 5,is_stmt,isa 0
        OR        @$BLOCKED(||SysState||)+150,#0x0002 ; [CPU_ALU] |1386| 
	.dwpsn	file "..\Application\StructDef2.h",line 1387,column 5,is_stmt,isa 0
        OR        @$BLOCKED(||SysState||)+186,#0x0800 ; [CPU_ALU] |1387| 
	.dwpsn	file "..\Application\StructDef2.h",line 1388,column 1,is_stmt,isa 0
$C$DW$318	.dwtag  DW_TAG_TI_branch
	.dwattr $C$DW$318, DW_AT_low_pc(0x00)
	.dwattr $C$DW$318, DW_AT_TI_return

        LRETR     ; [CPU_ALU] 
        ; return occurs ; [] 
	.dwattr $C$DW$317, DW_AT_TI_end_file("..\Application\StructDef2.h")
	.dwattr $C$DW$317, DW_AT_TI_end_line(0x56c)
	.dwattr $C$DW$317, DW_AT_TI_end_column(0x01)
	.dwendentry
	.dwendtag $C$DW$317

	.sect	".text:StopSuctionMonitor"
	.clink
	.global	||StopSuctionMonitor||

$C$DW$319	.dwtag  DW_TAG_subprogram
	.dwattr $C$DW$319, DW_AT_name("StopSuctionMonitor")
	.dwattr $C$DW$319, DW_AT_low_pc(||StopSuctionMonitor||)
	.dwattr $C$DW$319, DW_AT_high_pc(0x00)
	.dwattr $C$DW$319, DW_AT_linkage_name("StopSuctionMonitor")
	.dwattr $C$DW$319, DW_AT_external
	.dwattr $C$DW$319, DW_AT_decl_file("..\Application\StructDef2.h")
	.dwattr $C$DW$319, DW_AT_decl_line(0x570)
	.dwattr $C$DW$319, DW_AT_decl_column(0x06)
	.dwattr $C$DW$319, DW_AT_TI_max_frame_size(-2)
	.dwpsn	file "..\Application\StructDef2.h",line 1393,column 1,is_stmt,address ||StopSuctionMonitor||,isa 0

	.dwfde $C$DW$CIE, ||StopSuctionMonitor||

;***************************************************************
;* FNAME: StopSuctionMonitor            FR SIZE:   0           *
;*                                                             *
;* FUNCTION ENVIRONMENT                                        *
;*                                                             *
;* FUNCTION PROPERTIES                                         *
;*                            0 Parameter,  0 Auto,  0 SOE     *
;***************************************************************

||StopSuctionMonitor||:
	.dwcfi	cfa_offset, -2
	.dwcfi	save_reg_to_mem, 26, 0
	.dwpsn	file "..\Application\StructDef2.h",line 1394,column 5,is_stmt,isa 0
        MOVB      ACC,#0                ; [CPU_ALU] |1394| 
        MOVW      DP,#||SysState||+150  ; [CPU_ARAU] 
        MOVL      @$BLOCKED(||SysState||)+150,ACC ; [CPU_ALU] |1394| 
	.dwpsn	file "..\Application\StructDef2.h",line 1395,column 5,is_stmt,isa 0
        AND       @$BLOCKED(||SysState||)+186,#0xf7ff ; [CPU_ALU] |1395| 
	.dwpsn	file "..\Application\StructDef2.h",line 1396,column 1,is_stmt,isa 0
$C$DW$320	.dwtag  DW_TAG_TI_branch
	.dwattr $C$DW$320, DW_AT_low_pc(0x00)
	.dwattr $C$DW$320, DW_AT_TI_return

        LRETR     ; [CPU_ALU] 
        ; return occurs ; [] 
	.dwattr $C$DW$319, DW_AT_TI_end_file("..\Application\StructDef2.h")
	.dwattr $C$DW$319, DW_AT_TI_end_line(0x574)
	.dwattr $C$DW$319, DW_AT_TI_end_column(0x01)
	.dwendentry
	.dwendtag $C$DW$319

	.sect	".text:InitSuctionMonitor"
	.clink
	.global	||InitSuctionMonitor||

$C$DW$321	.dwtag  DW_TAG_subprogram
	.dwattr $C$DW$321, DW_AT_name("InitSuctionMonitor")
	.dwattr $C$DW$321, DW_AT_low_pc(||InitSuctionMonitor||)
	.dwattr $C$DW$321, DW_AT_high_pc(0x00)
	.dwattr $C$DW$321, DW_AT_linkage_name("InitSuctionMonitor")
	.dwattr $C$DW$321, DW_AT_external
	.dwattr $C$DW$321, DW_AT_decl_file("..\Application\StructDef2.h")
	.dwattr $C$DW$321, DW_AT_decl_line(0x579)
	.dwattr $C$DW$321, DW_AT_decl_column(0x06)
	.dwattr $C$DW$321, DW_AT_TI_max_frame_size(-2)
	.dwpsn	file "..\Application\StructDef2.h",line 1402,column 1,is_stmt,address ||InitSuctionMonitor||,isa 0

	.dwfde $C$DW$CIE, ||InitSuctionMonitor||

;***************************************************************
;* FNAME: InitSuctionMonitor            FR SIZE:   0           *
;*                                                             *
;* FUNCTION ENVIRONMENT                                        *
;*                                                             *
;* FUNCTION PROPERTIES                                         *
;*                            0 Parameter,  0 Auto,  0 SOE     *
;***************************************************************

||InitSuctionMonitor||:
	.dwcfi	cfa_offset, -2
	.dwcfi	save_reg_to_mem, 26, 0
	.dwpsn	file "..\Application\StructDef2.h",line 1403,column 5,is_stmt,isa 0
        MOVB      ACC,#0                ; [CPU_ALU] |1403| 
        MOVW      DP,#||SysState||+150  ; [CPU_ARAU] 
        MOVL      @$BLOCKED(||SysState||)+150,ACC ; [CPU_ALU] |1403| 
	.dwpsn	file "..\Application\StructDef2.h",line 1404,column 5,is_stmt,isa 0
        OR        @$BLOCKED(||SysState||)+150,#0x0001 ; [CPU_ALU] |1404| 
	.dwpsn	file "..\Application\StructDef2.h",line 1405,column 5,is_stmt,isa 0
        AND       @$BLOCKED(||SysState||)+186,#0xf7ff ; [CPU_ALU] |1405| 
	.dwpsn	file "..\Application\StructDef2.h",line 1406,column 1,is_stmt,isa 0
$C$DW$322	.dwtag  DW_TAG_TI_branch
	.dwattr $C$DW$322, DW_AT_low_pc(0x00)
	.dwattr $C$DW$322, DW_AT_TI_return

        LRETR     ; [CPU_ALU] 
        ; return occurs ; [] 
	.dwattr $C$DW$321, DW_AT_TI_end_file("..\Application\StructDef2.h")
	.dwattr $C$DW$321, DW_AT_TI_end_line(0x57e)
	.dwattr $C$DW$321, DW_AT_TI_end_column(0x01)
	.dwendentry
	.dwendtag $C$DW$321

	.sect	".text:InitSuctionNoMonitor"
	.clink
	.global	||InitSuctionNoMonitor||

$C$DW$323	.dwtag  DW_TAG_subprogram
	.dwattr $C$DW$323, DW_AT_name("InitSuctionNoMonitor")
	.dwattr $C$DW$323, DW_AT_low_pc(||InitSuctionNoMonitor||)
	.dwattr $C$DW$323, DW_AT_high_pc(0x00)
	.dwattr $C$DW$323, DW_AT_linkage_name("InitSuctionNoMonitor")
	.dwattr $C$DW$323, DW_AT_external
	.dwattr $C$DW$323, DW_AT_decl_file("..\Application\StructDef2.h")
	.dwattr $C$DW$323, DW_AT_decl_line(0x581)
	.dwattr $C$DW$323, DW_AT_decl_column(0x0d)
	.dwattr $C$DW$323, DW_AT_TI_max_frame_size(-2)
	.dwpsn	file "..\Application\StructDef2.h",line 1410,column 1,is_stmt,address ||InitSuctionNoMonitor||,isa 0

	.dwfde $C$DW$CIE, ||InitSuctionNoMonitor||

;***************************************************************
;* FNAME: InitSuctionNoMonitor          FR SIZE:   0           *
;*                                                             *
;* FUNCTION ENVIRONMENT                                        *
;*                                                             *
;* FUNCTION PROPERTIES                                         *
;*                            0 Parameter,  0 Auto,  0 SOE     *
;***************************************************************

||InitSuctionNoMonitor||:
	.dwcfi	cfa_offset, -2
	.dwcfi	save_reg_to_mem, 26, 0
	.dwpsn	file "..\Application\StructDef2.h",line 1411,column 5,is_stmt,isa 0
        MOVW      DP,#||SysState||+150  ; [CPU_ARAU] 
        OR        @$BLOCKED(||SysState||)+150,#0x0002 ; [CPU_ALU] |1411| 
	.dwpsn	file "..\Application\StructDef2.h",line 1412,column 5,is_stmt,isa 0
        OR        @$BLOCKED(||SysState||)+150,#0x0001 ; [CPU_ALU] |1412| 
	.dwpsn	file "..\Application\StructDef2.h",line 1413,column 5,is_stmt,isa 0
        OR        @$BLOCKED(||SysState||)+186,#0x0800 ; [CPU_ALU] |1413| 
	.dwpsn	file "..\Application\StructDef2.h",line 1414,column 1,is_stmt,isa 0
$C$DW$324	.dwtag  DW_TAG_TI_branch
	.dwattr $C$DW$324, DW_AT_low_pc(0x00)
	.dwattr $C$DW$324, DW_AT_TI_return

        LRETR     ; [CPU_ALU] 
        ; return occurs ; [] 
	.dwattr $C$DW$323, DW_AT_TI_end_file("..\Application\StructDef2.h")
	.dwattr $C$DW$323, DW_AT_TI_end_line(0x586)
	.dwattr $C$DW$323, DW_AT_TI_end_column(0x01)
	.dwendentry
	.dwendtag $C$DW$323

	.sect	".text:GetDxlPayload"
	.clink
	.global	||GetDxlPayload||

$C$DW$325	.dwtag  DW_TAG_subprogram
	.dwattr $C$DW$325, DW_AT_name("GetDxlPayload")
	.dwattr $C$DW$325, DW_AT_low_pc(||GetDxlPayload||)
	.dwattr $C$DW$325, DW_AT_high_pc(0x00)
	.dwattr $C$DW$325, DW_AT_linkage_name("GetDxlPayload")
	.dwattr $C$DW$325, DW_AT_external
	.dwattr $C$DW$325, DW_AT_type(*$C$DW$T$13)
	.dwattr $C$DW$325, DW_AT_decl_file("../Application/Dynamixel.c")
	.dwattr $C$DW$325, DW_AT_decl_line(0xaa)
	.dwattr $C$DW$325, DW_AT_decl_column(0x10)
	.dwattr $C$DW$325, DW_AT_TI_max_frame_size(-22)
	.dwpsn	file "../Application/Dynamixel.c",line 172,column 1,is_stmt,address ||GetDxlPayload||,isa 0

	.dwfde $C$DW$CIE, ||GetDxlPayload||
$C$DW$326	.dwtag  DW_TAG_formal_parameter
	.dwattr $C$DW$326, DW_AT_name("si")
	.dwattr $C$DW$326, DW_AT_type(*$C$DW$T$9)
	.dwattr $C$DW$326, DW_AT_location[DW_OP_reg0]

$C$DW$327	.dwtag  DW_TAG_formal_parameter
	.dwattr $C$DW$327, DW_AT_name("nData")
	.dwattr $C$DW$327, DW_AT_type(*$C$DW$T$100)
	.dwattr $C$DW$327, DW_AT_location[DW_OP_reg12]

$C$DW$328	.dwtag  DW_TAG_formal_parameter
	.dwattr $C$DW$328, DW_AT_name("pProt")
	.dwattr $C$DW$328, DW_AT_type(*$C$DW$T$97)
	.dwattr $C$DW$328, DW_AT_location[DW_OP_reg14]

$C$DW$329	.dwtag  DW_TAG_formal_parameter
	.dwattr $C$DW$329, DW_AT_name("pRslt")
	.dwattr $C$DW$329, DW_AT_type(*$C$DW$T$137)
	.dwattr $C$DW$329, DW_AT_location[DW_OP_breg20 -24]


;***************************************************************
;* FNAME: GetDxlPayload                 FR SIZE:  20           *
;*                                                             *
;* FUNCTION ENVIRONMENT                                        *
;*                                                             *
;* FUNCTION PROPERTIES                                         *
;*                            0 Parameter, 20 Auto,  0 SOE     *
;***************************************************************

||GetDxlPayload||:
	.dwcfi	cfa_offset, -2
	.dwcfi	save_reg_to_mem, 26, 0
        ADDB      SP,#20                ; [CPU_ARAU] 
	.dwcfi	cfa_offset, -22
$C$DW$330	.dwtag  DW_TAG_variable
	.dwattr $C$DW$330, DW_AT_name("Msg")
	.dwattr $C$DW$330, DW_AT_type(*$C$DW$T$101)
	.dwattr $C$DW$330, DW_AT_location[DW_OP_breg20 -6]

$C$DW$331	.dwtag  DW_TAG_variable
	.dwattr $C$DW$331, DW_AT_name("nData")
	.dwattr $C$DW$331, DW_AT_type(*$C$DW$T$100)
	.dwattr $C$DW$331, DW_AT_location[DW_OP_breg20 -8]

$C$DW$332	.dwtag  DW_TAG_variable
	.dwattr $C$DW$332, DW_AT_name("pProt")
	.dwattr $C$DW$332, DW_AT_type(*$C$DW$T$97)
	.dwattr $C$DW$332, DW_AT_location[DW_OP_breg20 -10]

$C$DW$333	.dwtag  DW_TAG_variable
	.dwattr $C$DW$333, DW_AT_name("pNext")
	.dwattr $C$DW$333, DW_AT_type(*$C$DW$T$100)
	.dwattr $C$DW$333, DW_AT_location[DW_OP_breg20 -12]

$C$DW$334	.dwtag  DW_TAG_variable
	.dwattr $C$DW$334, DW_AT_name("pNow")
	.dwattr $C$DW$334, DW_AT_type(*$C$DW$T$100)
	.dwattr $C$DW$334, DW_AT_location[DW_OP_breg20 -14]

$C$DW$335	.dwtag  DW_TAG_variable
	.dwattr $C$DW$335, DW_AT_name("pLast")
	.dwattr $C$DW$335, DW_AT_type(*$C$DW$T$100)
	.dwattr $C$DW$335, DW_AT_location[DW_OP_breg20 -16]

$C$DW$336	.dwtag  DW_TAG_variable
	.dwattr $C$DW$336, DW_AT_name("si")
	.dwattr $C$DW$336, DW_AT_type(*$C$DW$T$9)
	.dwattr $C$DW$336, DW_AT_location[DW_OP_breg20 -17]

$C$DW$337	.dwtag  DW_TAG_variable
	.dwattr $C$DW$337, DW_AT_name("maxlen1")
	.dwattr $C$DW$337, DW_AT_type(*$C$DW$T$9)
	.dwattr $C$DW$337, DW_AT_location[DW_OP_breg20 -18]

$C$DW$338	.dwtag  DW_TAG_variable
	.dwattr $C$DW$338, DW_AT_name("maxlen2")
	.dwattr $C$DW$338, DW_AT_type(*$C$DW$T$9)
	.dwattr $C$DW$338, DW_AT_location[DW_OP_breg20 -19]

$C$DW$339	.dwtag  DW_TAG_variable
	.dwattr $C$DW$339, DW_AT_name("ndata")
	.dwattr $C$DW$339, DW_AT_type(*$C$DW$T$9)
	.dwattr $C$DW$339, DW_AT_location[DW_OP_breg20 -20]

        MOV       *-SP[17],AL           ; [CPU_ALU] |172| 
        MOVL      *-SP[10],XAR5         ; [CPU_ALU] |172| 
        MOVL      *-SP[8],XAR4          ; [CPU_ALU] |172| 
	.dwpsn	file "../Application/Dynamixel.c",line 182,column 5,is_stmt,isa 0
        MOVL      XAR4,#||ODTempMsgBuf|| ; [CPU_ARAU] |182| 
        MOVL      *-SP[2],XAR4          ; [CPU_ALU] |182| 
	.dwpsn	file "../Application/Dynamixel.c",line 184,column 5,is_stmt,isa 0
        MOVB      ACC,#70               ; [CPU_ALU] |184| 
        ADDL      ACC,*-SP[10]          ; [CPU_ALU] |184| 
        MOVL      *-SP[14],ACC          ; [CPU_ALU] |184| 
	.dwpsn	file "../Application/Dynamixel.c",line 185,column 5,is_stmt,isa 0
        MOVL      XAR4,*-SP[10]         ; [CPU_ALU] |185| 
        MOVU      ACC,*+XAR4[3]         ; [CPU_ALU] |185| 
        ADDL      ACC,*-SP[14]          ; [CPU_ALU] |185| 
        MOVL      *-SP[16],ACC          ; [CPU_ALU] |185| 
	.dwpsn	file "../Application/Dynamixel.c",line 186,column 5,is_stmt,isa 0
        MOV       *-SP[6],#65535        ; [CPU_ALU] |186| 
	.dwpsn	file "../Application/Dynamixel.c",line 187,column 5,is_stmt,isa 0
        MOV       *-SP[4],#0            ; [CPU_ALU] |187| 
	.dwpsn	file "../Application/Dynamixel.c",line 189,column 5,is_stmt,isa 0
        B         ||$C$L61||,UNC        ; [CPU_ALU] |189| 
        ; branch occurs ; [] |189| 
||$C$L58||:    
	.dwpsn	file "../Application/Dynamixel.c",line 191,column 9,is_stmt,isa 0
        MOVB      *-SP[18],#30,UNC      ; [CPU_ALU] |191| 
	.dwpsn	file "../Application/Dynamixel.c",line 192,column 9,is_stmt,isa 0
        MOV       AL,*-SP[16]           ; [CPU_ALU] |192| 
        SUB       AL,*-SP[14]           ; [CPU_ALU] |192| 
        MOV       *-SP[19],AL           ; [CPU_ALU] |192| 
	.dwpsn	file "../Application/Dynamixel.c",line 193,column 9,is_stmt,isa 0
        CMP       AL,*-SP[18]           ; [CPU_ALU] |193| 
        B         ||$C$L59||,HIS        ; [CPU_ALU] |193| 
        ; branchcc occurs ; [] |193| 
	.dwpsn	file "../Application/Dynamixel.c",line 193,column 33,is_stmt,isa 0
        MOV       *-SP[18],AL           ; [CPU_ALU] |193| 
||$C$L59||:    
	.dwpsn	file "../Application/Dynamixel.c",line 195,column 9,is_stmt,isa 0
        MOVZ      AR4,SP                ; [CPU_ALU] |195| 
        MOV       AL,*-SP[18]           ; [CPU_ALU] |195| 
        SUBB      XAR4,#6               ; [CPU_ARAU] |195| 
        MOVZ      AR5,AR4               ; [CPU_ALU] |195| 
        MOVL      XAR4,*-SP[14]         ; [CPU_ALU] |195| 
$C$DW$340	.dwtag  DW_TAG_TI_branch
	.dwattr $C$DW$340, DW_AT_low_pc(0x00)
	.dwattr $C$DW$340, DW_AT_name("GetDynamixelString")
	.dwattr $C$DW$340, DW_AT_TI_call

        LCR       #||GetDynamixelString|| ; [CPU_ALU] |195| 
        ; call occurs [#||GetDynamixelString||] ; [] |195| 
        MOVL      *-SP[12],XAR4         ; [CPU_ALU] |195| 
	.dwpsn	file "../Application/Dynamixel.c",line 196,column 9,is_stmt,isa 0
        MOVL      ACC,*-SP[14]          ; [CPU_ALU] |196| 
        CMPL      ACC,*-SP[12]          ; [CPU_ALU] |196| 
        B         ||$C$L60||,NEQ        ; [CPU_ALU] |196| 
        ; branchcc occurs ; [] |196| 
	.dwpsn	file "../Application/Dynamixel.c",line 198,column 13,is_stmt,isa 0
        MOVL      XAR4,#4098            ; [CPU_ARAU] |198| 
        B         ||$C$L70||,UNC        ; [CPU_ALU] |198| 
        ; branch occurs ; [] |198| 
||$C$L60||:    
	.dwpsn	file "../Application/Dynamixel.c",line 200,column 9,is_stmt,isa 0
        MOVL      ACC,*-SP[12]          ; [CPU_ALU] |200| 
        MOVL      *-SP[14],ACC          ; [CPU_ALU] |200| 
	.dwpsn	file "../Application/Dynamixel.c",line 201,column 9,is_stmt,isa 0
        MOVL      XAR7,*-SP[2]          ; [CPU_ALU] |201| 
        MOV       AL,*+XAR7[0]          ; [CPU_ALU] |201| 
        MOV       *-SP[6],AL            ; [CPU_ALU] |201| 
	.dwpsn	file "../Application/Dynamixel.c",line 202,column 9,is_stmt,isa 0
        MOVL      XAR4,*-SP[2]          ; [CPU_ALU] |202| 
        MOV       AL,*+XAR4[3]          ; [CPU_ALU] |202| 
        MOV       *-SP[4],AL            ; [CPU_ALU] |202| 
	.dwpsn	file "../Application/Dynamixel.c",line 203,column 9,is_stmt,isa 0
        MOVL      XAR4,*-SP[2]          ; [CPU_ALU] |203| 
        MOV       AL,*+XAR4[4]          ; [CPU_ALU] |203| 
        MOV       *-SP[3],AL            ; [CPU_ALU] |203| 
||$C$L61||:    
	.dwpsn	file "../Application/Dynamixel.c",line 189,column 12,is_stmt,isa 0
        MOVZ      AR6,*-SP[6]           ; [CPU_ALU] |189| 
        MOVU      ACC,*-SP[17]          ; [CPU_ALU] |189| 
        CMPL      ACC,XAR6              ; [CPU_ALU] |189| 
        B         ||$C$L58||,NEQ        ; [CPU_ALU] |189| 
        ; branchcc occurs ; [] |189| 
	.dwpsn	file "../Application/Dynamixel.c",line 206,column 5,is_stmt,isa 0
        MOV       AL,*-SP[4]            ; [CPU_ALU] |206| 
        CMPB      AL,#85                ; [CPU_ALU] |206| 
        B         ||$C$L62||,EQ         ; [CPU_ALU] |206| 
        ; branchcc occurs ; [] |206| 
	.dwpsn	file "../Application/Dynamixel.c",line 208,column 9,is_stmt,isa 0
        MOVL      XAR4,#4103            ; [CPU_ARAU] |208| 
        B         ||$C$L70||,UNC        ; [CPU_ALU] |208| 
        ; branch occurs ; [] |208| 
||$C$L62||:    
	.dwpsn	file "../Application/Dynamixel.c",line 210,column 5,is_stmt,isa 0
        MOV       AL,*-SP[3]            ; [CPU_ALU] |210| 
        B         ||$C$L63||,EQ         ; [CPU_ALU] |210| 
        ; branchcc occurs ; [] |210| 
	.dwpsn	file "../Application/Dynamixel.c",line 212,column 9,is_stmt,isa 0
        MOVL      XAR4,#4104            ; [CPU_ARAU] |212| 
        B         ||$C$L70||,UNC        ; [CPU_ALU] |212| 
        ; branch occurs ; [] |212| 
||$C$L63||:    
	.dwpsn	file "../Application/Dynamixel.c",line 214,column 5,is_stmt,isa 0
        MOVL      XAR5,*-SP[2]          ; [CPU_ALU] |214| 
        MOVL      XAR4,*-SP[2]          ; [CPU_ALU] |214| 
        MOV       ACC,*+XAR5[2] << #8   ; [CPU_ALU] |214| 
        ADD       AL,*+XAR4[1]          ; [CPU_ALU] |214| 
        ADDB      AL,#-4                ; [CPU_ALU] |214| 
        MOV       *-SP[20],AL           ; [CPU_ALU] |214| 
	.dwpsn	file "../Application/Dynamixel.c",line 215,column 5,is_stmt,isa 0
        B         ||$C$L68||,UNC        ; [CPU_ALU] |215| 
        ; branch occurs ; [] |215| 
||$C$L64||:    
	.dwpsn	file "../Application/Dynamixel.c",line 218,column 9,is_stmt,isa 0
        MOVL      XAR5,*-SP[24]         ; [CPU_ALU] |218| 
        MOVU      ACC,*+XAR4[5]         ; [CPU_ALU] |218| 
        MOVL      *+XAR5[0],ACC         ; [CPU_ALU] |218| 
	.dwpsn	file "../Application/Dynamixel.c",line 219,column 9,is_stmt,isa 0
        B         ||$C$L69||,UNC        ; [CPU_ALU] |219| 
        ; branch occurs ; [] |219| 
||$C$L65||:    
	.dwpsn	file "../Application/Dynamixel.c",line 221,column 9,is_stmt,isa 0
        MOV       ACC,*+XAR5[6] << #8   ; [CPU_ALU] |221| 
        ADD       AL,*+XAR4[5]          ; [CPU_ALU] |221| 
        MOVL      XAR4,*-SP[24]         ; [CPU_FPU] |221| 
        MOVU      ACC,AL                ; [CPU_ALU] |221| 
        MOVL      *+XAR4[0],ACC         ; [CPU_ALU] |221| 
	.dwpsn	file "../Application/Dynamixel.c",line 222,column 9,is_stmt,isa 0
        B         ||$C$L69||,UNC        ; [CPU_ALU] |222| 
        ; branch occurs ; [] |222| 
||$C$L66||:    
	.dwpsn	file "../Application/Dynamixel.c",line 224,column 9,is_stmt,isa 0
        CLRC      SXM                   ; [CPU_ALU] 
        MOV       ACC,*+XAR5[6] << 8    ; [CPU_ALU] |224| 
        ADDU      ACC,*+XAR4[5]         ; [CPU_ALU] |224| 
        MOVL      XAR7,ACC              ; [CPU_ALU] |224| 
        MOV       ACC,*+XAR5[7] << 16   ; [CPU_ALU] |224| 
        ADDL      ACC,XAR7              ; [CPU_ALU] |224| 
        MOVL      XAR6,ACC              ; [CPU_ALU] |224| 
        MOVB      ACC,#8                ; [CPU_ALU] |224| 
        ADDL      ACC,*-SP[2]           ; [CPU_ALU] |224| 
        MOVL      XAR4,ACC              ; [CPU_ALU] |224| 
        MOVU      ACC,*+XAR4[0]         ; [CPU_ALU] |224| 
        MOVL      XAR4,*-SP[24]         ; [CPU_ALU] |224| 
        MOV       T,#24                 ; [CPU_ALU] |224| 
        LSLL      ACC,T                 ; [CPU_ALU] |224| 
        ADDL      ACC,XAR6              ; [CPU_ALU] |224| 
        MOVL      *+XAR4[0],ACC         ; [CPU_ALU] |224| 
	.dwpsn	file "../Application/Dynamixel.c",line 226,column 9,is_stmt,isa 0
        B         ||$C$L69||,UNC        ; [CPU_ALU] |226| 
        ; branch occurs ; [] |226| 
||$C$L67||:    
	.dwpsn	file "../Application/Dynamixel.c",line 228,column 9,is_stmt,isa 0
        MOVL      XAR4,#4105            ; [CPU_ARAU] |228| 
        B         ||$C$L70||,UNC        ; [CPU_ALU] |228| 
        ; branch occurs ; [] |228| 
||$C$L68||:    
	.dwpsn	file "../Application/Dynamixel.c",line 215,column 5,is_stmt,isa 0
        CMPB      AL,#1                 ; [CPU_ALU] |215| 
        B         ||$C$L64||,EQ         ; [CPU_ALU] |215| 
        ; branchcc occurs ; [] |215| 
        CMPB      AL,#2                 ; [CPU_ALU] |215| 
        B         ||$C$L65||,EQ         ; [CPU_ALU] |215| 
        ; branchcc occurs ; [] |215| 
        CMPB      AL,#4                 ; [CPU_ALU] |215| 
        B         ||$C$L66||,EQ         ; [CPU_ALU] |215| 
        ; branchcc occurs ; [] |215| 
        B         ||$C$L67||,UNC        ; [CPU_ALU] |215| 
        ; branch occurs ; [] |215| 
||$C$L69||:    
	.dwpsn	file "../Application/Dynamixel.c",line 230,column 5,is_stmt,isa 0
        MOVL      XAR7,*-SP[8]          ; [CPU_ALU] |230| 
        MOV       AL,*-SP[20]           ; [CPU_ALU] |230| 
        MOV       *+XAR7[0],AL          ; [CPU_ALU] |230| 
	.dwpsn	file "../Application/Dynamixel.c",line 232,column 5,is_stmt,isa 0
        MOVB      XAR4,#0               ; [CPU_ALU] |232| 
||$C$L70||:    
	.dwpsn	file "../Application/Dynamixel.c",line 233,column 1,is_stmt,isa 0
        SUBB      SP,#20                ; [CPU_ARAU] |232| 
	.dwcfi	cfa_offset, -2
        MOVL      ACC,XAR4              ; [CPU_ALU] |232| 
$C$DW$341	.dwtag  DW_TAG_TI_branch
	.dwattr $C$DW$341, DW_AT_low_pc(0x00)
	.dwattr $C$DW$341, DW_AT_TI_return

        LRETR     ; [CPU_ALU] 
        ; return occurs ; [] 
	.dwattr $C$DW$325, DW_AT_TI_end_file("../Application/Dynamixel.c")
	.dwattr $C$DW$325, DW_AT_TI_end_line(0xe9)
	.dwattr $C$DW$325, DW_AT_TI_end_column(0x01)
	.dwendentry
	.dwendtag $C$DW$325

	.sect	".text:StructDecode"
	.clink
	.global	||StructDecode||

$C$DW$342	.dwtag  DW_TAG_subprogram
	.dwattr $C$DW$342, DW_AT_name("StructDecode")
	.dwattr $C$DW$342, DW_AT_low_pc(||StructDecode||)
	.dwattr $C$DW$342, DW_AT_high_pc(0x00)
	.dwattr $C$DW$342, DW_AT_linkage_name("StructDecode")
	.dwattr $C$DW$342, DW_AT_external
	.dwattr $C$DW$342, DW_AT_type(*$C$DW$T$9)
	.dwattr $C$DW$342, DW_AT_decl_file("../Application/Dynamixel.c")
	.dwattr $C$DW$342, DW_AT_decl_line(0xf6)
	.dwattr $C$DW$342, DW_AT_decl_column(0x10)
	.dwattr $C$DW$342, DW_AT_TI_max_frame_size(-14)
	.dwpsn	file "../Application/Dynamixel.c",line 247,column 1,is_stmt,address ||StructDecode||,isa 0

	.dwfde $C$DW$CIE, ||StructDecode||
$C$DW$343	.dwtag  DW_TAG_formal_parameter
	.dwattr $C$DW$343, DW_AT_name("buf")
	.dwattr $C$DW$343, DW_AT_type(*$C$DW$T$100)
	.dwattr $C$DW$343, DW_AT_location[DW_OP_reg12]

$C$DW$344	.dwtag  DW_TAG_formal_parameter
	.dwattr $C$DW$344, DW_AT_name("key")
	.dwattr $C$DW$344, DW_AT_type(*$C$DW$T$266)
	.dwattr $C$DW$344, DW_AT_location[DW_OP_reg14]

$C$DW$345	.dwtag  DW_TAG_formal_parameter
	.dwattr $C$DW$345, DW_AT_name("offset")
	.dwattr $C$DW$345, DW_AT_type(*$C$DW$T$9)
	.dwattr $C$DW$345, DW_AT_location[DW_OP_reg0]


;***************************************************************
;* FNAME: StructDecode                  FR SIZE:  12           *
;*                                                             *
;* FUNCTION ENVIRONMENT                                        *
;*                                                             *
;* FUNCTION PROPERTIES                                         *
;*                            0 Parameter, 12 Auto,  0 SOE     *
