;***************************************************************
;* TMS320C2000 G3 C/C++ Codegen                               PC v22.6.1.LTS *
;* Date/Time created: Tue Oct  8 21:28:16 2024                 *
;***************************************************************
	.compiler_opts --abi=eabi --cla_support=cla0 --float_support=fpu64 --hll_source=on --idiv_support=idiv0 --issue_remarks --mem_model:code=flat --mem_model:data=large --object_format=elf --quiet --silicon_errata_fpu1_workaround=off --silicon_version=28 --symdebug:dwarf --symdebug:dwarf_version=4 --tmu_support=tmu0 
	.asg	XAR2, FP

$C$DW$CU	.dwtag  DW_TAG_compile_unit
	.dwattr $C$DW$CU, DW_AT_name("../F2838x_driverlib/driverlib/interrupt.c")
	.dwattr $C$DW$CU, DW_AT_producer("TI TMS320C2000 G3 C/C++ Codegen PC v22.6.1.LTS Copyright (c) 1996-2018 Texas Instruments Incorporated")
	.dwattr $C$DW$CU, DW_AT_TI_version(0x01)
	.dwattr $C$DW$CU, DW_AT_comp_dir("C:\Yahali\Nimrod\Sw3\BolshoyManipCpu2R3\CPU2")
;	C:\ti\ccs1250\ccs\tools\compiler\ti-cgt-c2000_22.6.1.LTS\bin\acia2000.exe -@C:\\Users\\yahal\\AppData\\Local\\Temp\\{7B4545AC-4F08-4A4D-ADF6-C1C70BADA4F5} 
	.sect	".text:Interrupt_enableMaster"
	.clink

$C$DW$1	.dwtag  DW_TAG_subprogram
	.dwattr $C$DW$1, DW_AT_name("Interrupt_enableMaster")
	.dwattr $C$DW$1, DW_AT_low_pc(||Interrupt_enableMaster||)
	.dwattr $C$DW$1, DW_AT_high_pc(0x00)
	.dwattr $C$DW$1, DW_AT_linkage_name("Interrupt_enableMaster")
	.dwattr $C$DW$1, DW_AT_type(*$C$DW$T$32)
	.dwattr $C$DW$1, DW_AT_decl_file("..\F2838x_driverlib\driverlib\interrupt.h")
	.dwattr $C$DW$1, DW_AT_decl_line(0xba)
	.dwattr $C$DW$1, DW_AT_decl_column(0x01)
	.dwattr $C$DW$1, DW_AT_TI_max_frame_size(-2)
	.dwpsn	file "..\F2838x_driverlib\driverlib\interrupt.h",line 187,column 1,is_stmt,address ||Interrupt_enableMaster||,isa 0

	.dwfde $C$DW$CIE, ||Interrupt_enableMaster||

;***************************************************************
;* FNAME: Interrupt_enableMaster        FR SIZE:   0           *
;*                                                             *
;* FUNCTION ENVIRONMENT                                        *
;*                                                             *
;* FUNCTION PROPERTIES                                         *
;*                            0 Parameter,  0 Auto,  0 SOE     *
;***************************************************************

||Interrupt_enableMaster||:
	.dwcfi	cfa_offset, -2
	.dwcfi	save_reg_to_mem, 26, 0
	.dwpsn	file "..\F2838x_driverlib\driverlib\interrupt.h",line 191,column 5,is_stmt,isa 0
        MOVB      AL,#0                 ; [CPU_ALU] |191| 
        PUSH      ST1                   ; [CPU_ALU] |191| 
        CLRC      INTM, DBGM            ; [CPU_ALU] |191| 
        MOV       AH,*--SP              ; [CPU_ALU] |191| 
        TBIT      AH,#0                 ; [CPU_ALU] |191| 
        B         ||$C$L1||,NTC         ; [CPU_ALU] |191| 
        ; branchcc occurs ; [] |191| 
        MOVB      AH,#1                 ; [CPU_ALU] |191| 
        B         ||$C$L2||,UNC         ; [CPU_ALU] |191| 
        ; branch occurs ; [] |191| 
||$C$L1||:    
        MOVB      AH,#0                 ; [CPU_ALU] |191| 
||$C$L2||:    
        CMPB      AH,#0                 ; [CPU_ALU] |191| 
        B         ||$C$L3||,EQ          ; [CPU_ALU] |191| 
        ; branchcc occurs ; [] |191| 
        MOVB      AL,#1                 ; [CPU_ALU] |191| 
||$C$L3||:    
	.dwpsn	file "..\F2838x_driverlib\driverlib\interrupt.h",line 192,column 1,is_stmt,isa 0
$C$DW$2	.dwtag  DW_TAG_TI_branch
	.dwattr $C$DW$2, DW_AT_low_pc(0x00)
	.dwattr $C$DW$2, DW_AT_TI_return

        LRETR     ; [CPU_ALU] 
        ; return occurs ; [] 
	.dwattr $C$DW$1, DW_AT_TI_end_file("..\F2838x_driverlib\driverlib\interrupt.h")
	.dwattr $C$DW$1, DW_AT_TI_end_line(0xc0)
	.dwattr $C$DW$1, DW_AT_TI_end_column(0x01)
	.dwendentry
	.dwendtag $C$DW$1

	.sect	".text:Interrupt_disableMaster"
	.clink

$C$DW$3	.dwtag  DW_TAG_subprogram
	.dwattr $C$DW$3, DW_AT_name("Interrupt_disableMaster")
	.dwattr $C$DW$3, DW_AT_low_pc(||Interrupt_disableMaster||)
	.dwattr $C$DW$3, DW_AT_high_pc(0x00)
	.dwattr $C$DW$3, DW_AT_linkage_name("Interrupt_disableMaster")
	.dwattr $C$DW$3, DW_AT_type(*$C$DW$T$32)
	.dwattr $C$DW$3, DW_AT_decl_file("..\F2838x_driverlib\driverlib\interrupt.h")
	.dwattr $C$DW$3, DW_AT_decl_line(0xce)
	.dwattr $C$DW$3, DW_AT_decl_column(0x01)
	.dwattr $C$DW$3, DW_AT_TI_max_frame_size(-2)
	.dwpsn	file "..\F2838x_driverlib\driverlib\interrupt.h",line 207,column 1,is_stmt,address ||Interrupt_disableMaster||,isa 0

	.dwfde $C$DW$CIE, ||Interrupt_disableMaster||

;***************************************************************
;* FNAME: Interrupt_disableMaster       FR SIZE:   0           *
;*                                                             *
;* FUNCTION ENVIRONMENT                                        *
;*                                                             *
;* FUNCTION PROPERTIES                                         *
;*                            0 Parameter,  0 Auto,  0 SOE     *
;***************************************************************

||Interrupt_disableMaster||:
	.dwcfi	cfa_offset, -2
	.dwcfi	save_reg_to_mem, 26, 0
	.dwpsn	file "..\F2838x_driverlib\driverlib\interrupt.h",line 211,column 5,is_stmt,isa 0
        MOVB      AL,#0                 ; [CPU_ALU] |211| 
        PUSH      ST1                   ; [CPU_ALU] |211| 
        SETC      INTM, DBGM            ; [CPU_ALU] |211| 
        MOV       AH,*--SP              ; [CPU_ALU] |211| 
        TBIT      AH,#0                 ; [CPU_ALU] |211| 
        B         ||$C$L4||,NTC         ; [CPU_ALU] |211| 
        ; branchcc occurs ; [] |211| 
        MOVB      AH,#1                 ; [CPU_ALU] |211| 
        B         ||$C$L5||,UNC         ; [CPU_ALU] |211| 
        ; branch occurs ; [] |211| 
||$C$L4||:    
        MOVB      AH,#0                 ; [CPU_ALU] |211| 
||$C$L5||:    
        CMPB      AH,#0                 ; [CPU_ALU] |211| 
        B         ||$C$L6||,EQ          ; [CPU_ALU] |211| 
        ; branchcc occurs ; [] |211| 
        MOVB      AL,#1                 ; [CPU_ALU] |211| 
||$C$L6||:    
	.dwpsn	file "..\F2838x_driverlib\driverlib\interrupt.h",line 212,column 1,is_stmt,isa 0
$C$DW$4	.dwtag  DW_TAG_TI_branch
	.dwattr $C$DW$4, DW_AT_low_pc(0x00)
	.dwattr $C$DW$4, DW_AT_TI_return

        LRETR     ; [CPU_ALU] 
        ; return occurs ; [] 
	.dwattr $C$DW$3, DW_AT_TI_end_file("..\F2838x_driverlib\driverlib\interrupt.h")
	.dwattr $C$DW$3, DW_AT_TI_end_line(0xd4)
	.dwattr $C$DW$3, DW_AT_TI_end_column(0x01)
	.dwendentry
	.dwendtag $C$DW$3

	.sect	".text:Interrupt_defaultHandler"
	.clink

$C$DW$5	.dwtag  DW_TAG_subprogram
	.dwattr $C$DW$5, DW_AT_name("Interrupt_defaultHandler")
	.dwattr $C$DW$5, DW_AT_low_pc(||Interrupt_defaultHandler||)
	.dwattr $C$DW$5, DW_AT_high_pc(0x00)
	.dwattr $C$DW$5, DW_AT_linkage_name("Interrupt_defaultHandler")
	.dwattr $C$DW$5, DW_AT_decl_file("..\F2838x_driverlib\driverlib\interrupt.h")
	.dwattr $C$DW$5, DW_AT_decl_line(0x8a)
	.dwattr $C$DW$5, DW_AT_decl_column(0x0d)
	.dwattr $C$DW$5, DW_AT_TI_max_frame_size(-4)
	.dwpsn	file "..\F2838x_driverlib\driverlib\interrupt.h",line 139,column 1,is_stmt,address ||Interrupt_defaultHandler||,isa 0

	.dwfde $C$DW$CIE, ||Interrupt_defaultHandler||

;***************************************************************
;* FNAME: Interrupt_defaultHandler      FR SIZE:   2           *
;*                                                             *
;* FUNCTION ENVIRONMENT                                        *
;*                                                             *
;* FUNCTION PROPERTIES                                         *
;*                            0 Parameter,  2 Auto,  0 SOE     *
;***************************************************************

||Interrupt_defaultHandler||:
	.dwcfi	cfa_offset, -2
	.dwcfi	save_reg_to_mem, 26, 0
        ADDB      SP,#2                 ; [CPU_ARAU] 
	.dwcfi	cfa_offset, -4
$C$DW$6	.dwtag  DW_TAG_variable
	.dwattr $C$DW$6, DW_AT_name("pieVect")
	.dwattr $C$DW$6, DW_AT_type(*$C$DW$T$22)
	.dwattr $C$DW$6, DW_AT_location[DW_OP_breg20 -1]

$C$DW$7	.dwtag  DW_TAG_variable
	.dwattr $C$DW$7, DW_AT_name("vectID")
	.dwattr $C$DW$7, DW_AT_type(*$C$DW$T$22)
	.dwattr $C$DW$7, DW_AT_location[DW_OP_breg20 -2]

	.dwpsn	file "..\F2838x_driverlib\driverlib\interrupt.h",line 148,column 5,is_stmt,isa 0
        MOV       *-SP[1],*(0:0x0ce0)   ; [CPU_ALU] |148| 
	.dwpsn	file "..\F2838x_driverlib\driverlib\interrupt.h",line 149,column 5,is_stmt,isa 0
        MOV       AL,*-SP[1]            ; [CPU_ALU] |149| 
        ANDB      AL,#0xfe              ; [CPU_ALU] |149| 
        LSR       AL,1                  ; [CPU_ALU] |149| 
        MOV       *-SP[2],AL            ; [CPU_ALU] |149| 
	.dwpsn	file "..\F2838x_driverlib\driverlib\interrupt.h",line 154,column 5,is_stmt,isa 0
        CMP       *-SP[1],#3584         ; [CPU_ALU] |154| 
        B         ||$C$L7||,LO          ; [CPU_ALU] |154| 
        ; branchcc occurs ; [] |154| 
	.dwpsn	file "..\F2838x_driverlib\driverlib\interrupt.h",line 156,column 9,is_stmt,isa 0
        ADD       *-SP[2],#128          ; [CPU_ALU] |156| 
||$C$L7||:    
	.dwpsn	file "..\F2838x_driverlib\driverlib\interrupt.h",line 164,column 5,is_stmt,isa 0
 ESTOP0
||$C$L8||:    
	.dwpsn	file "..\F2838x_driverlib\driverlib\interrupt.h",line 168,column 5,is_stmt,isa 0
        B         ||$C$L8||,UNC         ; [CPU_ALU] |168| 
        ; branch occurs ; [] |168| 
	.dwattr $C$DW$5, DW_AT_TI_end_file("..\F2838x_driverlib\driverlib\interrupt.h")
	.dwattr $C$DW$5, DW_AT_TI_end_line(0xa9)
	.dwattr $C$DW$5, DW_AT_TI_end_column(0x01)
	.dwendentry
	.dwendtag $C$DW$5

	.sect	".text:Interrupt_clearIFR"
	.clink

$C$DW$8	.dwtag  DW_TAG_subprogram
	.dwattr $C$DW$8, DW_AT_name("Interrupt_clearIFR")
	.dwattr $C$DW$8, DW_AT_low_pc(||Interrupt_clearIFR||)
	.dwattr $C$DW$8, DW_AT_high_pc(0x00)
	.dwattr $C$DW$8, DW_AT_linkage_name("Interrupt_clearIFR")
	.dwattr $C$DW$8, DW_AT_decl_file("../F2838x_driverlib/driverlib/interrupt.c")
	.dwattr $C$DW$8, DW_AT_decl_line(0x38)
	.dwattr $C$DW$8, DW_AT_decl_column(0x0d)
	.dwattr $C$DW$8, DW_AT_TI_max_frame_size(-4)
	.dwpsn	file "../F2838x_driverlib/driverlib/interrupt.c",line 57,column 1,is_stmt,address ||Interrupt_clearIFR||,isa 0

	.dwfde $C$DW$CIE, ||Interrupt_clearIFR||
$C$DW$9	.dwtag  DW_TAG_formal_parameter
	.dwattr $C$DW$9, DW_AT_name("group")
	.dwattr $C$DW$9, DW_AT_type(*$C$DW$T$22)
	.dwattr $C$DW$9, DW_AT_location[DW_OP_reg0]


;***************************************************************
;* FNAME: Interrupt_clearIFR            FR SIZE:   2           *
;*                                                             *
;* FUNCTION ENVIRONMENT                                        *
;*                                                             *
;* FUNCTION PROPERTIES                                         *
;*                            0 Parameter,  1 Auto,  0 SOE     *
;***************************************************************

||Interrupt_clearIFR||:
	.dwcfi	cfa_offset, -2
	.dwcfi	save_reg_to_mem, 26, 0
        ADDB      SP,#2                 ; [CPU_ARAU] 
	.dwcfi	cfa_offset, -4
$C$DW$10	.dwtag  DW_TAG_variable
	.dwattr $C$DW$10, DW_AT_name("group")
	.dwattr $C$DW$10, DW_AT_type(*$C$DW$T$22)
	.dwattr $C$DW$10, DW_AT_location[DW_OP_breg20 -1]

        MOV       *-SP[1],AL            ; [CPU_ALU] |57| 
	.dwpsn	file "../F2838x_driverlib/driverlib/interrupt.c",line 58,column 5,is_stmt,isa 0
        B         ||$C$L25||,UNC        ; [CPU_ALU] |58| 
        ; branch occurs ; [] |58| 
||$C$L9||:    
	.dwpsn	file "../F2838x_driverlib/driverlib/interrupt.c",line 61,column 13,is_stmt,isa 0
        AND       IFR,#0xfffe           ; [CPU_ALU] |61| 
	.dwpsn	file "../F2838x_driverlib/driverlib/interrupt.c",line 62,column 13,is_stmt,isa 0
        B         ||$C$L29||,UNC        ; [CPU_ALU] |62| 
        ; branch occurs ; [] |62| 
||$C$L10||:    
	.dwpsn	file "../F2838x_driverlib/driverlib/interrupt.c",line 64,column 13,is_stmt,isa 0
        AND       IFR,#0xfffd           ; [CPU_ALU] |64| 
	.dwpsn	file "../F2838x_driverlib/driverlib/interrupt.c",line 65,column 13,is_stmt,isa 0
        B         ||$C$L29||,UNC        ; [CPU_ALU] |65| 
        ; branch occurs ; [] |65| 
||$C$L11||:    
	.dwpsn	file "../F2838x_driverlib/driverlib/interrupt.c",line 67,column 13,is_stmt,isa 0
        AND       IFR,#0xfffb           ; [CPU_ALU] |67| 
	.dwpsn	file "../F2838x_driverlib/driverlib/interrupt.c",line 68,column 13,is_stmt,isa 0
        B         ||$C$L29||,UNC        ; [CPU_ALU] |68| 
        ; branch occurs ; [] |68| 
||$C$L12||:    
	.dwpsn	file "../F2838x_driverlib/driverlib/interrupt.c",line 70,column 13,is_stmt,isa 0
        AND       IFR,#0xfff7           ; [CPU_ALU] |70| 
	.dwpsn	file "../F2838x_driverlib/driverlib/interrupt.c",line 71,column 13,is_stmt,isa 0
        B         ||$C$L29||,UNC        ; [CPU_ALU] |71| 
        ; branch occurs ; [] |71| 
||$C$L13||:    
	.dwpsn	file "../F2838x_driverlib/driverlib/interrupt.c",line 73,column 13,is_stmt,isa 0
        AND       IFR,#0xffef           ; [CPU_ALU] |73| 
	.dwpsn	file "../F2838x_driverlib/driverlib/interrupt.c",line 74,column 13,is_stmt,isa 0
        B         ||$C$L29||,UNC        ; [CPU_ALU] |74| 
        ; branch occurs ; [] |74| 
||$C$L14||:    
	.dwpsn	file "../F2838x_driverlib/driverlib/interrupt.c",line 76,column 13,is_stmt,isa 0
        AND       IFR,#0xffdf           ; [CPU_ALU] |76| 
	.dwpsn	file "../F2838x_driverlib/driverlib/interrupt.c",line 77,column 13,is_stmt,isa 0
        B         ||$C$L29||,UNC        ; [CPU_ALU] |77| 
        ; branch occurs ; [] |77| 
||$C$L15||:    
	.dwpsn	file "../F2838x_driverlib/driverlib/interrupt.c",line 79,column 13,is_stmt,isa 0
        AND       IFR,#0xffbf           ; [CPU_ALU] |79| 
	.dwpsn	file "../F2838x_driverlib/driverlib/interrupt.c",line 80,column 13,is_stmt,isa 0
        B         ||$C$L29||,UNC        ; [CPU_ALU] |80| 
        ; branch occurs ; [] |80| 
||$C$L16||:    
	.dwpsn	file "../F2838x_driverlib/driverlib/interrupt.c",line 82,column 13,is_stmt,isa 0
        AND       IFR,#0xff7f           ; [CPU_ALU] |82| 
	.dwpsn	file "../F2838x_driverlib/driverlib/interrupt.c",line 83,column 13,is_stmt,isa 0
        B         ||$C$L29||,UNC        ; [CPU_ALU] |83| 
        ; branch occurs ; [] |83| 
||$C$L17||:    
	.dwpsn	file "../F2838x_driverlib/driverlib/interrupt.c",line 85,column 13,is_stmt,isa 0
        AND       IFR,#0xfeff           ; [CPU_ALU] |85| 
	.dwpsn	file "../F2838x_driverlib/driverlib/interrupt.c",line 86,column 13,is_stmt,isa 0
        B         ||$C$L29||,UNC        ; [CPU_ALU] |86| 
        ; branch occurs ; [] |86| 
||$C$L18||:    
	.dwpsn	file "../F2838x_driverlib/driverlib/interrupt.c",line 88,column 13,is_stmt,isa 0
        AND       IFR,#0xfdff           ; [CPU_ALU] |88| 
	.dwpsn	file "../F2838x_driverlib/driverlib/interrupt.c",line 89,column 13,is_stmt,isa 0
        B         ||$C$L29||,UNC        ; [CPU_ALU] |89| 
        ; branch occurs ; [] |89| 
||$C$L19||:    
	.dwpsn	file "../F2838x_driverlib/driverlib/interrupt.c",line 91,column 13,is_stmt,isa 0
        AND       IFR,#0xfbff           ; [CPU_ALU] |91| 
	.dwpsn	file "../F2838x_driverlib/driverlib/interrupt.c",line 92,column 13,is_stmt,isa 0
        B         ||$C$L29||,UNC        ; [CPU_ALU] |92| 
        ; branch occurs ; [] |92| 
||$C$L20||:    
	.dwpsn	file "../F2838x_driverlib/driverlib/interrupt.c",line 94,column 13,is_stmt,isa 0
        AND       IFR,#0xf7ff           ; [CPU_ALU] |94| 
	.dwpsn	file "../F2838x_driverlib/driverlib/interrupt.c",line 95,column 13,is_stmt,isa 0
        B         ||$C$L29||,UNC        ; [CPU_ALU] |95| 
        ; branch occurs ; [] |95| 
||$C$L21||:    
	.dwpsn	file "../F2838x_driverlib/driverlib/interrupt.c",line 97,column 13,is_stmt,isa 0
        AND       IFR,#0xefff           ; [CPU_ALU] |97| 
	.dwpsn	file "../F2838x_driverlib/driverlib/interrupt.c",line 98,column 13,is_stmt,isa 0
        B         ||$C$L29||,UNC        ; [CPU_ALU] |98| 
        ; branch occurs ; [] |98| 
||$C$L22||:    
	.dwpsn	file "../F2838x_driverlib/driverlib/interrupt.c",line 100,column 13,is_stmt,isa 0
        AND       IFR,#0xdfff           ; [CPU_ALU] |100| 
	.dwpsn	file "../F2838x_driverlib/driverlib/interrupt.c",line 101,column 13,is_stmt,isa 0
        B         ||$C$L29||,UNC        ; [CPU_ALU] |101| 
        ; branch occurs ; [] |101| 
||$C$L23||:    
	.dwpsn	file "../F2838x_driverlib/driverlib/interrupt.c",line 103,column 13,is_stmt,isa 0
        AND       IFR,#0xbfff           ; [CPU_ALU] |103| 
	.dwpsn	file "../F2838x_driverlib/driverlib/interrupt.c",line 104,column 13,is_stmt,isa 0
        B         ||$C$L29||,UNC        ; [CPU_ALU] |104| 
        ; branch occurs ; [] |104| 
||$C$L24||:    
	.dwpsn	file "../F2838x_driverlib/driverlib/interrupt.c",line 106,column 13,is_stmt,isa 0
        AND       IFR,#0x7fff           ; [CPU_ALU] |106| 
	.dwpsn	file "../F2838x_driverlib/driverlib/interrupt.c",line 107,column 13,is_stmt,isa 0
        B         ||$C$L29||,UNC        ; [CPU_ALU] |107| 
        ; branch occurs ; [] |107| 
||$C$L25||:    
	.dwpsn	file "../F2838x_driverlib/driverlib/interrupt.c",line 58,column 5,is_stmt,isa 0
        CMPB      AL,#128               ; [CPU_ALU] |58| 
        MOVZ      AR6,*-SP[1]           ; [CPU_FPU] |58| 
        B         ||$C$L27||,GT         ; [CPU_ALU] |58| 
        ; branchcc occurs ; [] |58| 
        CMPB      AL,#128               ; [CPU_ALU] |58| 
        B         ||$C$L16||,EQ         ; [CPU_ALU] |58| 
        ; branchcc occurs ; [] |58| 
        CMPB      AL,#8                 ; [CPU_ALU] |58| 
        B         ||$C$L26||,GT         ; [CPU_ALU] |58| 
        ; branchcc occurs ; [] |58| 
        CMPB      AL,#8                 ; [CPU_ALU] |58| 
        B         ||$C$L12||,EQ         ; [CPU_ALU] |58| 
        ; branchcc occurs ; [] |58| 
        MOVZ      AR7,AR6               ; [CPU_ALU] |58| 
        CLRC      SXM                   ; [CPU_ALU] 
        MOV       ACC,#32768            ; [CPU_ALU] |58| 
        CMPL      ACC,XAR7              ; [CPU_ALU] |58| 
        B         ||$C$L24||,EQ         ; [CPU_ALU] |58| 
        ; branchcc occurs ; [] |58| 
        MOV       AL,AR6                ; [CPU_ALU] 
        CMPB      AL,#1                 ; [CPU_ALU] |58| 
        B         ||$C$L9||,EQ          ; [CPU_ALU] |58| 
        ; branchcc occurs ; [] |58| 
        CMPB      AL,#2                 ; [CPU_ALU] |58| 
        B         ||$C$L10||,EQ         ; [CPU_ALU] |58| 
        ; branchcc occurs ; [] |58| 
        CMPB      AL,#4                 ; [CPU_ALU] |58| 
        B         ||$C$L11||,EQ         ; [CPU_ALU] |58| 
        ; branchcc occurs ; [] |58| 
        B         ||$C$L29||,UNC        ; [CPU_ALU] |58| 
        ; branch occurs ; [] |58| 
||$C$L26||:    
        CMPB      AL,#16                ; [CPU_ALU] |58| 
        B         ||$C$L13||,EQ         ; [CPU_ALU] |58| 
        ; branchcc occurs ; [] |58| 
        CMPB      AL,#32                ; [CPU_ALU] |58| 
        B         ||$C$L14||,EQ         ; [CPU_ALU] |58| 
        ; branchcc occurs ; [] |58| 
        CMPB      AL,#64                ; [CPU_ALU] |58| 
        B         ||$C$L15||,EQ         ; [CPU_ALU] |58| 
        ; branchcc occurs ; [] |58| 
        B         ||$C$L29||,UNC        ; [CPU_ALU] |58| 
        ; branch occurs ; [] |58| 
||$C$L27||:    
        CMP       AR6,#2048             ; [CPU_ALU] |58| 
        B         ||$C$L28||,GT         ; [CPU_ALU] |58| 
        ; branchcc occurs ; [] |58| 
        CMP       AR6,#2048             ; [CPU_ALU] |58| 
        B         ||$C$L20||,EQ         ; [CPU_ALU] |58| 
        ; branchcc occurs ; [] |58| 
        MOVZ      AR7,AR6               ; [CPU_ALU] |58| 
        MOV       ACC,#256              ; [CPU_ALU] |58| 
        CMPL      ACC,XAR7              ; [CPU_ALU] |58| 
        B         ||$C$L17||,EQ         ; [CPU_ALU] |58| 
        ; branchcc occurs ; [] |58| 
        MOVZ      AR7,AR6               ; [CPU_ALU] |58| 
        MOV       ACC,#512              ; [CPU_ALU] |58| 
        CMPL      ACC,XAR7              ; [CPU_ALU] |58| 
        B         ||$C$L18||,EQ         ; [CPU_ALU] |58| 
        ; branchcc occurs ; [] |58| 
        MOVZ      AR6,AR6               ; [CPU_ALU] |58| 
        MOV       ACC,#1024             ; [CPU_ALU] |58| 
        CMPL      ACC,XAR6              ; [CPU_ALU] |58| 
        B         ||$C$L19||,EQ         ; [CPU_ALU] |58| 
        ; branchcc occurs ; [] |58| 
        B         ||$C$L29||,UNC        ; [CPU_ALU] |58| 
        ; branch occurs ; [] |58| 
||$C$L28||:    
        MOVZ      AR7,AR6               ; [CPU_ALU] |58| 
        MOV       ACC,#4096             ; [CPU_ALU] |58| 
        CMPL      ACC,XAR7              ; [CPU_ALU] |58| 
        B         ||$C$L21||,EQ         ; [CPU_ALU] |58| 
        ; branchcc occurs ; [] |58| 
        MOVZ      AR7,AR6               ; [CPU_ALU] |58| 
        MOV       ACC,#8192             ; [CPU_ALU] |58| 
        CMPL      ACC,XAR7              ; [CPU_ALU] |58| 
        B         ||$C$L22||,EQ         ; [CPU_ALU] |58| 
        ; branchcc occurs ; [] |58| 
        MOVZ      AR6,AR6               ; [CPU_ALU] |58| 
        MOV       ACC,#16384            ; [CPU_ALU] |58| 
        CMPL      ACC,XAR6              ; [CPU_ALU] |58| 
        B         ||$C$L23||,EQ         ; [CPU_ALU] |58| 
        ; branchcc occurs ; [] |58| 
        B         ||$C$L29||,UNC        ; [CPU_ALU] |58| 
        ; branch occurs ; [] |58| 
||$C$L29||:    
        SUBB      SP,#2                 ; [CPU_ARAU] 
	.dwcfi	cfa_offset, -2
$C$DW$11	.dwtag  DW_TAG_TI_branch
	.dwattr $C$DW$11, DW_AT_low_pc(0x00)
	.dwattr $C$DW$11, DW_AT_TI_return

        LRETR     ; [CPU_ALU] 
        ; return occurs ; [] 
	.dwattr $C$DW$8, DW_AT_TI_end_file("../F2838x_driverlib/driverlib/interrupt.c")
	.dwattr $C$DW$8, DW_AT_TI_end_line(0x73)
	.dwattr $C$DW$8, DW_AT_TI_end_column(0x01)
	.dwendentry
	.dwendtag $C$DW$8

	.sect	".text:Interrupt_initModule"
	.clink
	.global	||Interrupt_initModule||

$C$DW$12	.dwtag  DW_TAG_subprogram
	.dwattr $C$DW$12, DW_AT_name("Interrupt_initModule")
	.dwattr $C$DW$12, DW_AT_low_pc(||Interrupt_initModule||)
	.dwattr $C$DW$12, DW_AT_high_pc(0x00)
	.dwattr $C$DW$12, DW_AT_linkage_name("Interrupt_initModule")
	.dwattr $C$DW$12, DW_AT_external
	.dwattr $C$DW$12, DW_AT_decl_file("../F2838x_driverlib/driverlib/interrupt.c")
	.dwattr $C$DW$12, DW_AT_decl_line(0x7b)
	.dwattr $C$DW$12, DW_AT_decl_column(0x01)
	.dwattr $C$DW$12, DW_AT_TI_max_frame_size(-2)
	.dwpsn	file "../F2838x_driverlib/driverlib/interrupt.c",line 124,column 1,is_stmt,address ||Interrupt_initModule||,isa 0

	.dwfde $C$DW$CIE, ||Interrupt_initModule||

;***************************************************************
;* FNAME: Interrupt_initModule          FR SIZE:   0           *
;*                                                             *
;* FUNCTION ENVIRONMENT                                        *
;*                                                             *
;* FUNCTION PROPERTIES                                         *
;*                            0 Parameter,  0 Auto,  0 SOE     *
;***************************************************************

||Interrupt_initModule||:
	.dwcfi	cfa_offset, -2
	.dwcfi	save_reg_to_mem, 26, 0
	.dwpsn	file "../F2838x_driverlib/driverlib/interrupt.c",line 128,column 5,is_stmt,isa 0
$C$DW$13	.dwtag  DW_TAG_TI_branch
	.dwattr $C$DW$13, DW_AT_low_pc(0x00)
	.dwattr $C$DW$13, DW_AT_name("Interrupt_disableMaster")
	.dwattr $C$DW$13, DW_AT_TI_call

        LCR       #||Interrupt_disableMaster|| ; [CPU_ALU] |128| 
        ; call occurs [#||Interrupt_disableMaster||] ; [] |128| 
	.dwpsn	file "../F2838x_driverlib/driverlib/interrupt.c",line 129,column 5,is_stmt,isa 0
        AND       IER,#0x0000           ; [CPU_ALU] |129| 
	.dwpsn	file "../F2838x_driverlib/driverlib/interrupt.c",line 130,column 5,is_stmt,isa 0
        AND       IFR,#0x0000           ; [CPU_ALU] |130| 
	.dwpsn	file "../F2838x_driverlib/driverlib/interrupt.c",line 135,column 5,is_stmt,isa 0
        MOVB      AL,#0                 ; [CPU_ALU] |135| 
        MOV       *(0:0x0ce2),AL        ; [CPU_ALU] |135| 
	.dwpsn	file "../F2838x_driverlib/driverlib/interrupt.c",line 136,column 5,is_stmt,isa 0
        MOV       *(0:0x0ce4),AL        ; [CPU_ALU] |136| 
	.dwpsn	file "../F2838x_driverlib/driverlib/interrupt.c",line 137,column 5,is_stmt,isa 0
        MOV       *(0:0x0ce6),AL        ; [CPU_ALU] |137| 
	.dwpsn	file "../F2838x_driverlib/driverlib/interrupt.c",line 138,column 5,is_stmt,isa 0
        MOV       *(0:0x0ce8),AL        ; [CPU_ALU] |138| 
	.dwpsn	file "../F2838x_driverlib/driverlib/interrupt.c",line 139,column 5,is_stmt,isa 0
        MOV       *(0:0x0cea),AL        ; [CPU_ALU] |139| 
	.dwpsn	file "../F2838x_driverlib/driverlib/interrupt.c",line 140,column 5,is_stmt,isa 0
        MOV       *(0:0x0cec),AL        ; [CPU_ALU] |140| 
	.dwpsn	file "../F2838x_driverlib/driverlib/interrupt.c",line 141,column 5,is_stmt,isa 0
        MOV       *(0:0x0cee),AL        ; [CPU_ALU] |141| 
	.dwpsn	file "../F2838x_driverlib/driverlib/interrupt.c",line 142,column 5,is_stmt,isa 0
        MOV       *(0:0x0cf0),AL        ; [CPU_ALU] |142| 
	.dwpsn	file "../F2838x_driverlib/driverlib/interrupt.c",line 143,column 5,is_stmt,isa 0
        MOV       *(0:0x0cf2),AL        ; [CPU_ALU] |143| 
	.dwpsn	file "../F2838x_driverlib/driverlib/interrupt.c",line 144,column 5,is_stmt,isa 0
        MOV       *(0:0x0cf4),AL        ; [CPU_ALU] |144| 
	.dwpsn	file "../F2838x_driverlib/driverlib/interrupt.c",line 145,column 5,is_stmt,isa 0
        MOV       *(0:0x0cf6),AL        ; [CPU_ALU] |145| 
	.dwpsn	file "../F2838x_driverlib/driverlib/interrupt.c",line 146,column 5,is_stmt,isa 0
        MOV       *(0:0x0cf8),AL        ; [CPU_ALU] |146| 
	.dwpsn	file "../F2838x_driverlib/driverlib/interrupt.c",line 151,column 5,is_stmt,isa 0
        MOV       *(0:0x0ce3),AL        ; [CPU_ALU] |151| 
	.dwpsn	file "../F2838x_driverlib/driverlib/interrupt.c",line 152,column 5,is_stmt,isa 0
        MOV       *(0:0x0ce5),AL        ; [CPU_ALU] |152| 
	.dwpsn	file "../F2838x_driverlib/driverlib/interrupt.c",line 153,column 5,is_stmt,isa 0
        MOV       *(0:0x0ce7),AL        ; [CPU_ALU] |153| 
	.dwpsn	file "../F2838x_driverlib/driverlib/interrupt.c",line 154,column 5,is_stmt,isa 0
        MOV       *(0:0x0ce9),AL        ; [CPU_ALU] |154| 
	.dwpsn	file "../F2838x_driverlib/driverlib/interrupt.c",line 155,column 5,is_stmt,isa 0
        MOV       *(0:0x0ceb),AL        ; [CPU_ALU] |155| 
	.dwpsn	file "../F2838x_driverlib/driverlib/interrupt.c",line 156,column 5,is_stmt,isa 0
        MOV       *(0:0x0ced),AL        ; [CPU_ALU] |156| 
	.dwpsn	file "../F2838x_driverlib/driverlib/interrupt.c",line 157,column 5,is_stmt,isa 0
        MOV       *(0:0x0cef),AL        ; [CPU_ALU] |157| 
	.dwpsn	file "../F2838x_driverlib/driverlib/interrupt.c",line 158,column 5,is_stmt,isa 0
        MOV       *(0:0x0cf1),AL        ; [CPU_ALU] |158| 
	.dwpsn	file "../F2838x_driverlib/driverlib/interrupt.c",line 159,column 5,is_stmt,isa 0
        MOV       *(0:0x0cf3),AL        ; [CPU_ALU] |159| 
	.dwpsn	file "../F2838x_driverlib/driverlib/interrupt.c",line 160,column 5,is_stmt,isa 0
        MOV       *(0:0x0cf5),AL        ; [CPU_ALU] |160| 
	.dwpsn	file "../F2838x_driverlib/driverlib/interrupt.c",line 161,column 5,is_stmt,isa 0
        MOV       *(0:0x0cf7),AL        ; [CPU_ALU] |161| 
	.dwpsn	file "../F2838x_driverlib/driverlib/interrupt.c",line 162,column 5,is_stmt,isa 0
        MOV       *(0:0x0cf9),AL        ; [CPU_ALU] |162| 
	.dwpsn	file "../F2838x_driverlib/driverlib/interrupt.c",line 167,column 5,is_stmt,isa 0
        MOV       AL,*(0:0x0ce0)        ; [CPU_ALU] |167| 
        ORB       AL,#0x01              ; [CPU_ALU] |167| 
        MOV       *(0:0x0ce0),AL        ; [CPU_ALU] |167| 
	.dwpsn	file "../F2838x_driverlib/driverlib/interrupt.c",line 169,column 1,is_stmt,isa 0
$C$DW$14	.dwtag  DW_TAG_TI_branch
	.dwattr $C$DW$14, DW_AT_low_pc(0x00)
	.dwattr $C$DW$14, DW_AT_TI_return

        LRETR     ; [CPU_ALU] 
        ; return occurs ; [] 
	.dwattr $C$DW$12, DW_AT_TI_end_file("../F2838x_driverlib/driverlib/interrupt.c")
	.dwattr $C$DW$12, DW_AT_TI_end_line(0xa9)
	.dwattr $C$DW$12, DW_AT_TI_end_column(0x01)
	.dwendentry
	.dwendtag $C$DW$12

	.sect	".text:Interrupt_illegalOperationHandler"
	.clink

$C$DW$15	.dwtag  DW_TAG_subprogram
	.dwattr $C$DW$15, DW_AT_name("Interrupt_illegalOperationHandler")
	.dwattr $C$DW$15, DW_AT_low_pc(||Interrupt_illegalOperationHandler||)
	.dwattr $C$DW$15, DW_AT_high_pc(0x00)
	.dwattr $C$DW$15, DW_AT_linkage_name("Interrupt_illegalOperationHandler")
	.dwattr $C$DW$15, DW_AT_decl_file("../F2838x_driverlib/driverlib/interrupt.c")
	.dwattr $C$DW$15, DW_AT_decl_line(0xbb)
	.dwattr $C$DW$15, DW_AT_decl_column(0x0d)
	.dwattr $C$DW$15, DW_AT_TI_max_frame_size(-2)
	.dwpsn	file "../F2838x_driverlib/driverlib/interrupt.c",line 188,column 1,is_stmt,address ||Interrupt_illegalOperationHandler||,isa 0

	.dwfde $C$DW$CIE, ||Interrupt_illegalOperationHandler||

;***************************************************************
;* FNAME: Interrupt_illegalOperationHandler FR SIZE:   0           *
;*                                                             *
;* FUNCTION ENVIRONMENT                                        *
;*                                                             *
;* FUNCTION PROPERTIES                                         *
;*                            0 Parameter,  0 Auto,  0 SOE     *
;***************************************************************

||Interrupt_illegalOperationHandler||:
	.dwcfi	cfa_offset, -2
	.dwcfi	save_reg_to_mem, 26, 0
	.dwpsn	file "../F2838x_driverlib/driverlib/interrupt.c",line 193,column 5,is_stmt,isa 0
 ESTOP0
||$C$L30||:    
	.dwpsn	file "../F2838x_driverlib/driverlib/interrupt.c",line 197,column 5,is_stmt,isa 0
        B         ||$C$L30||,UNC        ; [CPU_ALU] |197| 
        ; branch occurs ; [] |197| 
	.dwattr $C$DW$15, DW_AT_TI_end_file("../F2838x_driverlib/driverlib/interrupt.c")
	.dwattr $C$DW$15, DW_AT_TI_end_line(0xc6)
	.dwattr $C$DW$15, DW_AT_TI_end_column(0x01)
	.dwendentry
	.dwendtag $C$DW$15

	.sect	".text:Interrupt_nmiHandler"
	.clink

$C$DW$16	.dwtag  DW_TAG_subprogram
	.dwattr $C$DW$16, DW_AT_name("Interrupt_nmiHandler")
	.dwattr $C$DW$16, DW_AT_low_pc(||Interrupt_nmiHandler||)
	.dwattr $C$DW$16, DW_AT_high_pc(0x00)
	.dwattr $C$DW$16, DW_AT_linkage_name("Interrupt_nmiHandler")
	.dwattr $C$DW$16, DW_AT_decl_file("../F2838x_driverlib/driverlib/interrupt.c")
	.dwattr $C$DW$16, DW_AT_decl_line(0xd7)
	.dwattr $C$DW$16, DW_AT_decl_column(0x0d)
	.dwattr $C$DW$16, DW_AT_TI_max_frame_size(-2)
	.dwpsn	file "../F2838x_driverlib/driverlib/interrupt.c",line 216,column 1,is_stmt,address ||Interrupt_nmiHandler||,isa 0

	.dwfde $C$DW$CIE, ||Interrupt_nmiHandler||

;***************************************************************
;* FNAME: Interrupt_nmiHandler          FR SIZE:   0           *
;*                                                             *
;* FUNCTION ENVIRONMENT                                        *
;*                                                             *
;* FUNCTION PROPERTIES                                         *
;*                            0 Parameter,  0 Auto,  0 SOE     *
;***************************************************************

||Interrupt_nmiHandler||:
	.dwcfi	cfa_offset, -2
	.dwcfi	save_reg_to_mem, 26, 0
	.dwpsn	file "../F2838x_driverlib/driverlib/interrupt.c",line 222,column 5,is_stmt,isa 0
 ESTOP0
||$C$L31||:    
	.dwpsn	file "../F2838x_driverlib/driverlib/interrupt.c",line 226,column 5,is_stmt,isa 0
        B         ||$C$L31||,UNC        ; [CPU_ALU] |226| 
        ; branch occurs ; [] |226| 
	.dwattr $C$DW$16, DW_AT_TI_end_file("../F2838x_driverlib/driverlib/interrupt.c")
	.dwattr $C$DW$16, DW_AT_TI_end_line(0xe3)
	.dwattr $C$DW$16, DW_AT_TI_end_column(0x01)
	.dwendentry
	.dwendtag $C$DW$16

	.sect	".text:Interrupt_initVectorTable"
	.clink
	.global	||Interrupt_initVectorTable||

$C$DW$17	.dwtag  DW_TAG_subprogram
	.dwattr $C$DW$17, DW_AT_name("Interrupt_initVectorTable")
	.dwattr $C$DW$17, DW_AT_low_pc(||Interrupt_initVectorTable||)
	.dwattr $C$DW$17, DW_AT_high_pc(0x00)
	.dwattr $C$DW$17, DW_AT_linkage_name("Interrupt_initVectorTable")
	.dwattr $C$DW$17, DW_AT_external
	.dwattr $C$DW$17, DW_AT_decl_file("../F2838x_driverlib/driverlib/interrupt.c")
	.dwattr $C$DW$17, DW_AT_decl_line(0xec)
	.dwattr $C$DW$17, DW_AT_decl_column(0x01)
	.dwattr $C$DW$17, DW_AT_TI_max_frame_size(-4)
	.dwpsn	file "../F2838x_driverlib/driverlib/interrupt.c",line 237,column 1,is_stmt,address ||Interrupt_initVectorTable||,isa 0

	.dwfde $C$DW$CIE, ||Interrupt_initVectorTable||

;***************************************************************
;* FNAME: Interrupt_initVectorTable     FR SIZE:   2           *
;*                                                             *
;* FUNCTION ENVIRONMENT                                        *
;*                                                             *
;* FUNCTION PROPERTIES                                         *
;*                            0 Parameter,  1 Auto,  0 SOE     *
;***************************************************************

||Interrupt_initVectorTable||:
	.dwcfi	cfa_offset, -2
	.dwcfi	save_reg_to_mem, 26, 0
        ADDB      SP,#2                 ; [CPU_ARAU] 
	.dwcfi	cfa_offset, -4
$C$DW$18	.dwtag  DW_TAG_variable
	.dwattr $C$DW$18, DW_AT_name("i")
	.dwattr $C$DW$18, DW_AT_type(*$C$DW$T$22)
	.dwattr $C$DW$18, DW_AT_location[DW_OP_breg20 -1]

	.dwpsn	file "../F2838x_driverlib/driverlib/interrupt.c",line 240,column 5,is_stmt,isa 0
        EALLOW    ; [CPU_ALU] |240| 
	.dwpsn	file "../F2838x_driverlib/driverlib/interrupt.c",line 246,column 9,is_stmt,isa 0
        MOVB      *-SP[1],#3,UNC        ; [CPU_ALU] |246| 
	.dwpsn	file "../F2838x_driverlib/driverlib/interrupt.c",line 246,column 17,is_stmt,isa 0
        MOV       AL,*-SP[1]            ; [CPU_ALU] |246| 
        CMPB      AL,#224               ; [CPU_ALU] |246| 
        B         ||$C$L33||,HIS        ; [CPU_ALU] |246| 
        ; branchcc occurs ; [] |246| 
        MOVL      XAR4,#||Interrupt_defaultHandler|| ; [CPU_ARAU] |248| 
||$C$L32||:    
	.dwpsn	file "../F2838x_driverlib/driverlib/interrupt.c",line 248,column 9,is_stmt,isa 0
        MOV       ACC,*-SP[1] << #1     ; [CPU_ALU] |248| 
        ADD       AL,#3328              ; [CPU_ALU] |248| 
        MOVZ      AR5,AL                ; [CPU_ALU] |248| 
        MOVL      *+XAR5[0],XAR4        ; [CPU_ALU] |248| 
	.dwpsn	file "../F2838x_driverlib/driverlib/interrupt.c",line 246,column 27,is_stmt,isa 0
        INC       *-SP[1]               ; [CPU_ALU] |246| 
	.dwpsn	file "../F2838x_driverlib/driverlib/interrupt.c",line 246,column 17,is_stmt,isa 0
        MOV       AL,*-SP[1]            ; [CPU_ALU] |246| 
        CMPB      AL,#224               ; [CPU_ALU] |246| 
        B         ||$C$L32||,LO         ; [CPU_ALU] |246| 
        ; branchcc occurs ; [] |246| 
||$C$L33||:    
	.dwpsn	file "../F2838x_driverlib/driverlib/interrupt.c",line 255,column 5,is_stmt,isa 0
        MOVL      XAR4,#||Interrupt_nmiHandler|| ; [CPU_ARAU] |255| 
        MOV32     *(0:0x0d24),XAR4      ; [CPU_FPU] |255| 
	.dwpsn	file "../F2838x_driverlib/driverlib/interrupt.c",line 257,column 5,is_stmt,isa 0
        MOVL      XAR4,#||Interrupt_illegalOperationHandler|| ; [CPU_ARAU] |257| 
        MOV32     *(0:0x0d26),XAR4      ; [CPU_FPU] |257| 
	.dwpsn	file "../F2838x_driverlib/driverlib/interrupt.c",line 260,column 5,is_stmt,isa 0
        EDIS      ; [CPU_ALU] |260| 
	.dwpsn	file "../F2838x_driverlib/driverlib/interrupt.c",line 261,column 1,is_stmt,isa 0
        SUBB      SP,#2                 ; [CPU_ARAU] 
	.dwcfi	cfa_offset, -2
$C$DW$19	.dwtag  DW_TAG_TI_branch
	.dwattr $C$DW$19, DW_AT_low_pc(0x00)
	.dwattr $C$DW$19, DW_AT_TI_return

        LRETR     ; [CPU_ALU] 
        ; return occurs ; [] 
	.dwattr $C$DW$17, DW_AT_TI_end_file("../F2838x_driverlib/driverlib/interrupt.c")
	.dwattr $C$DW$17, DW_AT_TI_end_line(0x105)
	.dwattr $C$DW$17, DW_AT_TI_end_column(0x01)
	.dwendentry
	.dwendtag $C$DW$17

	.sect	".text:Interrupt_enable"
	.clink
	.global	||Interrupt_enable||

$C$DW$20	.dwtag  DW_TAG_subprogram
	.dwattr $C$DW$20, DW_AT_name("Interrupt_enable")
	.dwattr $C$DW$20, DW_AT_low_pc(||Interrupt_enable||)
	.dwattr $C$DW$20, DW_AT_high_pc(0x00)
	.dwattr $C$DW$20, DW_AT_linkage_name("Interrupt_enable")
	.dwattr $C$DW$20, DW_AT_external
	.dwattr $C$DW$20, DW_AT_decl_file("../F2838x_driverlib/driverlib/interrupt.c")
	.dwattr $C$DW$20, DW_AT_decl_line(0x10d)
	.dwattr $C$DW$20, DW_AT_decl_column(0x01)
	.dwattr $C$DW$20, DW_AT_TI_max_frame_size(-8)
	.dwpsn	file "../F2838x_driverlib/driverlib/interrupt.c",line 270,column 1,is_stmt,address ||Interrupt_enable||,isa 0

	.dwfde $C$DW$CIE, ||Interrupt_enable||
$C$DW$21	.dwtag  DW_TAG_formal_parameter
	.dwattr $C$DW$21, DW_AT_name("interruptNumber")
	.dwattr $C$DW$21, DW_AT_type(*$C$DW$T$26)
	.dwattr $C$DW$21, DW_AT_location[DW_OP_reg0]


;***************************************************************
;* FNAME: Interrupt_enable              FR SIZE:   6           *
;*                                                             *
;* FUNCTION ENVIRONMENT                                        *
;*                                                             *
;* FUNCTION PROPERTIES                                         *
;*                            0 Parameter,  6 Auto,  0 SOE     *
;***************************************************************

||Interrupt_enable||:
	.dwcfi	cfa_offset, -2
	.dwcfi	save_reg_to_mem, 26, 0
        ADDB      SP,#6                 ; [CPU_ARAU] 
	.dwcfi	cfa_offset, -8
$C$DW$22	.dwtag  DW_TAG_variable
	.dwattr $C$DW$22, DW_AT_name("interruptNumber")
	.dwattr $C$DW$22, DW_AT_type(*$C$DW$T$26)
	.dwattr $C$DW$22, DW_AT_location[DW_OP_breg20 -2]

$C$DW$23	.dwtag  DW_TAG_variable
	.dwattr $C$DW$23, DW_AT_name("intsDisabled")
	.dwattr $C$DW$23, DW_AT_type(*$C$DW$T$32)
	.dwattr $C$DW$23, DW_AT_location[DW_OP_breg20 -3]

$C$DW$24	.dwtag  DW_TAG_variable
	.dwattr $C$DW$24, DW_AT_name("intGroup")
	.dwattr $C$DW$24, DW_AT_type(*$C$DW$T$22)
	.dwattr $C$DW$24, DW_AT_location[DW_OP_breg20 -4]

$C$DW$25	.dwtag  DW_TAG_variable
	.dwattr $C$DW$25, DW_AT_name("groupMask")
	.dwattr $C$DW$25, DW_AT_type(*$C$DW$T$22)
	.dwattr $C$DW$25, DW_AT_location[DW_OP_breg20 -5]

$C$DW$26	.dwtag  DW_TAG_variable
	.dwattr $C$DW$26, DW_AT_name("vectID")
	.dwattr $C$DW$26, DW_AT_type(*$C$DW$T$22)
	.dwattr $C$DW$26, DW_AT_location[DW_OP_breg20 -6]

        MOVL      *-SP[2],ACC           ; [CPU_ALU] |270| 
	.dwpsn	file "../F2838x_driverlib/driverlib/interrupt.c",line 276,column 5,is_stmt,isa 0
        MOV       AL,*-SP[1]            ; [CPU_ALU] |276| 
        MOV       *-SP[6],AL            ; [CPU_ALU] |276| 
	.dwpsn	file "../F2838x_driverlib/driverlib/interrupt.c",line 281,column 5,is_stmt,isa 0
$C$DW$27	.dwtag  DW_TAG_TI_branch
	.dwattr $C$DW$27, DW_AT_low_pc(0x00)
	.dwattr $C$DW$27, DW_AT_name("Interrupt_disableMaster")
	.dwattr $C$DW$27, DW_AT_TI_call

        LCR       #||Interrupt_disableMaster|| ; [CPU_ALU] |281| 
        ; call occurs [#||Interrupt_disableMaster||] ; [] |281| 
        MOV       *-SP[3],AL            ; [CPU_ALU] |281| 
	.dwpsn	file "../F2838x_driverlib/driverlib/interrupt.c",line 286,column 5,is_stmt,isa 0
        MOV       AL,*-SP[6]            ; [CPU_ALU] |286| 
        CMPB      AL,#32                ; [CPU_ALU] |286| 
        B         ||$C$L34||,LO         ; [CPU_ALU] |286| 
        ; branchcc occurs ; [] |286| 
	.dwpsn	file "../F2838x_driverlib/driverlib/interrupt.c",line 288,column 9,is_stmt,isa 0
        AND       AL,*-SP[2],#0xff00    ; [CPU_ALU] |288| 
        LSR       AL,8                  ; [CPU_ALU] |288| 
        ADDB      AL,#-1                ; [CPU_ALU] |288| 
        MOV       *-SP[4],AL            ; [CPU_ALU] |288| 
	.dwpsn	file "../F2838x_driverlib/driverlib/interrupt.c",line 289,column 9,is_stmt,isa 0
        MOV       T,*-SP[4]             ; [CPU_ALU] |289| 
        MOVB      AL,#1                 ; [CPU_ALU] |289| 
        LSL       AL,T                  ; [CPU_ALU] |289| 
        MOV       *-SP[5],AL            ; [CPU_ALU] |289| 
	.dwpsn	file "../F2838x_driverlib/driverlib/interrupt.c",line 291,column 9,is_stmt,isa 0
        MOV       ACC,*-SP[4] << #1     ; [CPU_ALU] |291| 
        ADD       AL,#3298              ; [CPU_ALU] |291| 
        MOVZ      AR4,AL                ; [CPU_ALU] |291| 
        MOVB      AH,#1                 ; [CPU_ALU] |291| 
        MOV       AL,*-SP[2]            ; [CPU_ALU] |291| 
        ANDB      AL,#0xff              ; [CPU_ALU] |291| 
        ADDB      AL,#-1                ; [CPU_ALU] |291| 
        MOV       T,AL                  ; [CPU_ALU] |291| 
        LSL       AH,T                  ; [CPU_ALU] |291| 
        OR        *+XAR4[0],AH          ; [CPU_ALU] |291| 
	.dwpsn	file "../F2838x_driverlib/driverlib/interrupt.c",line 297,column 9,is_stmt,isa 0
        MOV       AL,IER                ; [CPU_ALU] |297| 
        OR        AL,*-SP[5]            ; [CPU_ALU] |297| 
        MOV       IER,AL                ; [CPU_ALU] |297| 
        B         ||$C$L35||,UNC        ; [CPU_ALU] 
        ; branch occurs ; [] 
||$C$L34||:    
	.dwpsn	file "../F2838x_driverlib/driverlib/interrupt.c",line 303,column 10,is_stmt,isa 0
        CMPB      AL,#13                ; [CPU_ALU] |303| 
        B         ||$C$L35||,LO         ; [CPU_ALU] |303| 
        ; branchcc occurs ; [] |303| 
        CMPB      AL,#16                ; [CPU_ALU] |303| 
        B         ||$C$L35||,HI         ; [CPU_ALU] |303| 
        ; branchcc occurs ; [] |303| 
	.dwpsn	file "../F2838x_driverlib/driverlib/interrupt.c",line 305,column 9,is_stmt,isa 0
        ADDB      AL,#-1                ; [CPU_ALU] |305| 
        MOV       T,AL                  ; [CPU_ALU] |305| 
        MOVB      AL,#1                 ; [CPU_ALU] |305| 
        LSL       AL,T                  ; [CPU_ALU] |305| 
        MOV       AH,IER                ; [CPU_FPU] |305| 
        OR        AL,AH                 ; [CPU_ALU] |305| 
        MOV       IER,AL                ; [CPU_ALU] |305| 
||$C$L35||:    
	.dwpsn	file "../F2838x_driverlib/driverlib/interrupt.c",line 317,column 5,is_stmt,isa 0
        MOV       AL,*-SP[3]            ; [CPU_ALU] |317| 
        B         ||$C$L36||,NEQ        ; [CPU_ALU] |317| 
        ; branchcc occurs ; [] |317| 
	.dwpsn	file "../F2838x_driverlib/driverlib/interrupt.c",line 319,column 9,is_stmt,isa 0
$C$DW$28	.dwtag  DW_TAG_TI_branch
	.dwattr $C$DW$28, DW_AT_low_pc(0x00)
	.dwattr $C$DW$28, DW_AT_name("Interrupt_enableMaster")
	.dwattr $C$DW$28, DW_AT_TI_call

        LCR       #||Interrupt_enableMaster|| ; [CPU_ALU] |319| 
        ; call occurs [#||Interrupt_enableMaster||] ; [] |319| 
	.dwpsn	file "../F2838x_driverlib/driverlib/interrupt.c",line 321,column 1,is_stmt,isa 0
||$C$L36||:    
        SUBB      SP,#6                 ; [CPU_ARAU] 
	.dwcfi	cfa_offset, -2
$C$DW$29	.dwtag  DW_TAG_TI_branch
	.dwattr $C$DW$29, DW_AT_low_pc(0x00)
	.dwattr $C$DW$29, DW_AT_TI_return

        LRETR     ; [CPU_ALU] 
        ; return occurs ; [] 
	.dwattr $C$DW$20, DW_AT_TI_end_file("../F2838x_driverlib/driverlib/interrupt.c")
	.dwattr $C$DW$20, DW_AT_TI_end_line(0x141)
	.dwattr $C$DW$20, DW_AT_TI_end_column(0x01)
	.dwendentry
	.dwendtag $C$DW$20

	.sect	".text:Interrupt_disable"
	.clink
	.global	||Interrupt_disable||

$C$DW$30	.dwtag  DW_TAG_subprogram
	.dwattr $C$DW$30, DW_AT_name("Interrupt_disable")
	.dwattr $C$DW$30, DW_AT_low_pc(||Interrupt_disable||)
	.dwattr $C$DW$30, DW_AT_high_pc(0x00)
	.dwattr $C$DW$30, DW_AT_linkage_name("Interrupt_disable")
	.dwattr $C$DW$30, DW_AT_external
	.dwattr $C$DW$30, DW_AT_decl_file("../F2838x_driverlib/driverlib/interrupt.c")
	.dwattr $C$DW$30, DW_AT_decl_line(0x149)
	.dwattr $C$DW$30, DW_AT_decl_column(0x01)
	.dwattr $C$DW$30, DW_AT_TI_max_frame_size(-8)
	.dwpsn	file "../F2838x_driverlib/driverlib/interrupt.c",line 330,column 1,is_stmt,address ||Interrupt_disable||,isa 0

	.dwfde $C$DW$CIE, ||Interrupt_disable||
$C$DW$31	.dwtag  DW_TAG_formal_parameter
	.dwattr $C$DW$31, DW_AT_name("interruptNumber")
	.dwattr $C$DW$31, DW_AT_type(*$C$DW$T$26)
	.dwattr $C$DW$31, DW_AT_location[DW_OP_reg0]


;***************************************************************
;* FNAME: Interrupt_disable             FR SIZE:   6           *
;*                                                             *
;* FUNCTION ENVIRONMENT                                        *
;*                                                             *
;* FUNCTION PROPERTIES                                         *
;*                            0 Parameter,  6 Auto,  0 SOE     *
;***************************************************************

||Interrupt_disable||:
	.dwcfi	cfa_offset, -2
	.dwcfi	save_reg_to_mem, 26, 0
        ADDB      SP,#6                 ; [CPU_ARAU] 
	.dwcfi	cfa_offset, -8
$C$DW$32	.dwtag  DW_TAG_variable
	.dwattr $C$DW$32, DW_AT_name("interruptNumber")
	.dwattr $C$DW$32, DW_AT_type(*$C$DW$T$26)
	.dwattr $C$DW$32, DW_AT_location[DW_OP_breg20 -2]

$C$DW$33	.dwtag  DW_TAG_variable
	.dwattr $C$DW$33, DW_AT_name("intsDisabled")
	.dwattr $C$DW$33, DW_AT_type(*$C$DW$T$32)
	.dwattr $C$DW$33, DW_AT_location[DW_OP_breg20 -3]

$C$DW$34	.dwtag  DW_TAG_variable
	.dwattr $C$DW$34, DW_AT_name("intGroup")
	.dwattr $C$DW$34, DW_AT_type(*$C$DW$T$22)
	.dwattr $C$DW$34, DW_AT_location[DW_OP_breg20 -4]

$C$DW$35	.dwtag  DW_TAG_variable
	.dwattr $C$DW$35, DW_AT_name("groupMask")
	.dwattr $C$DW$35, DW_AT_type(*$C$DW$T$22)
	.dwattr $C$DW$35, DW_AT_location[DW_OP_breg20 -5]

$C$DW$36	.dwtag  DW_TAG_variable
	.dwattr $C$DW$36, DW_AT_name("vectID")
	.dwattr $C$DW$36, DW_AT_type(*$C$DW$T$22)
	.dwattr $C$DW$36, DW_AT_location[DW_OP_breg20 -6]

        MOVL      *-SP[2],ACC           ; [CPU_ALU] |330| 
	.dwpsn	file "../F2838x_driverlib/driverlib/interrupt.c",line 336,column 5,is_stmt,isa 0
        MOV       AL,*-SP[1]            ; [CPU_ALU] |336| 
        MOV       *-SP[6],AL            ; [CPU_ALU] |336| 
	.dwpsn	file "../F2838x_driverlib/driverlib/interrupt.c",line 338,column 5,is_stmt,isa 0
$C$DW$37	.dwtag  DW_TAG_TI_branch
	.dwattr $C$DW$37, DW_AT_low_pc(0x00)
	.dwattr $C$DW$37, DW_AT_name("Interrupt_disableMaster")
	.dwattr $C$DW$37, DW_AT_TI_call

        LCR       #||Interrupt_disableMaster|| ; [CPU_ALU] |338| 
        ; call occurs [#||Interrupt_disableMaster||] ; [] |338| 
        MOV       *-SP[3],AL            ; [CPU_ALU] |338| 
	.dwpsn	file "../F2838x_driverlib/driverlib/interrupt.c",line 343,column 5,is_stmt,isa 0
        MOV       AL,*-SP[6]            ; [CPU_ALU] |343| 
        CMPB      AL,#32                ; [CPU_ALU] |343| 
        B         ||$C$L37||,LO         ; [CPU_ALU] |343| 
        ; branchcc occurs ; [] |343| 
	.dwpsn	file "../F2838x_driverlib/driverlib/interrupt.c",line 345,column 9,is_stmt,isa 0
        AND       AL,*-SP[2],#0xff00    ; [CPU_ALU] |345| 
        LSR       AL,8                  ; [CPU_ALU] |345| 
        ADDB      AL,#-1                ; [CPU_ALU] |345| 
        MOV       *-SP[4],AL            ; [CPU_ALU] |345| 
	.dwpsn	file "../F2838x_driverlib/driverlib/interrupt.c",line 346,column 9,is_stmt,isa 0
        MOV       T,*-SP[4]             ; [CPU_ALU] |346| 
        MOVB      AL,#1                 ; [CPU_ALU] |346| 
        LSL       AL,T                  ; [CPU_ALU] |346| 
        MOV       *-SP[5],AL            ; [CPU_ALU] |346| 
	.dwpsn	file "../F2838x_driverlib/driverlib/interrupt.c",line 351,column 9,is_stmt,isa 0
        MOV       ACC,*-SP[4] << #1     ; [CPU_ALU] |351| 
        ADD       AL,#3298              ; [CPU_ALU] |351| 
        MOVZ      AR4,AL                ; [CPU_ALU] |351| 
        MOVB      AH,#1                 ; [CPU_ALU] |351| 
        MOV       AL,*-SP[2]            ; [CPU_ALU] |351| 
        ANDB      AL,#0xff              ; [CPU_ALU] |351| 
        ADDB      AL,#-1                ; [CPU_ALU] |351| 
        MOV       T,AL                  ; [CPU_ALU] |351| 
        LSL       AH,T                  ; [CPU_ALU] |351| 
        NOT       AH                    ; [CPU_ALU] |351| 
        AND       *+XAR4[0],AH          ; [CPU_ALU] |351| 
	.dwpsn	file "../F2838x_driverlib/driverlib/interrupt.c",line 357,column 9,is_stmt,isa 0
 NOP
	.dwpsn	file "../F2838x_driverlib/driverlib/interrupt.c",line 358,column 9,is_stmt,isa 0
 NOP
	.dwpsn	file "../F2838x_driverlib/driverlib/interrupt.c",line 359,column 9,is_stmt,isa 0
 NOP
	.dwpsn	file "../F2838x_driverlib/driverlib/interrupt.c",line 360,column 9,is_stmt,isa 0
 NOP
	.dwpsn	file "../F2838x_driverlib/driverlib/interrupt.c",line 361,column 9,is_stmt,isa 0
 NOP
	.dwpsn	file "../F2838x_driverlib/driverlib/interrupt.c",line 363,column 9,is_stmt,isa 0
        SPM       #0                    ; [CPU_ALU] 
        MOV       AL,*-SP[5]            ; [CPU_ALU] |363| 
$C$DW$38	.dwtag  DW_TAG_TI_branch
	.dwattr $C$DW$38, DW_AT_low_pc(0x00)
	.dwattr $C$DW$38, DW_AT_name("Interrupt_clearIFR")
	.dwattr $C$DW$38, DW_AT_TI_call

        LCR       #||Interrupt_clearIFR|| ; [CPU_ALU] |363| 
        ; call occurs [#||Interrupt_clearIFR||] ; [] |363| 
	.dwpsn	file "../F2838x_driverlib/driverlib/interrupt.c",line 368,column 9,is_stmt,isa 0
        MOV       *(0:0x0ce1),*-SP[5]   ; [CPU_ALU] |368| 
        B         ||$C$L38||,UNC        ; [CPU_ALU] 
        ; branch occurs ; [] 
||$C$L37||:    
	.dwpsn	file "../F2838x_driverlib/driverlib/interrupt.c",line 374,column 10,is_stmt,isa 0
        CMPB      AL,#13                ; [CPU_ALU] |374| 
        B         ||$C$L38||,LO         ; [CPU_ALU] |374| 
        ; branchcc occurs ; [] |374| 
        CMPB      AL,#16                ; [CPU_ALU] |374| 
        B         ||$C$L38||,HI         ; [CPU_ALU] |374| 
        ; branchcc occurs ; [] |374| 
	.dwpsn	file "../F2838x_driverlib/driverlib/interrupt.c",line 376,column 9,is_stmt,isa 0
        ADDB      AL,#-1                ; [CPU_ALU] |376| 
        MOV       T,AL                  ; [CPU_ALU] |376| 
        MOVB      AL,#1                 ; [CPU_ALU] |376| 
        LSL       AL,T                  ; [CPU_ALU] |376| 
        NOT       AL                    ; [CPU_ALU] |376| 
        MOV       AH,IER                ; [CPU_FPU] |376| 
        AND       AL,AH                 ; [CPU_ALU] |376| 
        MOV       IER,AL                ; [CPU_ALU] |376| 
	.dwpsn	file "../F2838x_driverlib/driverlib/interrupt.c",line 381,column 9,is_stmt,isa 0
 NOP
	.dwpsn	file "../F2838x_driverlib/driverlib/interrupt.c",line 382,column 9,is_stmt,isa 0
 NOP
	.dwpsn	file "../F2838x_driverlib/driverlib/interrupt.c",line 383,column 9,is_stmt,isa 0
 NOP
	.dwpsn	file "../F2838x_driverlib/driverlib/interrupt.c",line 384,column 9,is_stmt,isa 0
 NOP
	.dwpsn	file "../F2838x_driverlib/driverlib/interrupt.c",line 385,column 9,is_stmt,isa 0
 NOP
	.dwpsn	file "../F2838x_driverlib/driverlib/interrupt.c",line 387,column 9,is_stmt,isa 0
        MOV       AL,*-SP[6]            ; [CPU_ALU] |387| 
        ADDB      AL,#-1                ; [CPU_ALU] |387| 
        SPM       #0                    ; [CPU_FPU] 
        MOV       T,AL                  ; [CPU_ALU] |387| 
        MOVB      AL,#1                 ; [CPU_ALU] |387| 
        LSL       AL,T                  ; [CPU_ALU] |387| 
$C$DW$39	.dwtag  DW_TAG_TI_branch
	.dwattr $C$DW$39, DW_AT_low_pc(0x00)
	.dwattr $C$DW$39, DW_AT_name("Interrupt_clearIFR")
	.dwattr $C$DW$39, DW_AT_TI_call

        LCR       #||Interrupt_clearIFR|| ; [CPU_ALU] |387| 
        ; call occurs [#||Interrupt_clearIFR||] ; [] |387| 
||$C$L38||:    
	.dwpsn	file "../F2838x_driverlib/driverlib/interrupt.c",line 399,column 5,is_stmt,isa 0
        MOV       AL,*-SP[3]            ; [CPU_ALU] |399| 
        B         ||$C$L39||,NEQ        ; [CPU_ALU] |399| 
        ; branchcc occurs ; [] |399| 
	.dwpsn	file "../F2838x_driverlib/driverlib/interrupt.c",line 401,column 9,is_stmt,isa 0
$C$DW$40	.dwtag  DW_TAG_TI_branch
	.dwattr $C$DW$40, DW_AT_low_pc(0x00)
	.dwattr $C$DW$40, DW_AT_name("Interrupt_enableMaster")
	.dwattr $C$DW$40, DW_AT_TI_call

        LCR       #||Interrupt_enableMaster|| ; [CPU_ALU] |401| 
        ; call occurs [#||Interrupt_enableMaster||] ; [] |401| 
	.dwpsn	file "../F2838x_driverlib/driverlib/interrupt.c",line 403,column 1,is_stmt,isa 0
||$C$L39||:    
        SUBB      SP,#6                 ; [CPU_ARAU] 
	.dwcfi	cfa_offset, -2
$C$DW$41	.dwtag  DW_TAG_TI_branch
	.dwattr $C$DW$41, DW_AT_low_pc(0x00)
	.dwattr $C$DW$41, DW_AT_TI_return

        LRETR     ; [CPU_ALU] 
        ; return occurs ; [] 
	.dwattr $C$DW$30, DW_AT_TI_end_file("../F2838x_driverlib/driverlib/interrupt.c")
	.dwattr $C$DW$30, DW_AT_TI_end_line(0x193)
	.dwattr $C$DW$30, DW_AT_TI_end_column(0x01)
	.dwendentry
	.dwendtag $C$DW$30


;***************************************************************
;* BUILD ATTRIBUTES                                            *
;***************************************************************
	.battr "c28xabi", Tag_File, 1, Tag_float_args(0)
	.battr "c28xabi", Tag_File, 1, Tag_double_args(0)
	.dwattr $C$DW$CU, DW_AT_language(DW_LANG_C)

;***************************************************************
;* DWARF CIE ENTRIES                                           *
;***************************************************************

$C$DW$CIE	.dwcie 26
	.dwcfi	cfa_register, 20
	.dwcfi	cfa_offset, 0
	.dwcfi	same_value, 28
	.dwcfi	same_value, 6
	.dwcfi	same_value, 7
	.dwcfi	same_value, 8
	.dwcfi	same_value, 9
	.dwcfi	same_value, 10
	.dwcfi	same_value, 11
	.dwcfi	same_value, 59
	.dwcfi	same_value, 63
	.dwcfi	same_value, 67
	.dwcfi	same_value, 71
	.dwendentry
	.dwendtag $C$DW$CU


;***************************************************************
;* TYPE INFORMATION                                            *
;***************************************************************

$C$DW$TU$2	.dwtag  DW_TAG_type_unit
	.dwmtype  $C$DW$T$2
$C$DW$T$2	.dwtag  DW_TAG_unspecified_type
	.dwattr $C$DW$T$2, DW_AT_name("void")

	.dwendtag $C$DW$TU$2


$C$DW$TU$4	.dwtag  DW_TAG_type_unit
	.dwmtype  $C$DW$T$4
$C$DW$T$4	.dwtag  DW_TAG_base_type
	.dwattr $C$DW$T$4, DW_AT_encoding(DW_ATE_boolean)
	.dwattr $C$DW$T$4, DW_AT_name("bool")
	.dwattr $C$DW$T$4, DW_AT_byte_size(0x01)

	.dwendtag $C$DW$TU$4


$C$DW$TU$5	.dwtag  DW_TAG_type_unit
	.dwmtype  $C$DW$T$5
$C$DW$T$5	.dwtag  DW_TAG_base_type
	.dwattr $C$DW$T$5, DW_AT_encoding(DW_ATE_signed_char)
	.dwattr $C$DW$T$5, DW_AT_name("signed char")
	.dwattr $C$DW$T$5, DW_AT_byte_size(0x01)

	.dwendtag $C$DW$TU$5


$C$DW$TU$6	.dwtag  DW_TAG_type_unit
	.dwmtype  $C$DW$T$6
$C$DW$T$6	.dwtag  DW_TAG_base_type
	.dwattr $C$DW$T$6, DW_AT_encoding(DW_ATE_unsigned_char)
	.dwattr $C$DW$T$6, DW_AT_name("unsigned char")
	.dwattr $C$DW$T$6, DW_AT_byte_size(0x01)

	.dwendtag $C$DW$TU$6


$C$DW$TU$7	.dwtag  DW_TAG_type_unit
	.dwmtype  $C$DW$T$7
$C$DW$T$7	.dwtag  DW_TAG_base_type
	.dwattr $C$DW$T$7, DW_AT_encoding(DW_ATE_signed_char)
	.dwattr $C$DW$T$7, DW_AT_name("wchar_t")
	.dwattr $C$DW$T$7, DW_AT_byte_size(0x02)

	.dwendtag $C$DW$TU$7


$C$DW$TU$8	.dwtag  DW_TAG_type_unit
	.dwmtype  $C$DW$T$8
$C$DW$T$8	.dwtag  DW_TAG_base_type
	.dwattr $C$DW$T$8, DW_AT_encoding(DW_ATE_signed)
	.dwattr $C$DW$T$8, DW_AT_name("short")
	.dwattr $C$DW$T$8, DW_AT_byte_size(0x01)

	.dwendtag $C$DW$TU$8


$C$DW$TU$9	.dwtag  DW_TAG_type_unit
	.dwmtype  $C$DW$T$9
$C$DW$T$9	.dwtag  DW_TAG_base_type
	.dwattr $C$DW$T$9, DW_AT_encoding(DW_ATE_unsigned)
	.dwattr $C$DW$T$9, DW_AT_name("unsigned short")
	.dwattr $C$DW$T$9, DW_AT_byte_size(0x01)

	.dwendtag $C$DW$TU$9


$C$DW$TU$10	.dwtag  DW_TAG_type_unit
	.dwmtype  $C$DW$T$10
$C$DW$T$10	.dwtag  DW_TAG_base_type
	.dwattr $C$DW$T$10, DW_AT_encoding(DW_ATE_signed)
	.dwattr $C$DW$T$10, DW_AT_name("int")
	.dwattr $C$DW$T$10, DW_AT_byte_size(0x01)

	.dwendtag $C$DW$TU$10


$C$DW$TU$11	.dwtag  DW_TAG_type_unit
	.dwmtype  $C$DW$T$11
$C$DW$T$11	.dwtag  DW_TAG_base_type
	.dwattr $C$DW$T$11, DW_AT_encoding(DW_ATE_unsigned)
	.dwattr $C$DW$T$11, DW_AT_name("unsigned int")
	.dwattr $C$DW$T$11, DW_AT_byte_size(0x01)

	.dwendtag $C$DW$TU$11


$C$DW$TU$21	.dwtag  DW_TAG_type_unit
	.dwmtype  $C$DW$T$21
$C$DW$T$21	.dwtag  DW_TAG_typedef
	.dwattr $C$DW$T$21, DW_AT_name("__uint16_t")
	.dwattr $C$DW$T$21, DW_AT_type(*$C$DW$T$11)
	.dwattr $C$DW$T$21, DW_AT_decl_file("C:/ti/ccs1250/ccs/tools/compiler/ti-cgt-c2000_22.6.1.LTS/include/machine/_types.h")
	.dwattr $C$DW$T$21, DW_AT_decl_line(0x41)
	.dwattr $C$DW$T$21, DW_AT_decl_column(0x1c)

	.dwendtag $C$DW$TU$21


$C$DW$TU$22	.dwtag  DW_TAG_type_unit
	.dwmtype  $C$DW$T$22
$C$DW$T$22	.dwtag  DW_TAG_typedef
	.dwattr $C$DW$T$22, DW_AT_name("uint16_t")
	.dwattr $C$DW$T$22, DW_AT_type(*$C$DW$T$21)
	.dwattr $C$DW$T$22, DW_AT_decl_file("C:/ti/ccs1250/ccs/tools/compiler/ti-cgt-c2000_22.6.1.LTS/include/sys/_stdint.h")
	.dwattr $C$DW$T$22, DW_AT_decl_line(0x41)
	.dwattr $C$DW$T$22, DW_AT_decl_column(0x15)

	.dwendtag $C$DW$TU$22


$C$DW$TU$12	.dwtag  DW_TAG_type_unit
	.dwmtype  $C$DW$T$12
$C$DW$T$12	.dwtag  DW_TAG_base_type
	.dwattr $C$DW$T$12, DW_AT_encoding(DW_ATE_signed)
	.dwattr $C$DW$T$12, DW_AT_name("long")
	.dwattr $C$DW$T$12, DW_AT_byte_size(0x02)

	.dwendtag $C$DW$TU$12


$C$DW$TU$13	.dwtag  DW_TAG_type_unit
	.dwmtype  $C$DW$T$13
$C$DW$T$13	.dwtag  DW_TAG_base_type
	.dwattr $C$DW$T$13, DW_AT_encoding(DW_ATE_unsigned)
	.dwattr $C$DW$T$13, DW_AT_name("unsigned long")
	.dwattr $C$DW$T$13, DW_AT_byte_size(0x02)

	.dwendtag $C$DW$TU$13


$C$DW$TU$25	.dwtag  DW_TAG_type_unit
	.dwmtype  $C$DW$T$25
$C$DW$T$25	.dwtag  DW_TAG_typedef
	.dwattr $C$DW$T$25, DW_AT_name("__uint32_t")
	.dwattr $C$DW$T$25, DW_AT_type(*$C$DW$T$13)
	.dwattr $C$DW$T$25, DW_AT_decl_file("C:/ti/ccs1250/ccs/tools/compiler/ti-cgt-c2000_22.6.1.LTS/include/machine/_types.h")
	.dwattr $C$DW$T$25, DW_AT_decl_line(0x43)
	.dwattr $C$DW$T$25, DW_AT_decl_column(0x1c)

	.dwendtag $C$DW$TU$25


$C$DW$TU$26	.dwtag  DW_TAG_type_unit
	.dwmtype  $C$DW$T$26
$C$DW$T$26	.dwtag  DW_TAG_typedef
	.dwattr $C$DW$T$26, DW_AT_name("uint32_t")
	.dwattr $C$DW$T$26, DW_AT_type(*$C$DW$T$25)
	.dwattr $C$DW$T$26, DW_AT_decl_file("C:/ti/ccs1250/ccs/tools/compiler/ti-cgt-c2000_22.6.1.LTS/include/sys/_stdint.h")
	.dwattr $C$DW$T$26, DW_AT_decl_line(0x46)
	.dwattr $C$DW$T$26, DW_AT_decl_column(0x15)

	.dwendtag $C$DW$TU$26


$C$DW$TU$14	.dwtag  DW_TAG_type_unit
	.dwmtype  $C$DW$T$14
$C$DW$T$14	.dwtag  DW_TAG_base_type
	.dwattr $C$DW$T$14, DW_AT_encoding(DW_ATE_signed)
	.dwattr $C$DW$T$14, DW_AT_name("long long")
	.dwattr $C$DW$T$14, DW_AT_byte_size(0x04)

	.dwendtag $C$DW$TU$14


$C$DW$TU$15	.dwtag  DW_TAG_type_unit
	.dwmtype  $C$DW$T$15
$C$DW$T$15	.dwtag  DW_TAG_base_type
	.dwattr $C$DW$T$15, DW_AT_encoding(DW_ATE_unsigned)
	.dwattr $C$DW$T$15, DW_AT_name("unsigned long long")
	.dwattr $C$DW$T$15, DW_AT_byte_size(0x04)

	.dwendtag $C$DW$TU$15


$C$DW$TU$16	.dwtag  DW_TAG_type_unit
	.dwmtype  $C$DW$T$16
$C$DW$T$16	.dwtag  DW_TAG_base_type
	.dwattr $C$DW$T$16, DW_AT_encoding(DW_ATE_float)
	.dwattr $C$DW$T$16, DW_AT_name("float")
	.dwattr $C$DW$T$16, DW_AT_byte_size(0x02)

	.dwendtag $C$DW$TU$16


$C$DW$TU$17	.dwtag  DW_TAG_type_unit
	.dwmtype  $C$DW$T$17
$C$DW$T$17	.dwtag  DW_TAG_base_type
	.dwattr $C$DW$T$17, DW_AT_encoding(DW_ATE_float)
	.dwattr $C$DW$T$17, DW_AT_name("double")
	.dwattr $C$DW$T$17, DW_AT_byte_size(0x04)

	.dwendtag $C$DW$TU$17


$C$DW$TU$18	.dwtag  DW_TAG_type_unit
	.dwmtype  $C$DW$T$18
$C$DW$T$18	.dwtag  DW_TAG_base_type
	.dwattr $C$DW$T$18, DW_AT_encoding(DW_ATE_float)
	.dwattr $C$DW$T$18, DW_AT_name("long double")
	.dwattr $C$DW$T$18, DW_AT_byte_size(0x04)

	.dwendtag $C$DW$TU$18


$C$DW$TU$32	.dwtag  DW_TAG_type_unit
	.dwmtype  $C$DW$T$32
$C$DW$T$32	.dwtag  DW_TAG_base_type
	.dwattr $C$DW$T$32, DW_AT_encoding(DW_ATE_unsigned_char)
	.dwattr $C$DW$T$32, DW_AT_name("unsigned char")
	.dwattr $C$DW$T$32, DW_AT_byte_size(0x01)

	.dwendtag $C$DW$TU$32

