;***************************************************************
;* TMS320C2000 G3 C/C++ Codegen                               PC v22.6.1.LTS *
;* Date/Time created: Wed May 15 14:56:58 2024                 *
;***************************************************************
	.compiler_opts --abi=eabi --cla_support=cla0 --float_support=fpu64 --hll_source=on --idiv_support=idiv0 --issue_remarks --mem_model:code=flat --mem_model:data=large --object_format=elf --quiet --silicon_errata_fpu1_workaround=off --silicon_version=28 --symdebug:dwarf --symdebug:dwarf_version=4 --tmu_support=tmu0 
	.asg	XAR2, FP

$C$DW$CU	.dwtag  DW_TAG_compile_unit
	.dwattr $C$DW$CU, DW_AT_name("../Application/ManState.c")
	.dwattr $C$DW$CU, DW_AT_producer("TI TMS320C2000 G3 C/C++ Codegen PC v22.6.1.LTS Copyright (c) 1996-2018 Texas Instruments Incorporated")
	.dwattr $C$DW$CU, DW_AT_TI_version(0x01)
	.dwattr $C$DW$CU, DW_AT_comp_dir("C:\Yahali\Nimrod\Sw3\BolshoyManipCpu2\CPU2")

$C$DW$1	.dwtag  DW_TAG_subprogram
	.dwattr $C$DW$1, DW_AT_name("ResetProfiler")
	.dwattr $C$DW$1, DW_AT_linkage_name("ResetProfiler")
	.dwattr $C$DW$1, DW_AT_declaration
	.dwattr $C$DW$1, DW_AT_external
	.dwattr $C$DW$1, DW_AT_decl_file("..\Application\TrapezeProfiler2.h")
	.dwattr $C$DW$1, DW_AT_decl_line(0x23)
	.dwattr $C$DW$1, DW_AT_decl_column(0x06)
$C$DW$2	.dwtag  DW_TAG_formal_parameter
	.dwattr $C$DW$2, DW_AT_type(*$C$DW$T$225)

$C$DW$3	.dwtag  DW_TAG_formal_parameter
	.dwattr $C$DW$3, DW_AT_type(*$C$DW$T$16)

$C$DW$4	.dwtag  DW_TAG_formal_parameter
	.dwattr $C$DW$4, DW_AT_type(*$C$DW$T$16)

$C$DW$5	.dwtag  DW_TAG_formal_parameter
	.dwattr $C$DW$5, DW_AT_type(*$C$DW$T$9)

	.dwendtag $C$DW$1


$C$DW$6	.dwtag  DW_TAG_subprogram
	.dwattr $C$DW$6, DW_AT_name("ResetCbitIntegrator")
	.dwattr $C$DW$6, DW_AT_linkage_name("ResetCbitIntegrator")
	.dwattr $C$DW$6, DW_AT_declaration
	.dwattr $C$DW$6, DW_AT_external
	.dwattr $C$DW$6, DW_AT_decl_file("..\Application\TimerArr2.h")
	.dwattr $C$DW$6, DW_AT_decl_line(0x6d)
	.dwattr $C$DW$6, DW_AT_decl_column(0x06)
$C$DW$7	.dwtag  DW_TAG_formal_parameter
	.dwattr $C$DW$7, DW_AT_type(*$C$DW$T$219)

$C$DW$8	.dwtag  DW_TAG_formal_parameter
	.dwattr $C$DW$8, DW_AT_type(*$C$DW$T$228)

	.dwendtag $C$DW$6


$C$DW$9	.dwtag  DW_TAG_subprogram
	.dwattr $C$DW$9, DW_AT_name("ClearMemRpt")
	.dwattr $C$DW$9, DW_AT_linkage_name("ClearMemRpt")
	.dwattr $C$DW$9, DW_AT_declaration
	.dwattr $C$DW$9, DW_AT_external
	.dwattr $C$DW$9, DW_AT_decl_file("..\Application\SysUtils2.h")
	.dwattr $C$DW$9, DW_AT_decl_line(0x27)
	.dwattr $C$DW$9, DW_AT_decl_column(0x06)
$C$DW$10	.dwtag  DW_TAG_formal_parameter
	.dwattr $C$DW$10, DW_AT_type(*$C$DW$T$89)

$C$DW$11	.dwtag  DW_TAG_formal_parameter
	.dwattr $C$DW$11, DW_AT_type(*$C$DW$T$9)

	.dwendtag $C$DW$9


$C$DW$12	.dwtag  DW_TAG_subprogram
	.dwattr $C$DW$12, DW_AT_name("SevereBugUnknownManipualtor")
	.dwattr $C$DW$12, DW_AT_linkage_name("SevereBugUnknownManipualtor")
	.dwattr $C$DW$12, DW_AT_declaration
	.dwattr $C$DW$12, DW_AT_external
	.dwattr $C$DW$12, DW_AT_decl_file("..\Application\Functions2.h")
	.dwattr $C$DW$12, DW_AT_decl_line(0x107)
	.dwattr $C$DW$12, DW_AT_decl_column(0x06)
	.dwendtag $C$DW$12


$C$DW$13	.dwtag  DW_TAG_subprogram
	.dwattr $C$DW$13, DW_AT_name("SetSysTimerTarget")
	.dwattr $C$DW$13, DW_AT_linkage_name("SetSysTimerTarget")
	.dwattr $C$DW$13, DW_AT_declaration
	.dwattr $C$DW$13, DW_AT_external
	.dwattr $C$DW$13, DW_AT_decl_file("..\Application\TimerArr2.h")
	.dwattr $C$DW$13, DW_AT_decl_line(0x43)
	.dwattr $C$DW$13, DW_AT_decl_column(0x06)
$C$DW$14	.dwtag  DW_TAG_formal_parameter
	.dwattr $C$DW$14, DW_AT_type(*$C$DW$T$9)

$C$DW$15	.dwtag  DW_TAG_formal_parameter
	.dwattr $C$DW$15, DW_AT_type(*$C$DW$T$13)

$C$DW$16	.dwtag  DW_TAG_formal_parameter
	.dwattr $C$DW$16, DW_AT_type(*$C$DW$T$228)

	.dwendtag $C$DW$13


$C$DW$17	.dwtag  DW_TAG_subprogram
	.dwattr $C$DW$17, DW_AT_name("RestoreInts")
	.dwattr $C$DW$17, DW_AT_linkage_name("RestoreInts")
	.dwattr $C$DW$17, DW_AT_declaration
	.dwattr $C$DW$17, DW_AT_external
	.dwattr $C$DW$17, DW_AT_decl_file("..\Application\SysUtils2.h")
	.dwattr $C$DW$17, DW_AT_decl_line(0x36)
	.dwattr $C$DW$17, DW_AT_decl_column(0x06)
$C$DW$18	.dwtag  DW_TAG_formal_parameter
	.dwattr $C$DW$18, DW_AT_type(*$C$DW$T$9)

	.dwendtag $C$DW$17


$C$DW$19	.dwtag  DW_TAG_subprogram
	.dwattr $C$DW$19, DW_AT_name("SetSysTimerTargetSec")
	.dwattr $C$DW$19, DW_AT_linkage_name("SetSysTimerTargetSec")
	.dwattr $C$DW$19, DW_AT_declaration
	.dwattr $C$DW$19, DW_AT_external
	.dwattr $C$DW$19, DW_AT_decl_file("..\Application\TimerArr2.h")
	.dwattr $C$DW$19, DW_AT_decl_line(0x46)
	.dwattr $C$DW$19, DW_AT_decl_column(0x06)
$C$DW$20	.dwtag  DW_TAG_formal_parameter
	.dwattr $C$DW$20, DW_AT_type(*$C$DW$T$9)

$C$DW$21	.dwtag  DW_TAG_formal_parameter
	.dwattr $C$DW$21, DW_AT_type(*$C$DW$T$16)

$C$DW$22	.dwtag  DW_TAG_formal_parameter
	.dwattr $C$DW$22, DW_AT_type(*$C$DW$T$228)

	.dwendtag $C$DW$19


$C$DW$23	.dwtag  DW_TAG_subprogram
	.dwattr $C$DW$23, DW_AT_name("FlexGetGripperRobotCoord")
	.dwattr $C$DW$23, DW_AT_linkage_name("FlexGetGripperRobotCoord")
	.dwattr $C$DW$23, DW_AT_declaration
	.dwattr $C$DW$23, DW_AT_external
	.dwattr $C$DW$23, DW_AT_decl_file("..\Application\Functions2.h")
	.dwattr $C$DW$23, DW_AT_decl_line(0xf4)
	.dwattr $C$DW$23, DW_AT_decl_column(0x06)
$C$DW$24	.dwtag  DW_TAG_formal_parameter
	.dwattr $C$DW$24, DW_AT_type(*$C$DW$T$75)

$C$DW$25	.dwtag  DW_TAG_formal_parameter
	.dwattr $C$DW$25, DW_AT_type(*$C$DW$T$75)

$C$DW$26	.dwtag  DW_TAG_formal_parameter
	.dwattr $C$DW$26, DW_AT_type(*$C$DW$T$75)

	.dwendtag $C$DW$23


$C$DW$27	.dwtag  DW_TAG_subprogram
	.dwattr $C$DW$27, DW_AT_name("SetMonRequest24")
	.dwattr $C$DW$27, DW_AT_linkage_name("SetMonRequest24")
	.dwattr $C$DW$27, DW_AT_declaration
	.dwattr $C$DW$27, DW_AT_external
	.dwattr $C$DW$27, DW_AT_decl_file("..\Application\Functions2.h")
	.dwattr $C$DW$27, DW_AT_decl_line(0xc6)
	.dwattr $C$DW$27, DW_AT_decl_column(0x06)
$C$DW$28	.dwtag  DW_TAG_formal_parameter
	.dwattr $C$DW$28, DW_AT_type(*$C$DW$T$9)

$C$DW$29	.dwtag  DW_TAG_formal_parameter
	.dwattr $C$DW$29, DW_AT_type(*$C$DW$T$9)

	.dwendtag $C$DW$27


$C$DW$30	.dwtag  DW_TAG_subprogram
	.dwattr $C$DW$30, DW_AT_name("SetMonRequest12")
	.dwattr $C$DW$30, DW_AT_linkage_name("SetMonRequest12")
	.dwattr $C$DW$30, DW_AT_declaration
	.dwattr $C$DW$30, DW_AT_external
	.dwattr $C$DW$30, DW_AT_decl_file("..\Application\Functions2.h")
	.dwattr $C$DW$30, DW_AT_decl_line(0xc5)
	.dwattr $C$DW$30, DW_AT_decl_column(0x06)
$C$DW$31	.dwtag  DW_TAG_formal_parameter
	.dwattr $C$DW$31, DW_AT_type(*$C$DW$T$9)

$C$DW$32	.dwtag  DW_TAG_formal_parameter
	.dwattr $C$DW$32, DW_AT_type(*$C$DW$T$9)

	.dwendtag $C$DW$30

$C$DW$33	.dwtag  DW_TAG_variable
	.dwattr $C$DW$33, DW_AT_name("ManCBit")
	.dwattr $C$DW$33, DW_AT_linkage_name("ManCBit")
	.dwattr $C$DW$33, DW_AT_type(*$C$DW$T$98)
	.dwattr $C$DW$33, DW_AT_declaration
	.dwattr $C$DW$33, DW_AT_external
	.dwattr $C$DW$33, DW_AT_decl_file("..\Application\StructDef2.h")
	.dwattr $C$DW$33, DW_AT_decl_line(0x101)
	.dwattr $C$DW$33, DW_AT_decl_column(0x1c)

$C$DW$34	.dwtag  DW_TAG_variable
	.dwattr $C$DW$34, DW_AT_name("NUM_24V_AXES")
	.dwattr $C$DW$34, DW_AT_linkage_name("NUM_24V_AXES")
	.dwattr $C$DW$34, DW_AT_type(*$C$DW$T$9)
	.dwattr $C$DW$34, DW_AT_declaration
	.dwattr $C$DW$34, DW_AT_external
	.dwattr $C$DW$34, DW_AT_decl_file("..\Application\StructDef2.h")
	.dwattr $C$DW$34, DW_AT_decl_line(0x26d)
	.dwattr $C$DW$34, DW_AT_decl_column(0x1b)

$C$DW$35	.dwtag  DW_TAG_variable
	.dwattr $C$DW$35, DW_AT_name("NUM_12V_MANIP_AXES")
	.dwattr $C$DW$35, DW_AT_linkage_name("NUM_12V_MANIP_AXES")
	.dwattr $C$DW$35, DW_AT_type(*$C$DW$T$9)
	.dwattr $C$DW$35, DW_AT_declaration
	.dwattr $C$DW$35, DW_AT_external
	.dwattr $C$DW$35, DW_AT_decl_file("..\Application\StructDef2.h")
	.dwattr $C$DW$35, DW_AT_decl_line(0x26e)
	.dwattr $C$DW$35, DW_AT_decl_column(0x1b)

$C$DW$36	.dwtag  DW_TAG_variable
	.dwattr $C$DW$36, DW_AT_name("NUM_12V_WHEELARM_AXES")
	.dwattr $C$DW$36, DW_AT_linkage_name("NUM_12V_WHEELARM_AXES")
	.dwattr $C$DW$36, DW_AT_type(*$C$DW$T$9)
	.dwattr $C$DW$36, DW_AT_declaration
	.dwattr $C$DW$36, DW_AT_external
	.dwattr $C$DW$36, DW_AT_decl_file("..\Application\StructDef2.h")
	.dwattr $C$DW$36, DW_AT_decl_line(0x26f)
	.dwattr $C$DW$36, DW_AT_decl_column(0x1b)

$C$DW$37	.dwtag  DW_TAG_variable
	.dwattr $C$DW$37, DW_AT_name("NUM_24V_GEOM_AXES")
	.dwattr $C$DW$37, DW_AT_linkage_name("NUM_24V_GEOM_AXES")
	.dwattr $C$DW$37, DW_AT_type(*$C$DW$T$9)
	.dwattr $C$DW$37, DW_AT_declaration
	.dwattr $C$DW$37, DW_AT_external
	.dwattr $C$DW$37, DW_AT_decl_file("..\Application\StructDef2.h")
	.dwattr $C$DW$37, DW_AT_decl_line(0x270)
	.dwattr $C$DW$37, DW_AT_decl_column(0x1b)

$C$DW$38	.dwtag  DW_TAG_variable
	.dwattr $C$DW$38, DW_AT_name("NUM_12V_AXES_TOTAL")
	.dwattr $C$DW$38, DW_AT_linkage_name("NUM_12V_AXES_TOTAL")
	.dwattr $C$DW$38, DW_AT_type(*$C$DW$T$9)
	.dwattr $C$DW$38, DW_AT_declaration
	.dwattr $C$DW$38, DW_AT_external
	.dwattr $C$DW$38, DW_AT_decl_file("..\Application\StructDef2.h")
	.dwattr $C$DW$38, DW_AT_decl_line(0x271)
	.dwattr $C$DW$38, DW_AT_decl_column(0x1b)

$C$DW$39	.dwtag  DW_TAG_variable
	.dwattr $C$DW$39, DW_AT_name("ManipulatorType")
	.dwattr $C$DW$39, DW_AT_linkage_name("ManipulatorType")
	.dwattr $C$DW$39, DW_AT_type(*$C$DW$T$9)
	.dwattr $C$DW$39, DW_AT_declaration
	.dwattr $C$DW$39, DW_AT_external
	.dwattr $C$DW$39, DW_AT_decl_file("..\Application\StructDef2.h")
	.dwattr $C$DW$39, DW_AT_decl_line(0x503)
	.dwattr $C$DW$39, DW_AT_decl_column(0x1b)

$C$DW$40	.dwtag  DW_TAG_variable
	.dwattr $C$DW$40, DW_AT_name("OverRideSwitches")
	.dwattr $C$DW$40, DW_AT_linkage_name("OverRideSwitches")
	.dwattr $C$DW$40, DW_AT_type(*$C$DW$T$8)
	.dwattr $C$DW$40, DW_AT_declaration
	.dwattr $C$DW$40, DW_AT_external
	.dwattr $C$DW$40, DW_AT_decl_file("..\Application\StructDef2.h")
	.dwattr $C$DW$40, DW_AT_decl_line(0x515)
	.dwattr $C$DW$40, DW_AT_decl_column(0x12)


$C$DW$41	.dwtag  DW_TAG_subprogram
	.dwattr $C$DW$41, DW_AT_name("AdvanceProfiler")
	.dwattr $C$DW$41, DW_AT_linkage_name("AdvanceProfiler")
	.dwattr $C$DW$41, DW_AT_type(*$C$DW$T$9)
	.dwattr $C$DW$41, DW_AT_declaration
	.dwattr $C$DW$41, DW_AT_external
	.dwattr $C$DW$41, DW_AT_decl_file("..\Application\TrapezeProfiler2.h")
	.dwattr $C$DW$41, DW_AT_decl_line(0x27)
	.dwattr $C$DW$41, DW_AT_decl_column(0x11)
$C$DW$42	.dwtag  DW_TAG_formal_parameter
	.dwattr $C$DW$42, DW_AT_type(*$C$DW$T$225)

$C$DW$43	.dwtag  DW_TAG_formal_parameter
	.dwattr $C$DW$43, DW_AT_type(*$C$DW$T$16)

	.dwendtag $C$DW$41


$C$DW$44	.dwtag  DW_TAG_subprogram
	.dwattr $C$DW$44, DW_AT_name("CbitIntegratorUpdate")
	.dwattr $C$DW$44, DW_AT_linkage_name("CbitIntegratorUpdate")
	.dwattr $C$DW$44, DW_AT_type(*$C$DW$T$8)
	.dwattr $C$DW$44, DW_AT_declaration
	.dwattr $C$DW$44, DW_AT_external
	.dwattr $C$DW$44, DW_AT_decl_file("..\Application\TimerArr2.h")
	.dwattr $C$DW$44, DW_AT_decl_line(0x70)
	.dwattr $C$DW$44, DW_AT_decl_column(0x07)
$C$DW$45	.dwtag  DW_TAG_formal_parameter
	.dwattr $C$DW$45, DW_AT_type(*$C$DW$T$16)

$C$DW$46	.dwtag  DW_TAG_formal_parameter
	.dwattr $C$DW$46, DW_AT_type(*$C$DW$T$219)

$C$DW$47	.dwtag  DW_TAG_formal_parameter
	.dwattr $C$DW$47, DW_AT_type(*$C$DW$T$228)

	.dwendtag $C$DW$44


$C$DW$48	.dwtag  DW_TAG_subprogram
	.dwattr $C$DW$48, DW_AT_name("ProgramProfiler")
	.dwattr $C$DW$48, DW_AT_linkage_name("ProgramProfiler")
	.dwattr $C$DW$48, DW_AT_type(*$C$DW$T$8)
	.dwattr $C$DW$48, DW_AT_declaration
	.dwattr $C$DW$48, DW_AT_external
	.dwattr $C$DW$48, DW_AT_decl_file("..\Application\TrapezeProfiler2.h")
	.dwattr $C$DW$48, DW_AT_decl_line(0x24)
	.dwattr $C$DW$48, DW_AT_decl_column(0x07)
$C$DW$49	.dwtag  DW_TAG_formal_parameter
	.dwattr $C$DW$49, DW_AT_type(*$C$DW$T$225)

$C$DW$50	.dwtag  DW_TAG_formal_parameter
	.dwattr $C$DW$50, DW_AT_type(*$C$DW$T$16)

$C$DW$51	.dwtag  DW_TAG_formal_parameter
	.dwattr $C$DW$51, DW_AT_type(*$C$DW$T$16)

$C$DW$52	.dwtag  DW_TAG_formal_parameter
	.dwattr $C$DW$52, DW_AT_type(*$C$DW$T$16)

$C$DW$53	.dwtag  DW_TAG_formal_parameter
	.dwattr $C$DW$53, DW_AT_type(*$C$DW$T$16)

$C$DW$54	.dwtag  DW_TAG_formal_parameter
	.dwattr $C$DW$54, DW_AT_type(*$C$DW$T$9)

	.dwendtag $C$DW$48


$C$DW$55	.dwtag  DW_TAG_subprogram
	.dwattr $C$DW$55, DW_AT_name("CbitCounterUpdate")
	.dwattr $C$DW$55, DW_AT_linkage_name("CbitCounterUpdate")
	.dwattr $C$DW$55, DW_AT_type(*$C$DW$T$8)
	.dwattr $C$DW$55, DW_AT_declaration
	.dwattr $C$DW$55, DW_AT_external
	.dwattr $C$DW$55, DW_AT_decl_file("..\Application\TimerArr2.h")
	.dwattr $C$DW$55, DW_AT_decl_line(0x69)
	.dwattr $C$DW$55, DW_AT_decl_column(0x07)
$C$DW$56	.dwtag  DW_TAG_formal_parameter
	.dwattr $C$DW$56, DW_AT_type(*$C$DW$T$8)

$C$DW$57	.dwtag  DW_TAG_formal_parameter
	.dwattr $C$DW$57, DW_AT_type(*$C$DW$T$217)

	.dwendtag $C$DW$55


$C$DW$58	.dwtag  DW_TAG_subprogram
	.dwattr $C$DW$58, DW_AT_name("IsSysTimerElapse")
	.dwattr $C$DW$58, DW_AT_linkage_name("IsSysTimerElapse")
	.dwattr $C$DW$58, DW_AT_type(*$C$DW$T$9)
	.dwattr $C$DW$58, DW_AT_declaration
	.dwattr $C$DW$58, DW_AT_external
	.dwattr $C$DW$58, DW_AT_decl_file("..\Application\TimerArr2.h")
	.dwattr $C$DW$58, DW_AT_decl_line(0x54)
	.dwattr $C$DW$58, DW_AT_decl_column(0x10)
$C$DW$59	.dwtag  DW_TAG_formal_parameter
	.dwattr $C$DW$59, DW_AT_type(*$C$DW$T$9)

$C$DW$60	.dwtag  DW_TAG_formal_parameter
	.dwattr $C$DW$60, DW_AT_type(*$C$DW$T$228)

	.dwendtag $C$DW$58


$C$DW$61	.dwtag  DW_TAG_subprogram
	.dwattr $C$DW$61, DW_AT_name("BlockInts")
	.dwattr $C$DW$61, DW_AT_linkage_name("BlockInts")
	.dwattr $C$DW$61, DW_AT_type(*$C$DW$T$9)
	.dwattr $C$DW$61, DW_AT_declaration
	.dwattr $C$DW$61, DW_AT_external
	.dwattr $C$DW$61, DW_AT_decl_file("..\Application\SysUtils2.h")
	.dwattr $C$DW$61, DW_AT_decl_line(0x35)
	.dwattr $C$DW$61, DW_AT_decl_column(0x10)
	.dwendtag $C$DW$61

$C$DW$62	.dwtag  DW_TAG_variable
	.dwattr $C$DW$62, DW_AT_name("NoElbowCmd")
	.dwattr $C$DW$62, DW_AT_linkage_name("NoElbowCmd")
	.dwattr $C$DW$62, DW_AT_type(*$C$DW$T$112)
	.dwattr $C$DW$62, DW_AT_declaration
	.dwattr $C$DW$62, DW_AT_external
	.dwattr $C$DW$62, DW_AT_decl_file("..\Application\ManState.h")
	.dwattr $C$DW$62, DW_AT_decl_line(0x141)
	.dwattr $C$DW$62, DW_AT_decl_column(0x23)


$C$DW$63	.dwtag  DW_TAG_subprogram
	.dwattr $C$DW$63, DW_AT_name("Yfabs")
	.dwattr $C$DW$63, DW_AT_linkage_name("Yfabs")
	.dwattr $C$DW$63, DW_AT_type(*$C$DW$T$16)
	.dwattr $C$DW$63, DW_AT_declaration
	.dwattr $C$DW$63, DW_AT_external
	.dwattr $C$DW$63, DW_AT_decl_file("..\Application\SysUtils2.h")
	.dwattr $C$DW$63, DW_AT_decl_line(0x0d)
	.dwattr $C$DW$63, DW_AT_decl_column(0x07)
$C$DW$64	.dwtag  DW_TAG_formal_parameter
	.dwattr $C$DW$64, DW_AT_type(*$C$DW$T$16)

	.dwendtag $C$DW$63


$C$DW$65	.dwtag  DW_TAG_subprogram
	.dwattr $C$DW$65, DW_AT_name("aYcos")
	.dwattr $C$DW$65, DW_AT_linkage_name("aYcos")
	.dwattr $C$DW$65, DW_AT_type(*$C$DW$T$16)
	.dwattr $C$DW$65, DW_AT_declaration
	.dwattr $C$DW$65, DW_AT_external
	.dwattr $C$DW$65, DW_AT_decl_file("..\Application\SysUtils2.h")
	.dwattr $C$DW$65, DW_AT_decl_line(0x11)
	.dwattr $C$DW$65, DW_AT_decl_column(0x07)
$C$DW$66	.dwtag  DW_TAG_formal_parameter
	.dwattr $C$DW$66, DW_AT_type(*$C$DW$T$16)

	.dwendtag $C$DW$65


$C$DW$67	.dwtag  DW_TAG_subprogram
	.dwattr $C$DW$67, DW_AT_name("Ycos")
	.dwattr $C$DW$67, DW_AT_linkage_name("Ycos")
	.dwattr $C$DW$67, DW_AT_type(*$C$DW$T$16)
	.dwattr $C$DW$67, DW_AT_declaration
	.dwattr $C$DW$67, DW_AT_external
	.dwattr $C$DW$67, DW_AT_decl_file("..\Application\SysUtils2.h")
	.dwattr $C$DW$67, DW_AT_decl_line(0x10)
	.dwattr $C$DW$67, DW_AT_decl_column(0x07)
$C$DW$68	.dwtag  DW_TAG_formal_parameter
	.dwattr $C$DW$68, DW_AT_type(*$C$DW$T$16)

	.dwendtag $C$DW$67


$C$DW$69	.dwtag  DW_TAG_subprogram
	.dwattr $C$DW$69, DW_AT_name("Ysin")
	.dwattr $C$DW$69, DW_AT_linkage_name("Ysin")
	.dwattr $C$DW$69, DW_AT_type(*$C$DW$T$16)
	.dwattr $C$DW$69, DW_AT_declaration
	.dwattr $C$DW$69, DW_AT_external
	.dwattr $C$DW$69, DW_AT_decl_file("..\Application\SysUtils2.h")
	.dwattr $C$DW$69, DW_AT_decl_line(0x0f)
	.dwattr $C$DW$69, DW_AT_decl_column(0x07)
$C$DW$70	.dwtag  DW_TAG_formal_parameter
	.dwattr $C$DW$70, DW_AT_type(*$C$DW$T$16)

	.dwendtag $C$DW$69


$C$DW$71	.dwtag  DW_TAG_subprogram
	.dwattr $C$DW$71, DW_AT_name("mod2piS")
	.dwattr $C$DW$71, DW_AT_linkage_name("mod2piS")
	.dwattr $C$DW$71, DW_AT_type(*$C$DW$T$16)
	.dwattr $C$DW$71, DW_AT_declaration
	.dwattr $C$DW$71, DW_AT_external
	.dwattr $C$DW$71, DW_AT_decl_file("..\Application\SysUtils2.h")
	.dwattr $C$DW$71, DW_AT_decl_line(0x15)
	.dwattr $C$DW$71, DW_AT_decl_column(0x07)
$C$DW$72	.dwtag  DW_TAG_formal_parameter
	.dwattr $C$DW$72, DW_AT_type(*$C$DW$T$16)

	.dwendtag $C$DW$71


$C$DW$73	.dwtag  DW_TAG_subprogram
	.dwattr $C$DW$73, DW_AT_name("Ysqrt")
	.dwattr $C$DW$73, DW_AT_linkage_name("Ysqrt")
	.dwattr $C$DW$73, DW_AT_type(*$C$DW$T$16)
	.dwattr $C$DW$73, DW_AT_declaration
	.dwattr $C$DW$73, DW_AT_external
	.dwattr $C$DW$73, DW_AT_decl_file("..\Application\SysUtils2.h")
	.dwattr $C$DW$73, DW_AT_decl_line(0x0e)
	.dwattr $C$DW$73, DW_AT_decl_column(0x07)
$C$DW$74	.dwtag  DW_TAG_formal_parameter
	.dwattr $C$DW$74, DW_AT_type(*$C$DW$T$16)

	.dwendtag $C$DW$73


$C$DW$75	.dwtag  DW_TAG_subprogram
	.dwattr $C$DW$75, DW_AT_name("Yatan2")
	.dwattr $C$DW$75, DW_AT_linkage_name("Yatan2")
	.dwattr $C$DW$75, DW_AT_type(*$C$DW$T$16)
	.dwattr $C$DW$75, DW_AT_declaration
	.dwattr $C$DW$75, DW_AT_external
	.dwattr $C$DW$75, DW_AT_decl_file("..\Application\SysUtils2.h")
	.dwattr $C$DW$75, DW_AT_decl_line(0x14)
	.dwattr $C$DW$75, DW_AT_decl_column(0x07)
$C$DW$76	.dwtag  DW_TAG_formal_parameter
	.dwattr $C$DW$76, DW_AT_type(*$C$DW$T$16)

$C$DW$77	.dwtag  DW_TAG_formal_parameter
	.dwattr $C$DW$77, DW_AT_type(*$C$DW$T$16)

	.dwendtag $C$DW$75


$C$DW$78	.dwtag  DW_TAG_subprogram
	.dwattr $C$DW$78, DW_AT_name("aYsin")
	.dwattr $C$DW$78, DW_AT_linkage_name("aYsin")
	.dwattr $C$DW$78, DW_AT_type(*$C$DW$T$16)
	.dwattr $C$DW$78, DW_AT_declaration
	.dwattr $C$DW$78, DW_AT_external
	.dwattr $C$DW$78, DW_AT_decl_file("..\Application\SysUtils2.h")
	.dwattr $C$DW$78, DW_AT_decl_line(0x12)
	.dwattr $C$DW$78, DW_AT_decl_column(0x07)
$C$DW$79	.dwtag  DW_TAG_formal_parameter
	.dwattr $C$DW$79, DW_AT_type(*$C$DW$T$16)

	.dwendtag $C$DW$78


$C$DW$80	.dwtag  DW_TAG_subprogram
	.dwattr $C$DW$80, DW_AT_name("HYpot")
	.dwattr $C$DW$80, DW_AT_linkage_name("HYpot")
	.dwattr $C$DW$80, DW_AT_type(*$C$DW$T$16)
	.dwattr $C$DW$80, DW_AT_declaration
	.dwattr $C$DW$80, DW_AT_external
	.dwattr $C$DW$80, DW_AT_decl_file("..\Application\SysUtils2.h")
	.dwattr $C$DW$80, DW_AT_decl_line(0x16)
	.dwattr $C$DW$80, DW_AT_decl_column(0x07)
$C$DW$81	.dwtag  DW_TAG_formal_parameter
	.dwattr $C$DW$81, DW_AT_type(*$C$DW$T$16)

$C$DW$82	.dwtag  DW_TAG_formal_parameter
	.dwattr $C$DW$82, DW_AT_type(*$C$DW$T$16)

	.dwendtag $C$DW$80

$C$DW$83	.dwtag  DW_TAG_variable
	.dwattr $C$DW$83, DW_AT_name("ManCmdSamp")
	.dwattr $C$DW$83, DW_AT_linkage_name("ManCmdSamp")
	.dwattr $C$DW$83, DW_AT_type(*$C$DW$T$101)
	.dwattr $C$DW$83, DW_AT_declaration
	.dwattr $C$DW$83, DW_AT_external
	.dwattr $C$DW$83, DW_AT_decl_file("..\Application\ManState.h")
	.dwattr $C$DW$83, DW_AT_decl_line(0x97)
	.dwattr $C$DW$83, DW_AT_decl_column(0x24)

$C$DW$84	.dwtag  DW_TAG_variable
	.dwattr $C$DW$84, DW_AT_name("ManualManCmd")
	.dwattr $C$DW$84, DW_AT_linkage_name("ManualManCmd")
	.dwattr $C$DW$84, DW_AT_type(*$C$DW$T$107)
	.dwattr $C$DW$84, DW_AT_declaration
	.dwattr $C$DW$84, DW_AT_external
	.dwattr $C$DW$84, DW_AT_decl_file("..\Application\ManState.h")
	.dwattr $C$DW$84, DW_AT_decl_line(0x1ae)
	.dwattr $C$DW$84, DW_AT_decl_column(0x25)


$C$DW$85	.dwtag  DW_TAG_subprogram
	.dwattr $C$DW$85, DW_AT_name("GetLongTimer")
	.dwattr $C$DW$85, DW_AT_linkage_name("GetLongTimer")
	.dwattr $C$DW$85, DW_AT_type(*$C$DW$T$15)
	.dwattr $C$DW$85, DW_AT_declaration
	.dwattr $C$DW$85, DW_AT_external
	.dwattr $C$DW$85, DW_AT_decl_file("..\Application\TimerArr2.h")
	.dwattr $C$DW$85, DW_AT_decl_line(0x3a)
	.dwattr $C$DW$85, DW_AT_decl_column(0x14)
$C$DW$86	.dwtag  DW_TAG_formal_parameter
	.dwattr $C$DW$86, DW_AT_type(*$C$DW$T$228)

	.dwendtag $C$DW$85

$C$DW$87	.dwtag  DW_TAG_variable
	.dwattr $C$DW$87, DW_AT_name("StructManipDbg")
	.dwattr $C$DW$87, DW_AT_linkage_name("StructManipDbg")
	.dwattr $C$DW$87, DW_AT_type(*$C$DW$T$131)
	.dwattr $C$DW$87, DW_AT_declaration
	.dwattr $C$DW$87, DW_AT_external
	.dwattr $C$DW$87, DW_AT_decl_file("..\Application\StructDef2.h")
	.dwattr $C$DW$87, DW_AT_decl_line(0x52c)
	.dwattr $C$DW$87, DW_AT_decl_column(0x23)

$C$DW$88	.dwtag  DW_TAG_variable
	.dwattr $C$DW$88, DW_AT_name("UnreachableLog")
	.dwattr $C$DW$88, DW_AT_linkage_name("UnreachableLog")
	.dwattr $C$DW$88, DW_AT_type(*$C$DW$T$140)
	.dwattr $C$DW$88, DW_AT_declaration
	.dwattr $C$DW$88, DW_AT_external
	.dwattr $C$DW$88, DW_AT_decl_file("..\Application\ManState.h")
	.dwattr $C$DW$88, DW_AT_decl_line(0x14f)
	.dwattr $C$DW$88, DW_AT_decl_column(0x28)

$C$DW$89	.dwtag  DW_TAG_variable
	.dwattr $C$DW$89, DW_AT_name("TTProfile")
	.dwattr $C$DW$89, DW_AT_linkage_name("TTProfile")
	.dwattr $C$DW$89, DW_AT_type(*$C$DW$T$129)
	.dwattr $C$DW$89, DW_AT_declaration
	.dwattr $C$DW$89, DW_AT_external
	.dwattr $C$DW$89, DW_AT_decl_file("..\Application\ManState.h")
	.dwattr $C$DW$89, DW_AT_decl_line(0x56)
	.dwattr $C$DW$89, DW_AT_decl_column(0x24)

$C$DW$90	.dwtag  DW_TAG_variable
	.dwattr $C$DW$90, DW_AT_name("IndividualAxCtl24")
	.dwattr $C$DW$90, DW_AT_linkage_name("IndividualAxCtl24")
	.dwattr $C$DW$90, DW_AT_type(*$C$DW$T$223)
	.dwattr $C$DW$90, DW_AT_declaration
	.dwattr $C$DW$90, DW_AT_external
	.dwattr $C$DW$90, DW_AT_decl_file("..\Application\ManState.h")
	.dwattr $C$DW$90, DW_AT_decl_line(0x1b7)
	.dwattr $C$DW$90, DW_AT_decl_column(0x28)

$C$DW$91	.dwtag  DW_TAG_variable
	.dwattr $C$DW$91, DW_AT_name("IndividualAxCtl12")
	.dwattr $C$DW$91, DW_AT_linkage_name("IndividualAxCtl12")
	.dwattr $C$DW$91, DW_AT_type(*$C$DW$T$223)
	.dwattr $C$DW$91, DW_AT_declaration
	.dwattr $C$DW$91, DW_AT_external
	.dwattr $C$DW$91, DW_AT_decl_file("..\Application\ManState.h")
	.dwattr $C$DW$91, DW_AT_decl_line(0x1b8)
	.dwattr $C$DW$91, DW_AT_decl_column(0x28)

$C$DW$92	.dwtag  DW_TAG_variable
	.dwattr $C$DW$92, DW_AT_name("ManControlCbitCntr")
	.dwattr $C$DW$92, DW_AT_linkage_name("ManControlCbitCntr")
	.dwattr $C$DW$92, DW_AT_type(*$C$DW$T$218)
	.dwattr $C$DW$92, DW_AT_declaration
	.dwattr $C$DW$92, DW_AT_external
	.dwattr $C$DW$92, DW_AT_decl_file("..\Application\StructDef2.h")
	.dwattr $C$DW$92, DW_AT_decl_line(0x514)
	.dwattr $C$DW$92, DW_AT_decl_column(0x20)

$C$DW$93	.dwtag  DW_TAG_variable
	.dwattr $C$DW$93, DW_AT_name("XYTraj")
	.dwattr $C$DW$93, DW_AT_linkage_name("XYTraj")
	.dwattr $C$DW$93, DW_AT_type(*$C$DW$T$143)
	.dwattr $C$DW$93, DW_AT_declaration
	.dwattr $C$DW$93, DW_AT_external
	.dwattr $C$DW$93, DW_AT_decl_file("..\Application\StructDef2.h")
	.dwattr $C$DW$93, DW_AT_decl_line(0x542)
	.dwattr $C$DW$93, DW_AT_decl_column(0x1b)

$C$DW$94	.dwtag  DW_TAG_variable
	.dwattr $C$DW$94, DW_AT_name("GpioDataRegs")
	.dwattr $C$DW$94, DW_AT_linkage_name("GpioDataRegs")
	.dwattr $C$DW$94, DW_AT_type(*$C$DW$T$235)
	.dwattr $C$DW$94, DW_AT_declaration
	.dwattr $C$DW$94, DW_AT_external
	.dwattr $C$DW$94, DW_AT_decl_file("..\Application\..\Drivers\..\F2838x_utils\f2838x_gpio.h")
	.dwattr $C$DW$94, DW_AT_decl_line(0xf29)
	.dwattr $C$DW$94, DW_AT_decl_column(0x27)

$C$DW$95	.dwtag  DW_TAG_variable
	.dwattr $C$DW$95, DW_AT_name("XProfile")
	.dwattr $C$DW$95, DW_AT_linkage_name("XProfile")
	.dwattr $C$DW$95, DW_AT_type(*$C$DW$T$121)
	.dwattr $C$DW$95, DW_AT_declaration
	.dwattr $C$DW$95, DW_AT_external
	.dwattr $C$DW$95, DW_AT_decl_file("..\Application\ManState.h")
	.dwattr $C$DW$95, DW_AT_decl_line(0x4a)
	.dwattr $C$DW$95, DW_AT_decl_column(0x21)

$C$DW$96	.dwtag  DW_TAG_variable
	.dwattr $C$DW$96, DW_AT_name("IPC_Instance")
	.dwattr $C$DW$96, DW_AT_linkage_name("IPC_Instance")
	.dwattr $C$DW$96, DW_AT_type(*$C$DW$T$215)
	.dwattr $C$DW$96, DW_AT_declaration
	.dwattr $C$DW$96, DW_AT_external
	.dwattr $C$DW$96, DW_AT_decl_file("..\Application\..\Drivers\..\F2838x_driverlib\driverlib\ipc.h")
	.dwattr $C$DW$96, DW_AT_decl_line(0x130)
	.dwattr $C$DW$96, DW_AT_decl_column(0x1d)

$C$DW$97	.dwtag  DW_TAG_variable
	.dwattr $C$DW$97, DW_AT_name("ManGeo")
	.dwattr $C$DW$97, DW_AT_linkage_name("ManGeo")
	.dwattr $C$DW$97, DW_AT_type(*$C$DW$T$103)
	.dwattr $C$DW$97, DW_AT_declaration
	.dwattr $C$DW$97, DW_AT_external
	.dwattr $C$DW$97, DW_AT_decl_file("..\Application\ManState.h")
	.dwattr $C$DW$97, DW_AT_decl_line(0x1a4)
	.dwattr $C$DW$97, DW_AT_decl_column(0x1f)

$C$DW$98	.dwtag  DW_TAG_variable
	.dwattr $C$DW$98, DW_AT_name("DynStat24")
	.dwattr $C$DW$98, DW_AT_linkage_name("DynStat24")
	.dwattr $C$DW$98, DW_AT_type(*$C$DW$T$221)
	.dwattr $C$DW$98, DW_AT_declaration
	.dwattr $C$DW$98, DW_AT_external
	.dwattr $C$DW$98, DW_AT_decl_file("..\Application\Dynamixel.h")
	.dwattr $C$DW$98, DW_AT_decl_line(0xf6)
	.dwattr $C$DW$98, DW_AT_decl_column(0x25)

$C$DW$99	.dwtag  DW_TAG_variable
	.dwattr $C$DW$99, DW_AT_name("DynStat12")
	.dwattr $C$DW$99, DW_AT_linkage_name("DynStat12")
	.dwattr $C$DW$99, DW_AT_type(*$C$DW$T$221)
	.dwattr $C$DW$99, DW_AT_declaration
	.dwattr $C$DW$99, DW_AT_external
	.dwattr $C$DW$99, DW_AT_decl_file("..\Application\Dynamixel.h")
	.dwattr $C$DW$99, DW_AT_decl_line(0xf7)
	.dwattr $C$DW$99, DW_AT_decl_column(0x25)

$C$DW$100	.dwtag  DW_TAG_variable
	.dwattr $C$DW$100, DW_AT_name("Dynamixel24")
	.dwattr $C$DW$100, DW_AT_linkage_name("Dynamixel24")
	.dwattr $C$DW$100, DW_AT_type(*$C$DW$T$94)
	.dwattr $C$DW$100, DW_AT_declaration
	.dwattr $C$DW$100, DW_AT_external
	.dwattr $C$DW$100, DW_AT_decl_file("..\Application\Dynamixel.h")
	.dwattr $C$DW$100, DW_AT_decl_line(0x93)
	.dwattr $C$DW$100, DW_AT_decl_column(0x26)

$C$DW$101	.dwtag  DW_TAG_variable
	.dwattr $C$DW$101, DW_AT_name("SysTimerStr")
	.dwattr $C$DW$101, DW_AT_linkage_name("SysTimerStr")
	.dwattr $C$DW$101, DW_AT_type(*$C$DW$T$139)
	.dwattr $C$DW$101, DW_AT_declaration
	.dwattr $C$DW$101, DW_AT_external
	.dwattr $C$DW$101, DW_AT_decl_file("..\Application\StructDef2.h")
	.dwattr $C$DW$101, DW_AT_decl_line(0x4ae)
	.dwattr $C$DW$101, DW_AT_decl_column(0x20)

$C$DW$102	.dwtag  DW_TAG_variable
	.dwattr $C$DW$102, DW_AT_name("S2M")
	.dwattr $C$DW$102, DW_AT_linkage_name("S2M")
	.dwattr $C$DW$102, DW_AT_type(*$C$DW$T$206)
	.dwattr $C$DW$102, DW_AT_declaration
	.dwattr $C$DW$102, DW_AT_external
	.dwattr $C$DW$102, DW_AT_decl_file("..\Application\StructDef2.h")
	.dwattr $C$DW$102, DW_AT_decl_line(0x23a)
	.dwattr $C$DW$102, DW_AT_decl_column(0x23)

$C$DW$103	.dwtag  DW_TAG_variable
	.dwattr $C$DW$103, DW_AT_name("vvec")
	.dwattr $C$DW$103, DW_AT_linkage_name("vvec")
	.dwattr $C$DW$103, DW_AT_type(*$C$DW$T$348)
	.dwattr $C$DW$103, DW_AT_declaration
	.dwattr $C$DW$103, DW_AT_external
	.dwattr $C$DW$103, DW_AT_decl_file("..\Application\StructDef2.h")
	.dwattr $C$DW$103, DW_AT_decl_line(0x52f)
	.dwattr $C$DW$103, DW_AT_decl_column(0x12)

$C$DW$104	.dwtag  DW_TAG_variable
	.dwattr $C$DW$104, DW_AT_name("avec")
	.dwattr $C$DW$104, DW_AT_linkage_name("avec")
	.dwattr $C$DW$104, DW_AT_type(*$C$DW$T$348)
	.dwattr $C$DW$104, DW_AT_declaration
	.dwattr $C$DW$104, DW_AT_external
	.dwattr $C$DW$104, DW_AT_decl_file("..\Application\StructDef2.h")
	.dwattr $C$DW$104, DW_AT_decl_line(0x530)
	.dwattr $C$DW$104, DW_AT_decl_column(0x12)

$C$DW$105	.dwtag  DW_TAG_variable
	.dwattr $C$DW$105, DW_AT_name("SysState")
	.dwattr $C$DW$105, DW_AT_linkage_name("SysState")
	.dwattr $C$DW$105, DW_AT_type(*$C$DW$T$137)
	.dwattr $C$DW$105, DW_AT_declaration
	.dwattr $C$DW$105, DW_AT_external
	.dwattr $C$DW$105, DW_AT_decl_file("..\Application\StructDef2.h")
	.dwattr $C$DW$105, DW_AT_decl_line(0x403)
	.dwattr $C$DW$105, DW_AT_decl_column(0x1d)

$C$DW$106	.dwtag  DW_TAG_variable
	.dwattr $C$DW$106, DW_AT_name("ManCmd")
	.dwattr $C$DW$106, DW_AT_linkage_name("ManCmd")
	.dwattr $C$DW$106, DW_AT_type(*$C$DW$T$100)
	.dwattr $C$DW$106, DW_AT_declaration
	.dwattr $C$DW$106, DW_AT_external
	.dwattr $C$DW$106, DW_AT_decl_file("..\Application\ManState.h")
	.dwattr $C$DW$106, DW_AT_decl_line(0x139)
	.dwattr $C$DW$106, DW_AT_decl_column(0x1f)

;	C:\ti\ccs1260\ccs\tools\compiler\ti-cgt-c2000_22.6.1.LTS\bin\acia2000.exe -@C:\\Users\\yahal\\AppData\\Local\\Temp\\{05319B67-BEC9-42D1-B267-82FF5ABD1922} 
	.sect	".text:Flash_RelinquishPumpSemaphore"
	.clink
	.global	||Flash_RelinquishPumpSemaphore||

$C$DW$107	.dwtag  DW_TAG_subprogram
	.dwattr $C$DW$107, DW_AT_name("Flash_RelinquishPumpSemaphore")
	.dwattr $C$DW$107, DW_AT_low_pc(||Flash_RelinquishPumpSemaphore||)
	.dwattr $C$DW$107, DW_AT_high_pc(0x00)
	.dwattr $C$DW$107, DW_AT_linkage_name("Flash_RelinquishPumpSemaphore")
	.dwattr $C$DW$107, DW_AT_external
	.dwattr $C$DW$107, DW_AT_decl_file("..\Application\..\Drivers\..\F2838x_driverlib\driverlib\flash.h")
	.dwattr $C$DW$107, DW_AT_decl_line(0x61f)
	.dwattr $C$DW$107, DW_AT_decl_column(0x0d)
	.dwattr $C$DW$107, DW_AT_TI_max_frame_size(-2)
	.dwpsn	file "..\Application\..\Drivers\..\F2838x_driverlib\driverlib\flash.h",line 1568,column 1,is_stmt,address ||Flash_RelinquishPumpSemaphore||,isa 0

	.dwfde $C$DW$CIE, ||Flash_RelinquishPumpSemaphore||

;***************************************************************
;* FNAME: Flash_RelinquishPumpSemaphore FR SIZE:   0           *
;*                                                             *
;* FUNCTION ENVIRONMENT                                        *
;*                                                             *
;* FUNCTION PROPERTIES                                         *
;*                            0 Parameter,  0 Auto,  0 SOE     *
;***************************************************************

||Flash_RelinquishPumpSemaphore||:
	.dwcfi	cfa_offset, -2
	.dwcfi	save_reg_to_mem, 26, 0
	.dwpsn	file "..\Application\..\Drivers\..\F2838x_driverlib\driverlib\flash.h",line 1569,column 5,is_stmt,isa 0
 EALLOW
	.dwpsn	file "..\Application\..\Drivers\..\F2838x_driverlib\driverlib\flash.h",line 1570,column 5,is_stmt,isa 0
        MOVW      DP,#||IPC_Instance||+66 ; [CPU_ARAU] 
        MOVL      XAR4,@||IPC_Instance||+66 ; [CPU_ALU] |1570| 
        MOVB      AL,#0                 ; [CPU_ALU] |1570| 
        MOV       AH,#23130             ; [CPU_ALU] |1570| 
        MOVL      *+XAR4[4],ACC         ; [CPU_ALU] |1570| 
	.dwpsn	file "..\Application\..\Drivers\..\F2838x_driverlib\driverlib\flash.h",line 1571,column 5,is_stmt,isa 0
 EDIS
	.dwpsn	file "..\Application\..\Drivers\..\F2838x_driverlib\driverlib\flash.h",line 1572,column 1,is_stmt,isa 0
        SPM       #0                    ; [CPU_ALU] 
$C$DW$108	.dwtag  DW_TAG_TI_branch
	.dwattr $C$DW$108, DW_AT_low_pc(0x00)
	.dwattr $C$DW$108, DW_AT_TI_return

        LRETR     ; [CPU_ALU] 
        ; return occurs ; [] 
	.dwattr $C$DW$107, DW_AT_TI_end_file("..\Application\..\Drivers\..\F2838x_driverlib\driverlib\flash.h")
	.dwattr $C$DW$107, DW_AT_TI_end_line(0x624)
	.dwattr $C$DW$107, DW_AT_TI_end_column(0x01)
	.dwendentry
	.dwendtag $C$DW$107

	.sect	".text:GetSemaphore"
	.clink
	.global	||GetSemaphore||

$C$DW$109	.dwtag  DW_TAG_subprogram
	.dwattr $C$DW$109, DW_AT_name("GetSemaphore")
	.dwattr $C$DW$109, DW_AT_low_pc(||GetSemaphore||)
	.dwattr $C$DW$109, DW_AT_high_pc(0x00)
	.dwattr $C$DW$109, DW_AT_linkage_name("GetSemaphore")
	.dwattr $C$DW$109, DW_AT_external
	.dwattr $C$DW$109, DW_AT_type(*$C$DW$T$13)
	.dwattr $C$DW$109, DW_AT_decl_file("..\Application\..\Drivers\..\F2838x_driverlib\driverlib\flash.h")
	.dwattr $C$DW$109, DW_AT_decl_line(0x627)
	.dwattr $C$DW$109, DW_AT_decl_column(0x0f)
	.dwattr $C$DW$109, DW_AT_TI_max_frame_size(-2)
	.dwpsn	file "..\Application\..\Drivers\..\F2838x_driverlib\driverlib\flash.h",line 1576,column 1,is_stmt,address ||GetSemaphore||,isa 0

	.dwfde $C$DW$CIE, ||GetSemaphore||

;***************************************************************
;* FNAME: GetSemaphore                  FR SIZE:   0           *
;*                                                             *
;* FUNCTION ENVIRONMENT                                        *
;*                                                             *
;* FUNCTION PROPERTIES                                         *
;*                            0 Parameter,  0 Auto,  0 SOE     *
;***************************************************************

||GetSemaphore||:
	.dwcfi	cfa_offset, -2
	.dwcfi	save_reg_to_mem, 26, 0
	.dwpsn	file "..\Application\..\Drivers\..\F2838x_driverlib\driverlib\flash.h",line 1577,column 5,is_stmt,isa 0
        MOVW      DP,#||IPC_Instance||+66 ; [CPU_ARAU] 
        MOVL      XAR4,@||IPC_Instance||+66 ; [CPU_ALU] |1577| 
        MOVL      ACC,*+XAR4[4]         ; [CPU_ALU] |1577| 
	.dwpsn	file "..\Application\..\Drivers\..\F2838x_driverlib\driverlib\flash.h",line 1578,column 1,is_stmt,isa 0
$C$DW$110	.dwtag  DW_TAG_TI_branch
	.dwattr $C$DW$110, DW_AT_low_pc(0x00)
	.dwattr $C$DW$110, DW_AT_TI_return

        LRETR     ; [CPU_ALU] 
        ; return occurs ; [] 
	.dwattr $C$DW$109, DW_AT_TI_end_file("..\Application\..\Drivers\..\F2838x_driverlib\driverlib\flash.h")
	.dwattr $C$DW$109, DW_AT_TI_end_line(0x62a)
	.dwattr $C$DW$109, DW_AT_TI_end_column(0x01)
	.dwendentry
	.dwendtag $C$DW$109

	.sect	".text:EnableRs485Tx_2"
	.clink
	.global	||EnableRs485Tx_2||

$C$DW$111	.dwtag  DW_TAG_subprogram
	.dwattr $C$DW$111, DW_AT_name("EnableRs485Tx_2")
	.dwattr $C$DW$111, DW_AT_low_pc(||EnableRs485Tx_2||)
	.dwattr $C$DW$111, DW_AT_high_pc(0x00)
	.dwattr $C$DW$111, DW_AT_linkage_name("EnableRs485Tx_2")
	.dwattr $C$DW$111, DW_AT_external
	.dwattr $C$DW$111, DW_AT_decl_file("..\Application\Dynamixel.h")
	.dwattr $C$DW$111, DW_AT_decl_line(0xe2)
	.dwattr $C$DW$111, DW_AT_decl_column(0x0d)
	.dwattr $C$DW$111, DW_AT_TI_max_frame_size(-2)
	.dwpsn	file "..\Application\Dynamixel.h",line 227,column 1,is_stmt,address ||EnableRs485Tx_2||,isa 0

	.dwfde $C$DW$CIE, ||EnableRs485Tx_2||

;***************************************************************
;* FNAME: EnableRs485Tx_2               FR SIZE:   0           *
;*                                                             *
;* FUNCTION ENVIRONMENT                                        *
;*                                                             *
;* FUNCTION PROPERTIES                                         *
;*                            0 Parameter,  0 Auto,  0 SOE     *
;***************************************************************

||EnableRs485Tx_2||:
	.dwcfi	cfa_offset, -2
	.dwcfi	save_reg_to_mem, 26, 0
	.dwpsn	file "..\Application\Dynamixel.h",line 228,column 5,is_stmt,isa 0
        MOVW      DP,#||GpioDataRegs||+34 ; [CPU_ARAU] 
        OR        @$BLOCKED(||GpioDataRegs||)+34,#0x8000 ; [CPU_ALU] |228| 
	.dwpsn	file "..\Application\Dynamixel.h",line 229,column 1,is_stmt,isa 0
$C$DW$112	.dwtag  DW_TAG_TI_branch
	.dwattr $C$DW$112, DW_AT_low_pc(0x00)
	.dwattr $C$DW$112, DW_AT_TI_return

        LRETR     ; [CPU_ALU] 
        ; return occurs ; [] 
	.dwattr $C$DW$111, DW_AT_TI_end_file("..\Application\Dynamixel.h")
	.dwattr $C$DW$111, DW_AT_TI_end_line(0xe5)
	.dwattr $C$DW$111, DW_AT_TI_end_column(0x01)
	.dwendentry
	.dwendtag $C$DW$111

	.sect	".text:DisableRs485Tx_2"
	.clink
	.global	||DisableRs485Tx_2||

$C$DW$113	.dwtag  DW_TAG_subprogram
	.dwattr $C$DW$113, DW_AT_name("DisableRs485Tx_2")
	.dwattr $C$DW$113, DW_AT_low_pc(||DisableRs485Tx_2||)
	.dwattr $C$DW$113, DW_AT_high_pc(0x00)
	.dwattr $C$DW$113, DW_AT_linkage_name("DisableRs485Tx_2")
	.dwattr $C$DW$113, DW_AT_external
	.dwattr $C$DW$113, DW_AT_decl_file("..\Application\Dynamixel.h")
	.dwattr $C$DW$113, DW_AT_decl_line(0xe6)
	.dwattr $C$DW$113, DW_AT_decl_column(0x0d)
	.dwattr $C$DW$113, DW_AT_TI_max_frame_size(-2)
	.dwpsn	file "..\Application\Dynamixel.h",line 231,column 1,is_stmt,address ||DisableRs485Tx_2||,isa 0

	.dwfde $C$DW$CIE, ||DisableRs485Tx_2||

;***************************************************************
;* FNAME: DisableRs485Tx_2              FR SIZE:   0           *
;*                                                             *
;* FUNCTION ENVIRONMENT                                        *
;*                                                             *
;* FUNCTION PROPERTIES                                         *
;*                            0 Parameter,  0 Auto,  0 SOE     *
;***************************************************************

||DisableRs485Tx_2||:
	.dwcfi	cfa_offset, -2
	.dwcfi	save_reg_to_mem, 26, 0
	.dwpsn	file "..\Application\Dynamixel.h",line 232,column 5,is_stmt,isa 0
        MOVW      DP,#||GpioDataRegs||+36 ; [CPU_ARAU] 
        OR        @$BLOCKED(||GpioDataRegs||)+36,#0x8000 ; [CPU_ALU] |232| 
	.dwpsn	file "..\Application\Dynamixel.h",line 233,column 1,is_stmt,isa 0
$C$DW$114	.dwtag  DW_TAG_TI_branch
	.dwattr $C$DW$114, DW_AT_low_pc(0x00)
	.dwattr $C$DW$114, DW_AT_TI_return

        LRETR     ; [CPU_ALU] 
        ; return occurs ; [] 
	.dwattr $C$DW$113, DW_AT_TI_end_file("..\Application\Dynamixel.h")
	.dwattr $C$DW$113, DW_AT_TI_end_line(0xe9)
	.dwattr $C$DW$113, DW_AT_TI_end_column(0x01)
	.dwendentry
	.dwendtag $C$DW$113

	.sect	".text:EnableRs485Tx_1"
	.clink
	.global	||EnableRs485Tx_1||

$C$DW$115	.dwtag  DW_TAG_subprogram
	.dwattr $C$DW$115, DW_AT_name("EnableRs485Tx_1")
	.dwattr $C$DW$115, DW_AT_low_pc(||EnableRs485Tx_1||)
	.dwattr $C$DW$115, DW_AT_high_pc(0x00)
	.dwattr $C$DW$115, DW_AT_linkage_name("EnableRs485Tx_1")
	.dwattr $C$DW$115, DW_AT_external
	.dwattr $C$DW$115, DW_AT_decl_file("..\Application\Dynamixel.h")
	.dwattr $C$DW$115, DW_AT_decl_line(0xeb)
	.dwattr $C$DW$115, DW_AT_decl_column(0x0d)
	.dwattr $C$DW$115, DW_AT_TI_max_frame_size(-2)
	.dwpsn	file "..\Application\Dynamixel.h",line 236,column 1,is_stmt,address ||EnableRs485Tx_1||,isa 0

	.dwfde $C$DW$CIE, ||EnableRs485Tx_1||

;***************************************************************
;* FNAME: EnableRs485Tx_1               FR SIZE:   0           *
;*                                                             *
;* FUNCTION ENVIRONMENT                                        *
;*                                                             *
;* FUNCTION PROPERTIES                                         *
;*                            0 Parameter,  0 Auto,  0 SOE     *
;***************************************************************

||EnableRs485Tx_1||:
	.dwcfi	cfa_offset, -2
	.dwcfi	save_reg_to_mem, 26, 0
	.dwpsn	file "..\Application\Dynamixel.h",line 237,column 5,is_stmt,isa 0
        MOVW      DP,#||GpioDataRegs||+35 ; [CPU_ARAU] 
        OR        @$BLOCKED(||GpioDataRegs||)+35,#0x0001 ; [CPU_ALU] |237| 
	.dwpsn	file "..\Application\Dynamixel.h",line 238,column 1,is_stmt,isa 0
$C$DW$116	.dwtag  DW_TAG_TI_branch
	.dwattr $C$DW$116, DW_AT_low_pc(0x00)
	.dwattr $C$DW$116, DW_AT_TI_return

        LRETR     ; [CPU_ALU] 
        ; return occurs ; [] 
	.dwattr $C$DW$115, DW_AT_TI_end_file("..\Application\Dynamixel.h")
	.dwattr $C$DW$115, DW_AT_TI_end_line(0xee)
	.dwattr $C$DW$115, DW_AT_TI_end_column(0x01)
	.dwendentry
	.dwendtag $C$DW$115

	.sect	".text:DisableRs485Tx_1"
	.clink
	.global	||DisableRs485Tx_1||

$C$DW$117	.dwtag  DW_TAG_subprogram
	.dwattr $C$DW$117, DW_AT_name("DisableRs485Tx_1")
	.dwattr $C$DW$117, DW_AT_low_pc(||DisableRs485Tx_1||)
	.dwattr $C$DW$117, DW_AT_high_pc(0x00)
	.dwattr $C$DW$117, DW_AT_linkage_name("DisableRs485Tx_1")
	.dwattr $C$DW$117, DW_AT_external
	.dwattr $C$DW$117, DW_AT_decl_file("..\Application\Dynamixel.h")
	.dwattr $C$DW$117, DW_AT_decl_line(0xef)
	.dwattr $C$DW$117, DW_AT_decl_column(0x0d)
	.dwattr $C$DW$117, DW_AT_TI_max_frame_size(-2)
	.dwpsn	file "..\Application\Dynamixel.h",line 240,column 1,is_stmt,address ||DisableRs485Tx_1||,isa 0

	.dwfde $C$DW$CIE, ||DisableRs485Tx_1||

;***************************************************************
;* FNAME: DisableRs485Tx_1              FR SIZE:   0           *
;*                                                             *
;* FUNCTION ENVIRONMENT                                        *
;*                                                             *
;* FUNCTION PROPERTIES                                         *
;*                            0 Parameter,  0 Auto,  0 SOE     *
;***************************************************************

||DisableRs485Tx_1||:
	.dwcfi	cfa_offset, -2
	.dwcfi	save_reg_to_mem, 26, 0
	.dwpsn	file "..\Application\Dynamixel.h",line 241,column 5,is_stmt,isa 0
        MOVW      DP,#||GpioDataRegs||+37 ; [CPU_ARAU] 
        OR        @$BLOCKED(||GpioDataRegs||)+37,#0x0001 ; [CPU_ALU] |241| 
	.dwpsn	file "..\Application\Dynamixel.h",line 242,column 1,is_stmt,isa 0
$C$DW$118	.dwtag  DW_TAG_TI_branch
	.dwattr $C$DW$118, DW_AT_low_pc(0x00)
	.dwattr $C$DW$118, DW_AT_TI_return

        LRETR     ; [CPU_ALU] 
        ; return occurs ; [] 
	.dwattr $C$DW$117, DW_AT_TI_end_file("..\Application\Dynamixel.h")
	.dwattr $C$DW$117, DW_AT_TI_end_line(0xf2)
	.dwattr $C$DW$117, DW_AT_TI_end_column(0x01)
	.dwendentry
	.dwendtag $C$DW$117

	.sect	".text:IsSpeedCmdZero"
	.clink
	.global	||IsSpeedCmdZero||

$C$DW$119	.dwtag  DW_TAG_subprogram
	.dwattr $C$DW$119, DW_AT_name("IsSpeedCmdZero")
	.dwattr $C$DW$119, DW_AT_low_pc(||IsSpeedCmdZero||)
	.dwattr $C$DW$119, DW_AT_high_pc(0x00)
	.dwattr $C$DW$119, DW_AT_linkage_name("IsSpeedCmdZero")
	.dwattr $C$DW$119, DW_AT_external
	.dwattr $C$DW$119, DW_AT_type(*$C$DW$T$8)
	.dwattr $C$DW$119, DW_AT_decl_file("..\Application\..\..\BHAxes\BhAxes.h")
	.dwattr $C$DW$119, DW_AT_decl_line(0x15e)
	.dwattr $C$DW$119, DW_AT_decl_column(0x07)
	.dwattr $C$DW$119, DW_AT_TI_max_frame_size(-6)
	.dwpsn	file "..\Application\..\..\BHAxes\BhAxes.h",line 351,column 1,is_stmt,address ||IsSpeedCmdZero||,isa 0

	.dwfde $C$DW$CIE, ||IsSpeedCmdZero||
$C$DW$120	.dwtag  DW_TAG_formal_parameter
	.dwattr $C$DW$120, DW_AT_name("pAxis")
	.dwattr $C$DW$120, DW_AT_type(*$C$DW$T$220)
	.dwattr $C$DW$120, DW_AT_location[DW_OP_reg12]


;***************************************************************
;* FNAME: IsSpeedCmdZero                FR SIZE:   4           *
;*                                                             *
;* FUNCTION ENVIRONMENT                                        *
;*                                                             *
;* FUNCTION PROPERTIES                                         *
;*                            2 Parameter,  2 Auto,  0 SOE     *
;***************************************************************

||IsSpeedCmdZero||:
	.dwcfi	cfa_offset, -2
	.dwcfi	save_reg_to_mem, 26, 0
        ADDB      SP,#4                 ; [CPU_ARAU] 
	.dwcfi	cfa_offset, -6
$C$DW$121	.dwtag  DW_TAG_variable
	.dwattr $C$DW$121, DW_AT_name("pAxis")
	.dwattr $C$DW$121, DW_AT_type(*$C$DW$T$220)
	.dwattr $C$DW$121, DW_AT_location[DW_OP_breg20 -4]

        MOVL      *-SP[4],XAR4          ; [CPU_ALU] |351| 
	.dwpsn	file "..\Application\..\..\BHAxes\BhAxes.h",line 352,column 5,is_stmt,isa 0
        MOVB      ACC,#90               ; [CPU_ALU] |352| 
        ADDL      ACC,*-SP[4]           ; [CPU_ALU] |352| 
        MOVL      XAR4,ACC              ; [CPU_ALU] |352| 
        MOV32     R0H,*+XAR4[0]         ; [CPU_FPU] |352| 
        CMPF32    R0H,#0                ; [CPU_FPU] |352| 
        MOVST0    ZF, NF                ; [CPU_FPU] |352| 
        B         ||$C$L1||,EQ          ; [CPU_ALU] |352| 
        ; branchcc occurs ; [] |352| 
        MOVB      AL,#0                 ; [CPU_ALU] |352| 
        B         ||$C$L2||,UNC         ; [CPU_ALU] |352| 
        ; branch occurs ; [] |352| 
||$C$L1||:    
        MOVB      AL,#1                 ; [CPU_ALU] |352| 
||$C$L2||:    
	.dwpsn	file "..\Application\..\..\BHAxes\BhAxes.h",line 353,column 1,is_stmt,isa 0
        SUBB      SP,#4                 ; [CPU_ARAU] 
	.dwcfi	cfa_offset, -2
$C$DW$122	.dwtag  DW_TAG_TI_branch
	.dwattr $C$DW$122, DW_AT_low_pc(0x00)
	.dwattr $C$DW$122, DW_AT_TI_return

        LRETR     ; [CPU_ALU] 
        ; return occurs ; [] 
	.dwattr $C$DW$119, DW_AT_TI_end_file("..\Application\..\..\BHAxes\BhAxes.h")
	.dwattr $C$DW$119, DW_AT_TI_end_line(0x161)
	.dwattr $C$DW$119, DW_AT_TI_end_column(0x01)
	.dwendentry
	.dwendtag $C$DW$119

	.sect	".text:ResetAxisFaults"
	.clink
	.global	||ResetAxisFaults||

$C$DW$123	.dwtag  DW_TAG_subprogram
	.dwattr $C$DW$123, DW_AT_name("ResetAxisFaults")
	.dwattr $C$DW$123, DW_AT_low_pc(||ResetAxisFaults||)
	.dwattr $C$DW$123, DW_AT_high_pc(0x00)
	.dwattr $C$DW$123, DW_AT_linkage_name("ResetAxisFaults")
	.dwattr $C$DW$123, DW_AT_external
	.dwattr $C$DW$123, DW_AT_decl_file("..\Application\..\..\BHAxes\BhAxes.h")
	.dwattr $C$DW$123, DW_AT_decl_line(0x164)
	.dwattr $C$DW$123, DW_AT_decl_column(0x06)
	.dwattr $C$DW$123, DW_AT_TI_max_frame_size(-4)
	.dwpsn	file "..\Application\..\..\BHAxes\BhAxes.h",line 357,column 1,is_stmt,address ||ResetAxisFaults||,isa 0

	.dwfde $C$DW$CIE, ||ResetAxisFaults||
$C$DW$124	.dwtag  DW_TAG_formal_parameter
	.dwattr $C$DW$124, DW_AT_name("pAxis")
	.dwattr $C$DW$124, DW_AT_type(*$C$DW$T$220)
	.dwattr $C$DW$124, DW_AT_location[DW_OP_reg12]


;***************************************************************
;* FNAME: ResetAxisFaults               FR SIZE:   2           *
;*                                                             *
;* FUNCTION ENVIRONMENT                                        *
;*                                                             *
;* FUNCTION PROPERTIES                                         *
;*                            0 Parameter,  2 Auto,  0 SOE     *
;***************************************************************

||ResetAxisFaults||:
	.dwcfi	cfa_offset, -2
	.dwcfi	save_reg_to_mem, 26, 0
        ADDB      SP,#2                 ; [CPU_ARAU] 
	.dwcfi	cfa_offset, -4
$C$DW$125	.dwtag  DW_TAG_variable
	.dwattr $C$DW$125, DW_AT_name("pAxis")
	.dwattr $C$DW$125, DW_AT_type(*$C$DW$T$220)
	.dwattr $C$DW$125, DW_AT_location[DW_OP_breg20 -2]

        MOVL      *-SP[2],XAR4          ; [CPU_ALU] |357| 
	.dwpsn	file "..\Application\..\..\BHAxes\BhAxes.h",line 358,column 5,is_stmt,isa 0
        MOVB      ACC,#82               ; [CPU_ALU] |358| 
        ADDL      ACC,*-SP[2]           ; [CPU_ALU] |358| 
        MOVL      XAR4,ACC              ; [CPU_ALU] |358| 
        OR        *+XAR4[0],#0x0002     ; [CPU_ALU] |358| 
	.dwpsn	file "..\Application\..\..\BHAxes\BhAxes.h",line 359,column 1,is_stmt,isa 0
        SUBB      SP,#2                 ; [CPU_ARAU] 
	.dwcfi	cfa_offset, -2
$C$DW$126	.dwtag  DW_TAG_TI_branch
	.dwattr $C$DW$126, DW_AT_low_pc(0x00)
	.dwattr $C$DW$126, DW_AT_TI_return

        LRETR     ; [CPU_ALU] 
        ; return occurs ; [] 
	.dwattr $C$DW$123, DW_AT_TI_end_file("..\Application\..\..\BHAxes\BhAxes.h")
	.dwattr $C$DW$123, DW_AT_TI_end_line(0x167)
	.dwattr $C$DW$123, DW_AT_TI_end_column(0x01)
	.dwendentry
	.dwendtag $C$DW$123

	.sect	".text:SetPosCmd2PosFeedback"
	.clink
	.global	||SetPosCmd2PosFeedback||

$C$DW$127	.dwtag  DW_TAG_subprogram
	.dwattr $C$DW$127, DW_AT_name("SetPosCmd2PosFeedback")
	.dwattr $C$DW$127, DW_AT_low_pc(||SetPosCmd2PosFeedback||)
	.dwattr $C$DW$127, DW_AT_high_pc(0x00)
	.dwattr $C$DW$127, DW_AT_linkage_name("SetPosCmd2PosFeedback")
	.dwattr $C$DW$127, DW_AT_external
	.dwattr $C$DW$127, DW_AT_decl_file("..\Application\..\..\BHAxes\BhAxes.h")
	.dwattr $C$DW$127, DW_AT_decl_line(0x16e)
	.dwattr $C$DW$127, DW_AT_decl_column(0x06)
	.dwattr $C$DW$127, DW_AT_TI_max_frame_size(-4)
	.dwpsn	file "..\Application\..\..\BHAxes\BhAxes.h",line 367,column 1,is_stmt,address ||SetPosCmd2PosFeedback||,isa 0

	.dwfde $C$DW$CIE, ||SetPosCmd2PosFeedback||
$C$DW$128	.dwtag  DW_TAG_formal_parameter
	.dwattr $C$DW$128, DW_AT_name("pAxis")
	.dwattr $C$DW$128, DW_AT_type(*$C$DW$T$220)
	.dwattr $C$DW$128, DW_AT_location[DW_OP_reg12]


;***************************************************************
;* FNAME: SetPosCmd2PosFeedback         FR SIZE:   2           *
;*                                                             *
;* FUNCTION ENVIRONMENT                                        *
;*                                                             *
;* FUNCTION PROPERTIES                                         *
;*                            0 Parameter,  2 Auto,  0 SOE     *
;***************************************************************

||SetPosCmd2PosFeedback||:
	.dwcfi	cfa_offset, -2
	.dwcfi	save_reg_to_mem, 26, 0
        ADDB      SP,#2                 ; [CPU_ARAU] 
	.dwcfi	cfa_offset, -4
$C$DW$129	.dwtag  DW_TAG_variable
	.dwattr $C$DW$129, DW_AT_name("pAxis")
	.dwattr $C$DW$129, DW_AT_type(*$C$DW$T$220)
	.dwattr $C$DW$129, DW_AT_location[DW_OP_breg20 -2]

        MOVL      *-SP[2],XAR4          ; [CPU_ALU] |367| 
	.dwpsn	file "..\Application\..\..\BHAxes\BhAxes.h",line 368,column 5,is_stmt,isa 0
        MOVB      ACC,#86               ; [CPU_ALU] |368| 
        ADDL      ACC,*-SP[2]           ; [CPU_ALU] |368| 
        MOVL      XAR4,ACC              ; [CPU_ALU] |368| 
        MOVL      XAR6,*+XAR4[0]        ; [CPU_ALU] |368| 
        MOVB      ACC,#92               ; [CPU_ALU] |368| 
        ADDL      ACC,*-SP[2]           ; [CPU_ALU] |368| 
        MOVL      XAR4,ACC              ; [CPU_ALU] |368| 
        MOVL      *+XAR4[0],XAR6        ; [CPU_ALU] |368| 
	.dwpsn	file "..\Application\..\..\BHAxes\BhAxes.h",line 369,column 1,is_stmt,isa 0
        SUBB      SP,#2                 ; [CPU_ARAU] 
	.dwcfi	cfa_offset, -2
$C$DW$130	.dwtag  DW_TAG_TI_branch
	.dwattr $C$DW$130, DW_AT_low_pc(0x00)
	.dwattr $C$DW$130, DW_AT_TI_return

        LRETR     ; [CPU_ALU] 
        ; return occurs ; [] 
	.dwattr $C$DW$127, DW_AT_TI_end_file("..\Application\..\..\BHAxes\BhAxes.h")
	.dwattr $C$DW$127, DW_AT_TI_end_line(0x171)
	.dwattr $C$DW$127, DW_AT_TI_end_column(0x01)
	.dwendentry
	.dwendtag $C$DW$127

	.sect	".text:SetWheelSpeedCmd"
	.clink
	.global	||SetWheelSpeedCmd||

$C$DW$131	.dwtag  DW_TAG_subprogram
	.dwattr $C$DW$131, DW_AT_name("SetWheelSpeedCmd")
	.dwattr $C$DW$131, DW_AT_low_pc(||SetWheelSpeedCmd||)
	.dwattr $C$DW$131, DW_AT_high_pc(0x00)
	.dwattr $C$DW$131, DW_AT_linkage_name("SetWheelSpeedCmd")
	.dwattr $C$DW$131, DW_AT_external
	.dwattr $C$DW$131, DW_AT_decl_file("..\Application\..\..\BHAxes\BhAxes.h")
	.dwattr $C$DW$131, DW_AT_decl_line(0x177)
	.dwattr $C$DW$131, DW_AT_decl_column(0x06)
	.dwattr $C$DW$131, DW_AT_TI_max_frame_size(-8)
	.dwpsn	file "..\Application\..\..\BHAxes\BhAxes.h",line 376,column 1,is_stmt,address ||SetWheelSpeedCmd||,isa 0

	.dwfde $C$DW$CIE, ||SetWheelSpeedCmd||
$C$DW$132	.dwtag  DW_TAG_formal_parameter
	.dwattr $C$DW$132, DW_AT_name("pAxis")
	.dwattr $C$DW$132, DW_AT_type(*$C$DW$T$220)
	.dwattr $C$DW$132, DW_AT_location[DW_OP_reg12]

$C$DW$133	.dwtag  DW_TAG_formal_parameter
	.dwattr $C$DW$133, DW_AT_name("v")
	.dwattr $C$DW$133, DW_AT_type(*$C$DW$T$16)
	.dwattr $C$DW$133, DW_AT_location[DW_OP_regx 0x2b]

$C$DW$134	.dwtag  DW_TAG_formal_parameter
	.dwattr $C$DW$134, DW_AT_name("DriveFac")
	.dwattr $C$DW$134, DW_AT_type(*$C$DW$T$16)
	.dwattr $C$DW$134, DW_AT_location[DW_OP_regx 0x2f]


;***************************************************************
;* FNAME: SetWheelSpeedCmd              FR SIZE:   6           *
;*                                                             *
;* FUNCTION ENVIRONMENT                                        *
;*                                                             *
;* FUNCTION PROPERTIES                                         *
;*                            0 Parameter,  6 Auto,  0 SOE     *
;***************************************************************

||SetWheelSpeedCmd||:
	.dwcfi	cfa_offset, -2
	.dwcfi	save_reg_to_mem, 26, 0
        ADDB      SP,#6                 ; [CPU_ARAU] 
	.dwcfi	cfa_offset, -8
$C$DW$135	.dwtag  DW_TAG_variable
	.dwattr $C$DW$135, DW_AT_name("pAxis")
	.dwattr $C$DW$135, DW_AT_type(*$C$DW$T$220)
	.dwattr $C$DW$135, DW_AT_location[DW_OP_breg20 -2]

$C$DW$136	.dwtag  DW_TAG_variable
	.dwattr $C$DW$136, DW_AT_name("v")
	.dwattr $C$DW$136, DW_AT_type(*$C$DW$T$16)
	.dwattr $C$DW$136, DW_AT_location[DW_OP_breg20 -4]

$C$DW$137	.dwtag  DW_TAG_variable
	.dwattr $C$DW$137, DW_AT_name("DriveFac")
	.dwattr $C$DW$137, DW_AT_type(*$C$DW$T$16)
	.dwattr $C$DW$137, DW_AT_location[DW_OP_breg20 -6]

        MOV32     *-SP[6],R1H           ; [CPU_FPU] |376| 
        MOV32     *-SP[4],R0H           ; [CPU_FPU] |376| 
        MOVL      *-SP[2],XAR4          ; [CPU_ALU] |376| 
	.dwpsn	file "..\Application\..\..\BHAxes\BhAxes.h",line 377,column 5,is_stmt,isa 0
        MOVB      ACC,#90               ; [CPU_ALU] |377| 
        MPYF32    R0H,R1H,R0H           ; [CPU_FPU] |377| 
        ADDL      ACC,*-SP[2]           ; [CPU_ALU] |377| 
        MOVL      XAR4,ACC              ; [CPU_ALU] |377| 
        MOV32     *+XAR4[0],R0H         ; [CPU_FPU] |377| 
	.dwpsn	file "..\Application\..\..\BHAxes\BhAxes.h",line 378,column 1,is_stmt,isa 0
        SUBB      SP,#6                 ; [CPU_ARAU] 
	.dwcfi	cfa_offset, -2
$C$DW$138	.dwtag  DW_TAG_TI_branch
	.dwattr $C$DW$138, DW_AT_low_pc(0x00)
	.dwattr $C$DW$138, DW_AT_TI_return

        LRETR     ; [CPU_ALU] 
        ; return occurs ; [] 
	.dwattr $C$DW$131, DW_AT_TI_end_file("..\Application\..\..\BHAxes\BhAxes.h")
	.dwattr $C$DW$131, DW_AT_TI_end_line(0x17a)
	.dwattr $C$DW$131, DW_AT_TI_end_column(0x01)
	.dwendentry
	.dwendtag $C$DW$131

	.sect	".text:CanAxisIsPosition"
	.clink
	.global	||CanAxisIsPosition||

$C$DW$139	.dwtag  DW_TAG_subprogram
	.dwattr $C$DW$139, DW_AT_name("CanAxisIsPosition")
	.dwattr $C$DW$139, DW_AT_low_pc(||CanAxisIsPosition||)
	.dwattr $C$DW$139, DW_AT_high_pc(0x00)
	.dwattr $C$DW$139, DW_AT_linkage_name("CanAxisIsPosition")
	.dwattr $C$DW$139, DW_AT_external
	.dwattr $C$DW$139, DW_AT_type(*$C$DW$T$8)
	.dwattr $C$DW$139, DW_AT_decl_file("..\Application\..\..\BHAxes\BhAxes.h")
	.dwattr $C$DW$139, DW_AT_decl_line(0x17e)
	.dwattr $C$DW$139, DW_AT_decl_column(0x01)
	.dwattr $C$DW$139, DW_AT_TI_max_frame_size(-4)
	.dwpsn	file "..\Application\..\..\BHAxes\BhAxes.h",line 383,column 1,is_stmt,address ||CanAxisIsPosition||,isa 0

	.dwfde $C$DW$CIE, ||CanAxisIsPosition||
$C$DW$140	.dwtag  DW_TAG_formal_parameter
	.dwattr $C$DW$140, DW_AT_name("pAxis")
	.dwattr $C$DW$140, DW_AT_type(*$C$DW$T$220)
	.dwattr $C$DW$140, DW_AT_location[DW_OP_reg12]


;***************************************************************
;* FNAME: CanAxisIsPosition             FR SIZE:   2           *
;*                                                             *
;* FUNCTION ENVIRONMENT                                        *
;*                                                             *
;* FUNCTION PROPERTIES                                         *
;*                            0 Parameter,  2 Auto,  0 SOE     *
;***************************************************************

||CanAxisIsPosition||:
	.dwcfi	cfa_offset, -2
	.dwcfi	save_reg_to_mem, 26, 0
        ADDB      SP,#2                 ; [CPU_ARAU] 
	.dwcfi	cfa_offset, -4
$C$DW$141	.dwtag  DW_TAG_variable
	.dwattr $C$DW$141, DW_AT_name("pAxis")
	.dwattr $C$DW$141, DW_AT_type(*$C$DW$T$220)
	.dwattr $C$DW$141, DW_AT_location[DW_OP_breg20 -2]

        MOVL      *-SP[2],XAR4          ; [CPU_ALU] |383| 
	.dwpsn	file "..\Application\..\..\BHAxes\BhAxes.h",line 384,column 5,is_stmt,isa 0
        MOVB      ACC,#158              ; [CPU_ALU] |384| 
        ADDL      ACC,*-SP[2]           ; [CPU_ALU] |384| 
        MOVL      XAR4,ACC              ; [CPU_ALU] |384| 
        MOVB      AL,#0                 ; [CPU_ALU] |384| 
        MOV       AH,*+XAR4[0]          ; [CPU_ALU] |384| 
        CMPB      AH,#4                 ; [CPU_ALU] |384| 
        B         ||$C$L3||,LO          ; [CPU_ALU] |384| 
        ; branchcc occurs ; [] |384| 
        MOVB      AL,#1                 ; [CPU_ALU] |384| 
||$C$L3||:    
	.dwpsn	file "..\Application\..\..\BHAxes\BhAxes.h",line 385,column 1,is_stmt,isa 0
        SUBB      SP,#2                 ; [CPU_ARAU] 
	.dwcfi	cfa_offset, -2
$C$DW$142	.dwtag  DW_TAG_TI_branch
	.dwattr $C$DW$142, DW_AT_low_pc(0x00)
	.dwattr $C$DW$142, DW_AT_TI_return

        LRETR     ; [CPU_ALU] 
        ; return occurs ; [] 
	.dwattr $C$DW$139, DW_AT_TI_end_file("..\Application\..\..\BHAxes\BhAxes.h")
	.dwattr $C$DW$139, DW_AT_TI_end_line(0x181)
	.dwattr $C$DW$139, DW_AT_TI_end_column(0x01)
	.dwendentry
	.dwendtag $C$DW$139

	.sect	".text:IsMotorOn"
	.clink
	.global	||IsMotorOn||

$C$DW$143	.dwtag  DW_TAG_subprogram
	.dwattr $C$DW$143, DW_AT_name("IsMotorOn")
	.dwattr $C$DW$143, DW_AT_low_pc(||IsMotorOn||)
	.dwattr $C$DW$143, DW_AT_high_pc(0x00)
	.dwattr $C$DW$143, DW_AT_linkage_name("IsMotorOn")
	.dwattr $C$DW$143, DW_AT_external
	.dwattr $C$DW$143, DW_AT_type(*$C$DW$T$9)
	.dwattr $C$DW$143, DW_AT_decl_file("..\Application\..\..\BHAxes\BhAxes.h")
	.dwattr $C$DW$143, DW_AT_decl_line(0x185)
	.dwattr $C$DW$143, DW_AT_decl_column(0x10)
	.dwattr $C$DW$143, DW_AT_TI_max_frame_size(-4)
	.dwpsn	file "..\Application\..\..\BHAxes\BhAxes.h",line 390,column 1,is_stmt,address ||IsMotorOn||,isa 0

	.dwfde $C$DW$CIE, ||IsMotorOn||
$C$DW$144	.dwtag  DW_TAG_formal_parameter
	.dwattr $C$DW$144, DW_AT_name("pAxis")
	.dwattr $C$DW$144, DW_AT_type(*$C$DW$T$220)
	.dwattr $C$DW$144, DW_AT_location[DW_OP_reg12]


;***************************************************************
;* FNAME: IsMotorOn                     FR SIZE:   2           *
;*                                                             *
;* FUNCTION ENVIRONMENT                                        *
;*                                                             *
;* FUNCTION PROPERTIES                                         *
;*                            0 Parameter,  2 Auto,  0 SOE     *
;***************************************************************

||IsMotorOn||:
	.dwcfi	cfa_offset, -2
	.dwcfi	save_reg_to_mem, 26, 0
        ADDB      SP,#2                 ; [CPU_ARAU] 
	.dwcfi	cfa_offset, -4
$C$DW$145	.dwtag  DW_TAG_variable
	.dwattr $C$DW$145, DW_AT_name("pAxis")
	.dwattr $C$DW$145, DW_AT_type(*$C$DW$T$220)
	.dwattr $C$DW$145, DW_AT_location[DW_OP_breg20 -2]

        MOVL      *-SP[2],XAR4          ; [CPU_ALU] |390| 
	.dwpsn	file "..\Application\..\..\BHAxes\BhAxes.h",line 391,column 5,is_stmt,isa 0
        MOVB      ACC,#142              ; [CPU_ALU] |391| 
        ADDL      ACC,*-SP[2]           ; [CPU_ALU] |391| 
        MOVL      XAR4,ACC              ; [CPU_ALU] |391| 
        MOV       AL,*+XAR4[0]          ; [CPU_ALU] |391| 
        MOVL      XAR4,*-SP[2]          ; [CPU_ALU] |391| 
        ANDB      AL,#0x01              ; [CPU_ALU] |391| 
        MOV       T,AL                  ; [CPU_ALU] |391| 
        MPY       ACC,T,*+XAR4[4]       ; [CPU_ALU] |391| 
	.dwpsn	file "..\Application\..\..\BHAxes\BhAxes.h",line 392,column 1,is_stmt,isa 0
        SUBB      SP,#2                 ; [CPU_ARAU] 
	.dwcfi	cfa_offset, -2
$C$DW$146	.dwtag  DW_TAG_TI_branch
	.dwattr $C$DW$146, DW_AT_low_pc(0x00)
	.dwattr $C$DW$146, DW_AT_TI_return

        LRETR     ; [CPU_ALU] 
        ; return occurs ; [] 
	.dwattr $C$DW$143, DW_AT_TI_end_file("..\Application\..\..\BHAxes\BhAxes.h")
	.dwattr $C$DW$143, DW_AT_TI_end_line(0x188)
	.dwattr $C$DW$143, DW_AT_TI_end_column(0x01)
	.dwendentry
	.dwendtag $C$DW$143

	.sect	".text:SetCanAxisPosTarget"
	.clink
	.global	||SetCanAxisPosTarget||

$C$DW$147	.dwtag  DW_TAG_subprogram
	.dwattr $C$DW$147, DW_AT_name("SetCanAxisPosTarget")
	.dwattr $C$DW$147, DW_AT_low_pc(||SetCanAxisPosTarget||)
	.dwattr $C$DW$147, DW_AT_high_pc(0x00)
	.dwattr $C$DW$147, DW_AT_linkage_name("SetCanAxisPosTarget")
	.dwattr $C$DW$147, DW_AT_external
	.dwattr $C$DW$147, DW_AT_decl_file("..\Application\..\..\BHAxes\BhAxes.h")
	.dwattr $C$DW$147, DW_AT_decl_line(0x18b)
	.dwattr $C$DW$147, DW_AT_decl_column(0x06)
	.dwattr $C$DW$147, DW_AT_TI_max_frame_size(-6)
	.dwpsn	file "..\Application\..\..\BHAxes\BhAxes.h",line 396,column 1,is_stmt,address ||SetCanAxisPosTarget||,isa 0

	.dwfde $C$DW$CIE, ||SetCanAxisPosTarget||
$C$DW$148	.dwtag  DW_TAG_formal_parameter
	.dwattr $C$DW$148, DW_AT_name("pAxis")
	.dwattr $C$DW$148, DW_AT_type(*$C$DW$T$220)
	.dwattr $C$DW$148, DW_AT_location[DW_OP_reg12]

$C$DW$149	.dwtag  DW_TAG_formal_parameter
	.dwattr $C$DW$149, DW_AT_name("value")
	.dwattr $C$DW$149, DW_AT_type(*$C$DW$T$16)
	.dwattr $C$DW$149, DW_AT_location[DW_OP_regx 0x2b]


;***************************************************************
;* FNAME: SetCanAxisPosTarget           FR SIZE:   4           *
;*                                                             *
;* FUNCTION ENVIRONMENT                                        *
;*                                                             *
;* FUNCTION PROPERTIES                                         *
;*                            0 Parameter,  4 Auto,  0 SOE     *
;***************************************************************

||SetCanAxisPosTarget||:
	.dwcfi	cfa_offset, -2
	.dwcfi	save_reg_to_mem, 26, 0
        ADDB      SP,#4                 ; [CPU_ARAU] 
	.dwcfi	cfa_offset, -6
$C$DW$150	.dwtag  DW_TAG_variable
	.dwattr $C$DW$150, DW_AT_name("pAxis")
	.dwattr $C$DW$150, DW_AT_type(*$C$DW$T$220)
	.dwattr $C$DW$150, DW_AT_location[DW_OP_breg20 -2]

$C$DW$151	.dwtag  DW_TAG_variable
	.dwattr $C$DW$151, DW_AT_name("value")
	.dwattr $C$DW$151, DW_AT_type(*$C$DW$T$16)
	.dwattr $C$DW$151, DW_AT_location[DW_OP_breg20 -4]

        MOV32     *-SP[4],R0H           ; [CPU_FPU] |396| 
        MOVL      *-SP[2],XAR4          ; [CPU_ALU] |396| 
	.dwpsn	file "..\Application\..\..\BHAxes\BhAxes.h",line 397,column 5,is_stmt,isa 0
        MOVL      XAR6,*-SP[4]          ; [CPU_ALU] |397| 
        MOVB      ACC,#92               ; [CPU_ALU] |397| 
        ADDL      ACC,*-SP[2]           ; [CPU_ALU] |397| 
        MOVL      XAR4,ACC              ; [CPU_ALU] |397| 
        MOVL      *+XAR4[0],XAR6        ; [CPU_ALU] |397| 
	.dwpsn	file "..\Application\..\..\BHAxes\BhAxes.h",line 398,column 1,is_stmt,isa 0
        SUBB      SP,#4                 ; [CPU_ARAU] 
	.dwcfi	cfa_offset, -2
$C$DW$152	.dwtag  DW_TAG_TI_branch
	.dwattr $C$DW$152, DW_AT_low_pc(0x00)
	.dwattr $C$DW$152, DW_AT_TI_return

        LRETR     ; [CPU_ALU] 
        ; return occurs ; [] 
	.dwattr $C$DW$147, DW_AT_TI_end_file("..\Application\..\..\BHAxes\BhAxes.h")
	.dwattr $C$DW$147, DW_AT_TI_end_line(0x18e)
	.dwattr $C$DW$147, DW_AT_TI_end_column(0x01)
	.dwendentry
	.dwendtag $C$DW$147

	.sect	".text:GetCanAxisPosTarget"
	.clink
	.global	||GetCanAxisPosTarget||

$C$DW$153	.dwtag  DW_TAG_subprogram
	.dwattr $C$DW$153, DW_AT_name("GetCanAxisPosTarget")
	.dwattr $C$DW$153, DW_AT_low_pc(||GetCanAxisPosTarget||)
	.dwattr $C$DW$153, DW_AT_high_pc(0x00)
	.dwattr $C$DW$153, DW_AT_linkage_name("GetCanAxisPosTarget")
	.dwattr $C$DW$153, DW_AT_external
	.dwattr $C$DW$153, DW_AT_type(*$C$DW$T$16)
	.dwattr $C$DW$153, DW_AT_decl_file("..\Application\..\..\BHAxes\BhAxes.h")
	.dwattr $C$DW$153, DW_AT_decl_line(0x191)
	.dwattr $C$DW$153, DW_AT_decl_column(0x07)
	.dwattr $C$DW$153, DW_AT_TI_max_frame_size(-4)
	.dwpsn	file "..\Application\..\..\BHAxes\BhAxes.h",line 402,column 1,is_stmt,address ||GetCanAxisPosTarget||,isa 0

	.dwfde $C$DW$CIE, ||GetCanAxisPosTarget||
$C$DW$154	.dwtag  DW_TAG_formal_parameter
	.dwattr $C$DW$154, DW_AT_name("pAxis")
	.dwattr $C$DW$154, DW_AT_type(*$C$DW$T$220)
	.dwattr $C$DW$154, DW_AT_location[DW_OP_reg12]


;***************************************************************
;* FNAME: GetCanAxisPosTarget           FR SIZE:   2           *
;*                                                             *
;* FUNCTION ENVIRONMENT                                        *
;*                                                             *
;* FUNCTION PROPERTIES                                         *
;*                            0 Parameter,  2 Auto,  0 SOE     *
;***************************************************************

||GetCanAxisPosTarget||:
	.dwcfi	cfa_offset, -2
	.dwcfi	save_reg_to_mem, 26, 0
        ADDB      SP,#2                 ; [CPU_ARAU] 
	.dwcfi	cfa_offset, -4
$C$DW$155	.dwtag  DW_TAG_variable
	.dwattr $C$DW$155, DW_AT_name("pAxis")
	.dwattr $C$DW$155, DW_AT_type(*$C$DW$T$220)
	.dwattr $C$DW$155, DW_AT_location[DW_OP_breg20 -2]

        MOVL      *-SP[2],XAR4          ; [CPU_ALU] |402| 
	.dwpsn	file "..\Application\..\..\BHAxes\BhAxes.h",line 403,column 5,is_stmt,isa 0
        MOVB      ACC,#92               ; [CPU_ALU] |403| 
        ADDL      ACC,*-SP[2]           ; [CPU_ALU] |403| 
        MOVL      XAR4,ACC              ; [CPU_ALU] |403| 
        MOV32     R0H,*+XAR4[0]         ; [CPU_FPU] |403| 
	.dwpsn	file "..\Application\..\..\BHAxes\BhAxes.h",line 404,column 1,is_stmt,isa 0
        SUBB      SP,#2                 ; [CPU_ARAU] 
	.dwcfi	cfa_offset, -2
$C$DW$156	.dwtag  DW_TAG_TI_branch
	.dwattr $C$DW$156, DW_AT_low_pc(0x00)
	.dwattr $C$DW$156, DW_AT_TI_return

        LRETR     ; [CPU_ALU] 
        ; return occurs ; [] 
	.dwattr $C$DW$153, DW_AT_TI_end_file("..\Application\..\..\BHAxes\BhAxes.h")
	.dwattr $C$DW$153, DW_AT_TI_end_line(0x194)
	.dwattr $C$DW$153, DW_AT_TI_end_column(0x01)
	.dwendentry
	.dwendtag $C$DW$153

	.sect	".text:IsAtFault"
	.clink
	.global	||IsAtFault||

$C$DW$157	.dwtag  DW_TAG_subprogram
	.dwattr $C$DW$157, DW_AT_name("IsAtFault")
	.dwattr $C$DW$157, DW_AT_low_pc(||IsAtFault||)
	.dwattr $C$DW$157, DW_AT_high_pc(0x00)
	.dwattr $C$DW$157, DW_AT_linkage_name("IsAtFault")
	.dwattr $C$DW$157, DW_AT_external
	.dwattr $C$DW$157, DW_AT_type(*$C$DW$T$9)
	.dwattr $C$DW$157, DW_AT_decl_file("..\Application\..\..\BHAxes\BhAxes.h")
	.dwattr $C$DW$157, DW_AT_decl_line(0x197)
	.dwattr $C$DW$157, DW_AT_decl_column(0x10)
	.dwattr $C$DW$157, DW_AT_TI_max_frame_size(-4)
	.dwpsn	file "..\Application\..\..\BHAxes\BhAxes.h",line 408,column 1,is_stmt,address ||IsAtFault||,isa 0

	.dwfde $C$DW$CIE, ||IsAtFault||
$C$DW$158	.dwtag  DW_TAG_formal_parameter
	.dwattr $C$DW$158, DW_AT_name("pAxis")
	.dwattr $C$DW$158, DW_AT_type(*$C$DW$T$220)
	.dwattr $C$DW$158, DW_AT_location[DW_OP_reg12]


;***************************************************************
;* FNAME: IsAtFault                     FR SIZE:   2           *
;*                                                             *
;* FUNCTION ENVIRONMENT                                        *
;*                                                             *
;* FUNCTION PROPERTIES                                         *
;*                            0 Parameter,  2 Auto,  0 SOE     *
;***************************************************************

||IsAtFault||:
	.dwcfi	cfa_offset, -2
	.dwcfi	save_reg_to_mem, 26, 0
        ADDB      SP,#2                 ; [CPU_ARAU] 
	.dwcfi	cfa_offset, -4
$C$DW$159	.dwtag  DW_TAG_variable
	.dwattr $C$DW$159, DW_AT_name("pAxis")
	.dwattr $C$DW$159, DW_AT_type(*$C$DW$T$220)
	.dwattr $C$DW$159, DW_AT_location[DW_OP_breg20 -2]

        MOVL      *-SP[2],XAR4          ; [CPU_ALU] |408| 
	.dwpsn	file "..\Application\..\..\BHAxes\BhAxes.h",line 409,column 5,is_stmt,isa 0
        MOVB      ACC,#142              ; [CPU_ALU] |409| 
        ADDL      ACC,*-SP[2]           ; [CPU_ALU] |409| 
        MOVL      XAR4,ACC              ; [CPU_ALU] |409| 
        TBIT      *+XAR4[0],#5          ; [CPU_ALU] |409| 
        B         ||$C$L4||,NTC         ; [CPU_ALU] |409| 
        ; branchcc occurs ; [] |409| 
        MOVB      AL,#1                 ; [CPU_ALU] |409| 
        B         ||$C$L5||,UNC         ; [CPU_ALU] |409| 
        ; branch occurs ; [] |409| 
||$C$L4||:    
        MOVB      AL,#0                 ; [CPU_ALU] |409| 
||$C$L5||:    
	.dwpsn	file "..\Application\..\..\BHAxes\BhAxes.h",line 410,column 1,is_stmt,isa 0
        SUBB      SP,#2                 ; [CPU_ARAU] 
	.dwcfi	cfa_offset, -2
$C$DW$160	.dwtag  DW_TAG_TI_branch
	.dwattr $C$DW$160, DW_AT_low_pc(0x00)
	.dwattr $C$DW$160, DW_AT_TI_return

        LRETR     ; [CPU_ALU] 
        ; return occurs ; [] 
	.dwattr $C$DW$157, DW_AT_TI_end_file("..\Application\..\..\BHAxes\BhAxes.h")
	.dwattr $C$DW$157, DW_AT_TI_end_line(0x19a)
	.dwattr $C$DW$157, DW_AT_TI_end_column(0x01)
	.dwendentry
	.dwendtag $C$DW$157

	.sect	".text:IsFaultFree"
	.clink
	.global	||IsFaultFree||

$C$DW$161	.dwtag  DW_TAG_subprogram
	.dwattr $C$DW$161, DW_AT_name("IsFaultFree")
	.dwattr $C$DW$161, DW_AT_low_pc(||IsFaultFree||)
	.dwattr $C$DW$161, DW_AT_high_pc(0x00)
	.dwattr $C$DW$161, DW_AT_linkage_name("IsFaultFree")
	.dwattr $C$DW$161, DW_AT_external
	.dwattr $C$DW$161, DW_AT_type(*$C$DW$T$9)
	.dwattr $C$DW$161, DW_AT_decl_file("..\Application\..\..\BHAxes\BhAxes.h")
	.dwattr $C$DW$161, DW_AT_decl_line(0x19d)
	.dwattr $C$DW$161, DW_AT_decl_column(0x10)
	.dwattr $C$DW$161, DW_AT_TI_max_frame_size(-4)
	.dwpsn	file "..\Application\..\..\BHAxes\BhAxes.h",line 414,column 1,is_stmt,address ||IsFaultFree||,isa 0

	.dwfde $C$DW$CIE, ||IsFaultFree||
$C$DW$162	.dwtag  DW_TAG_formal_parameter
	.dwattr $C$DW$162, DW_AT_name("pAxis")
	.dwattr $C$DW$162, DW_AT_type(*$C$DW$T$220)
	.dwattr $C$DW$162, DW_AT_location[DW_OP_reg12]


;***************************************************************
;* FNAME: IsFaultFree                   FR SIZE:   2           *
;*                                                             *
;* FUNCTION ENVIRONMENT                                        *
;*                                                             *
;* FUNCTION PROPERTIES                                         *
;*                            0 Parameter,  2 Auto,  0 SOE     *
;***************************************************************

||IsFaultFree||:
	.dwcfi	cfa_offset, -2
	.dwcfi	save_reg_to_mem, 26, 0
        ADDB      SP,#2                 ; [CPU_ARAU] 
	.dwcfi	cfa_offset, -4
$C$DW$163	.dwtag  DW_TAG_variable
	.dwattr $C$DW$163, DW_AT_name("pAxis")
	.dwattr $C$DW$163, DW_AT_type(*$C$DW$T$220)
	.dwattr $C$DW$163, DW_AT_location[DW_OP_breg20 -2]

        MOVL      *-SP[2],XAR4          ; [CPU_ALU] |414| 
	.dwpsn	file "..\Application\..\..\BHAxes\BhAxes.h",line 415,column 5,is_stmt,isa 0
        MOVB      ACC,#142              ; [CPU_ALU] |415| 
        ADDL      ACC,*-SP[2]           ; [CPU_ALU] |415| 
        MOVL      XAR4,ACC              ; [CPU_ALU] |415| 
        AND       AL,*+XAR4[0],#0x0020  ; [CPU_ALU] |415| 
        MOVL      XAR4,*-SP[2]          ; [CPU_ALU] |415| 
        LSR       AL,5                  ; [CPU_ALU] |415| 
        MOV       T,AL                  ; [CPU_ALU] |415| 
        MPY       ACC,T,*+XAR4[4]       ; [CPU_ALU] |415| 
        CMPB      AL,#0                 ; [CPU_ALU] |415| 
        B         ||$C$L6||,EQ          ; [CPU_ALU] |415| 
        ; branchcc occurs ; [] |415| 
        MOVB      AL,#0                 ; [CPU_ALU] |415| 
        B         ||$C$L7||,UNC         ; [CPU_ALU] |415| 
        ; branch occurs ; [] |415| 
||$C$L6||:    
        MOVB      AL,#1                 ; [CPU_ALU] |415| 
||$C$L7||:    
	.dwpsn	file "..\Application\..\..\BHAxes\BhAxes.h",line 416,column 1,is_stmt,isa 0
        SUBB      SP,#2                 ; [CPU_ARAU] 
	.dwcfi	cfa_offset, -2
$C$DW$164	.dwtag  DW_TAG_TI_branch
	.dwattr $C$DW$164, DW_AT_low_pc(0x00)
	.dwattr $C$DW$164, DW_AT_TI_return

        LRETR     ; [CPU_ALU] 
        ; return occurs ; [] 
	.dwattr $C$DW$161, DW_AT_TI_end_file("..\Application\..\..\BHAxes\BhAxes.h")
	.dwattr $C$DW$161, DW_AT_TI_end_line(0x1a0)
	.dwattr $C$DW$161, DW_AT_TI_end_column(0x01)
	.dwendentry
	.dwendtag $C$DW$161

	.sect	".text:__isfinite"
	.clink
	.global	||__isfinite||

$C$DW$165	.dwtag  DW_TAG_subprogram
	.dwattr $C$DW$165, DW_AT_name("__isfinite")
	.dwattr $C$DW$165, DW_AT_low_pc(||__isfinite||)
	.dwattr $C$DW$165, DW_AT_high_pc(0x00)
	.dwattr $C$DW$165, DW_AT_linkage_name("__isfinite")
	.dwattr $C$DW$165, DW_AT_external
	.dwattr $C$DW$165, DW_AT_type(*$C$DW$T$10)
	.dwattr $C$DW$165, DW_AT_decl_file("C:/ti/ccs1260/ccs/tools/compiler/ti-cgt-c2000_22.6.1.LTS/include/_defs.h")
	.dwattr $C$DW$165, DW_AT_decl_line(0x14e)
	.dwattr $C$DW$165, DW_AT_decl_column(0x18)
	.dwattr $C$DW$165, DW_AT_TI_max_frame_size(-6)
	.dwpsn	file "C:/ti/ccs1260/ccs/tools/compiler/ti-cgt-c2000_22.6.1.LTS/include/_defs.h",line 335,column 1,is_stmt,address ||__isfinite||,isa 0

	.dwfde $C$DW$CIE, ||__isfinite||
$C$DW$166	.dwtag  DW_TAG_formal_parameter
	.dwattr $C$DW$166, DW_AT_name("d")
	.dwattr $C$DW$166, DW_AT_type(*$C$DW$T$17)
	.dwattr $C$DW$166, DW_AT_location[DW_OP_regx 0x29]


;***************************************************************
;* FNAME: __isfinite                    FR SIZE:   4           *
;*                                                             *
;* FUNCTION ENVIRONMENT                                        *
;*                                                             *
;* FUNCTION PROPERTIES                                         *
;*                            0 Parameter,  4 Auto,  0 SOE     *
;***************************************************************

||__isfinite||:
	.dwcfi	cfa_offset, -2
	.dwcfi	save_reg_to_mem, 26, 0
        ADDB      SP,#4                 ; [CPU_ARAU] 
	.dwcfi	cfa_offset, -6
$C$DW$167	.dwtag  DW_TAG_variable
	.dwattr $C$DW$167, DW_AT_name("d")
	.dwattr $C$DW$167, DW_AT_type(*$C$DW$T$17)
	.dwattr $C$DW$167, DW_AT_location[DW_OP_breg20 -4]

        MOV32     *-SP[4],R0L           ; [CPU_FPU] |335| 
        MOV32     *-SP[2],R0H           ; [CPU_FPU] |335| 
	.dwpsn	file "C:/ti/ccs1260/ccs/tools/compiler/ti-cgt-c2000_22.6.1.LTS/include/_defs.h",line 335,column 3,is_stmt,isa 0
        MOV       T,#48                 ; [CPU_ALU] |335| 
        MOV32     P,R0L                 ; [CPU_FPU] |335| 
        MOVB      XAR6,#0               ; [CPU_ALU] |335| 
        MOVB      XAR7,#0               ; [CPU_ALU] |335| 
        MOV32     ACC,R0H               ; [CPU_FPU] |335| 
        LSR64     ACC:P,T               ; [CPU_ALU] |335| 
        MOV       PH,#0                 ; [CPU_ALU] |335| 
        AND       PL,#0x7ff0            ; [CPU_ALU] |335| 
        MOV       ACC,#32752            ; [CPU_ALU] |335| 
        CMPL      ACC,P                 ; [CPU_ALU] |335| 
        B         ||$C$L8||,NEQ         ; [CPU_ALU] |335| 
        ; branchcc occurs ; [] |335| 
        MOVB      XAR7,#1               ; [CPU_ALU] |335| 
||$C$L8||:    
        MOV       AH,AR7                ; [CPU_ALU] 
        B         ||$C$L9||,NEQ         ; [CPU_ALU] |335| 
        ; branchcc occurs ; [] |335| 
        MOVB      XAR6,#1               ; [CPU_ALU] |335| 
||$C$L9||:    
        MOV       AL,AR6                ; [CPU_ALU] |335| 
	.dwpsn	file "C:/ti/ccs1260/ccs/tools/compiler/ti-cgt-c2000_22.6.1.LTS/include/_defs.h",line 335,column 46,is_stmt,isa 0
        SUBB      SP,#4                 ; [CPU_ARAU] 
	.dwcfi	cfa_offset, -2
$C$DW$168	.dwtag  DW_TAG_TI_branch
	.dwattr $C$DW$168, DW_AT_low_pc(0x00)
	.dwattr $C$DW$168, DW_AT_TI_return

        LRETR     ; [CPU_ALU] 
        ; return occurs ; [] 
	.dwattr $C$DW$165, DW_AT_TI_end_file("C:/ti/ccs1260/ccs/tools/compiler/ti-cgt-c2000_22.6.1.LTS/include/_defs.h")
	.dwattr $C$DW$165, DW_AT_TI_end_line(0x14f)
	.dwattr $C$DW$165, DW_AT_TI_end_column(0x2e)
	.dwendentry
	.dwendtag $C$DW$165

	.sect	".text:__isfinitef"
	.clink
	.global	||__isfinitef||

$C$DW$169	.dwtag  DW_TAG_subprogram
	.dwattr $C$DW$169, DW_AT_name("__isfinitef")
	.dwattr $C$DW$169, DW_AT_low_pc(||__isfinitef||)
	.dwattr $C$DW$169, DW_AT_high_pc(0x00)
	.dwattr $C$DW$169, DW_AT_linkage_name("__isfinitef")
	.dwattr $C$DW$169, DW_AT_external
	.dwattr $C$DW$169, DW_AT_type(*$C$DW$T$10)
	.dwattr $C$DW$169, DW_AT_decl_file("C:/ti/ccs1260/ccs/tools/compiler/ti-cgt-c2000_22.6.1.LTS/include/_defs.h")
	.dwattr $C$DW$169, DW_AT_decl_line(0x150)
	.dwattr $C$DW$169, DW_AT_decl_column(0x18)
	.dwattr $C$DW$169, DW_AT_TI_max_frame_size(-4)
	.dwpsn	file "C:/ti/ccs1260/ccs/tools/compiler/ti-cgt-c2000_22.6.1.LTS/include/_defs.h",line 337,column 1,is_stmt,address ||__isfinitef||,isa 0

	.dwfde $C$DW$CIE, ||__isfinitef||
$C$DW$170	.dwtag  DW_TAG_formal_parameter
	.dwattr $C$DW$170, DW_AT_name("f")
	.dwattr $C$DW$170, DW_AT_type(*$C$DW$T$16)
	.dwattr $C$DW$170, DW_AT_location[DW_OP_regx 0x2b]


;***************************************************************
;* FNAME: __isfinitef                   FR SIZE:   2           *
;*                                                             *
;* FUNCTION ENVIRONMENT                                        *
;*                                                             *
;* FUNCTION PROPERTIES                                         *
;*                            0 Parameter,  2 Auto,  0 SOE     *
;***************************************************************

||__isfinitef||:
	.dwcfi	cfa_offset, -2
	.dwcfi	save_reg_to_mem, 26, 0
        ADDB      SP,#2                 ; [CPU_ARAU] 
	.dwcfi	cfa_offset, -4
$C$DW$171	.dwtag  DW_TAG_variable
	.dwattr $C$DW$171, DW_AT_name("f")
	.dwattr $C$DW$171, DW_AT_type(*$C$DW$T$16)
	.dwattr $C$DW$171, DW_AT_location[DW_OP_breg20 -2]

        MOV32     *-SP[2],R0H           ; [CPU_FPU] |337| 
	.dwpsn	file "C:/ti/ccs1260/ccs/tools/compiler/ti-cgt-c2000_22.6.1.LTS/include/_defs.h",line 337,column 3,is_stmt,isa 0
        MOVL      ACC,*-SP[2]           ; [CPU_ALU] |337| 
        MOV       PH,#0                 ; [CPU_ALU] |337| 
        AND       AH,#0x7f80            ; [CPU_ALU] |337| 
        MOVB      XAR6,#0               ; [CPU_ALU] |337| 
        MOVB      XAR7,#0               ; [CPU_ALU] |337| 
        MOV       PL,AH                 ; [CPU_ALU] |337| 
        MOV       ACC,#32640            ; [CPU_ALU] |337| 
        CMPL      ACC,P                 ; [CPU_ALU] |337| 
        B         ||$C$L10||,NEQ        ; [CPU_ALU] |337| 
        ; branchcc occurs ; [] |337| 
        MOVB      XAR7,#1               ; [CPU_ALU] |337| 
||$C$L10||:    
        MOV       AH,AR7                ; [CPU_ALU] 
        B         ||$C$L11||,NEQ        ; [CPU_ALU] |337| 
        ; branchcc occurs ; [] |337| 
        MOVB      XAR6,#1               ; [CPU_ALU] |337| 
||$C$L11||:    
        MOV       AL,AR6                ; [CPU_ALU] |337| 
	.dwpsn	file "C:/ti/ccs1260/ccs/tools/compiler/ti-cgt-c2000_22.6.1.LTS/include/_defs.h",line 337,column 45,is_stmt,isa 0
        SUBB      SP,#2                 ; [CPU_ARAU] 
	.dwcfi	cfa_offset, -2
$C$DW$172	.dwtag  DW_TAG_TI_branch
	.dwattr $C$DW$172, DW_AT_low_pc(0x00)
	.dwattr $C$DW$172, DW_AT_TI_return

        LRETR     ; [CPU_ALU] 
        ; return occurs ; [] 
	.dwattr $C$DW$169, DW_AT_TI_end_file("C:/ti/ccs1260/ccs/tools/compiler/ti-cgt-c2000_22.6.1.LTS/include/_defs.h")
	.dwattr $C$DW$169, DW_AT_TI_end_line(0x151)
	.dwattr $C$DW$169, DW_AT_TI_end_column(0x2d)
	.dwendentry
	.dwendtag $C$DW$169

	.sect	".text:__isfinitel"
	.clink
	.global	||__isfinitel||

$C$DW$173	.dwtag  DW_TAG_subprogram
	.dwattr $C$DW$173, DW_AT_name("__isfinitel")
	.dwattr $C$DW$173, DW_AT_low_pc(||__isfinitel||)
	.dwattr $C$DW$173, DW_AT_high_pc(0x00)
	.dwattr $C$DW$173, DW_AT_linkage_name("__isfinitel")
	.dwattr $C$DW$173, DW_AT_external
	.dwattr $C$DW$173, DW_AT_type(*$C$DW$T$10)
	.dwattr $C$DW$173, DW_AT_decl_file("C:/ti/ccs1260/ccs/tools/compiler/ti-cgt-c2000_22.6.1.LTS/include/_defs.h")
	.dwattr $C$DW$173, DW_AT_decl_line(0x152)
	.dwattr $C$DW$173, DW_AT_decl_column(0x18)
	.dwattr $C$DW$173, DW_AT_TI_max_frame_size(-6)
	.dwpsn	file "C:/ti/ccs1260/ccs/tools/compiler/ti-cgt-c2000_22.6.1.LTS/include/_defs.h",line 339,column 1,is_stmt,address ||__isfinitel||,isa 0

	.dwfde $C$DW$CIE, ||__isfinitel||
$C$DW$174	.dwtag  DW_TAG_formal_parameter
	.dwattr $C$DW$174, DW_AT_name("e")
	.dwattr $C$DW$174, DW_AT_type(*$C$DW$T$18)
	.dwattr $C$DW$174, DW_AT_location[DW_OP_regx 0x29]


;***************************************************************
;* FNAME: __isfinitel                   FR SIZE:   4           *
;*                                                             *
;* FUNCTION ENVIRONMENT                                        *
;*                                                             *
;* FUNCTION PROPERTIES                                         *
;*                            0 Parameter,  4 Auto,  0 SOE     *
;***************************************************************

||__isfinitel||:
	.dwcfi	cfa_offset, -2
	.dwcfi	save_reg_to_mem, 26, 0
        ADDB      SP,#4                 ; [CPU_ARAU] 
	.dwcfi	cfa_offset, -6
$C$DW$175	.dwtag  DW_TAG_variable
	.dwattr $C$DW$175, DW_AT_name("e")
	.dwattr $C$DW$175, DW_AT_type(*$C$DW$T$18)
	.dwattr $C$DW$175, DW_AT_location[DW_OP_breg20 -4]

        MOV32     *-SP[4],R0L           ; [CPU_FPU] |339| 
        MOV32     *-SP[2],R0H           ; [CPU_FPU] |339| 
	.dwpsn	file "C:/ti/ccs1260/ccs/tools/compiler/ti-cgt-c2000_22.6.1.LTS/include/_defs.h",line 339,column 3,is_stmt,isa 0
        MOV       T,#48                 ; [CPU_ALU] |339| 
        MOV32     P,R0L                 ; [CPU_FPU] |339| 
        MOVB      XAR6,#0               ; [CPU_ALU] |339| 
        MOVB      XAR7,#0               ; [CPU_ALU] |339| 
        MOV32     ACC,R0H               ; [CPU_FPU] |339| 
        LSR64     ACC:P,T               ; [CPU_ALU] |339| 
        MOV       PH,#0                 ; [CPU_ALU] |339| 
        AND       PL,#0x7ff0            ; [CPU_ALU] |339| 
        MOV       ACC,#32752            ; [CPU_ALU] |339| 
        CMPL      ACC,P                 ; [CPU_ALU] |339| 
        B         ||$C$L12||,NEQ        ; [CPU_ALU] |339| 
        ; branchcc occurs ; [] |339| 
        MOVB      XAR7,#1               ; [CPU_ALU] |339| 
||$C$L12||:    
        MOV       AH,AR7                ; [CPU_ALU] 
        B         ||$C$L13||,NEQ        ; [CPU_ALU] |339| 
        ; branchcc occurs ; [] |339| 
        MOVB      XAR6,#1               ; [CPU_ALU] |339| 
||$C$L13||:    
        MOV       AL,AR6                ; [CPU_ALU] |339| 
	.dwpsn	file "C:/ti/ccs1260/ccs/tools/compiler/ti-cgt-c2000_22.6.1.LTS/include/_defs.h",line 339,column 47,is_stmt,isa 0
        SUBB      SP,#4                 ; [CPU_ARAU] 
	.dwcfi	cfa_offset, -2
$C$DW$176	.dwtag  DW_TAG_TI_branch
	.dwattr $C$DW$176, DW_AT_low_pc(0x00)
	.dwattr $C$DW$176, DW_AT_TI_return

        LRETR     ; [CPU_ALU] 
        ; return occurs ; [] 
	.dwattr $C$DW$173, DW_AT_TI_end_file("C:/ti/ccs1260/ccs/tools/compiler/ti-cgt-c2000_22.6.1.LTS/include/_defs.h")
	.dwattr $C$DW$173, DW_AT_TI_end_line(0x153)
	.dwattr $C$DW$173, DW_AT_TI_end_column(0x2f)
	.dwendentry
	.dwendtag $C$DW$173

	.sect	".text:__isnan"
	.clink
	.global	||__isnan||

$C$DW$177	.dwtag  DW_TAG_subprogram
	.dwattr $C$DW$177, DW_AT_name("__isnan")
	.dwattr $C$DW$177, DW_AT_low_pc(||__isnan||)
	.dwattr $C$DW$177, DW_AT_high_pc(0x00)
	.dwattr $C$DW$177, DW_AT_linkage_name("__isnan")
	.dwattr $C$DW$177, DW_AT_external
	.dwattr $C$DW$177, DW_AT_type(*$C$DW$T$10)
	.dwattr $C$DW$177, DW_AT_decl_file("C:/ti/ccs1260/ccs/tools/compiler/ti-cgt-c2000_22.6.1.LTS/include/_defs.h")
	.dwattr $C$DW$177, DW_AT_decl_line(0x155)
	.dwattr $C$DW$177, DW_AT_decl_column(0x18)
	.dwattr $C$DW$177, DW_AT_TI_max_frame_size(-10)
	.dwpsn	file "C:/ti/ccs1260/ccs/tools/compiler/ti-cgt-c2000_22.6.1.LTS/include/_defs.h",line 342,column 1,is_stmt,address ||__isnan||,isa 0

	.dwfde $C$DW$CIE, ||__isnan||
$C$DW$178	.dwtag  DW_TAG_formal_parameter
	.dwattr $C$DW$178, DW_AT_name("d")
	.dwattr $C$DW$178, DW_AT_type(*$C$DW$T$17)
	.dwattr $C$DW$178, DW_AT_location[DW_OP_regx 0x29]


;***************************************************************
;* FNAME: __isnan                       FR SIZE:   8           *
;*                                                             *
;* FUNCTION ENVIRONMENT                                        *
;*                                                             *
;* FUNCTION PROPERTIES                                         *
;*                            4 Parameter,  4 Auto,  0 SOE     *
;***************************************************************

||__isnan||:
	.dwcfi	cfa_offset, -2
	.dwcfi	save_reg_to_mem, 26, 0
        ADDB      SP,#8                 ; [CPU_ARAU] 
	.dwcfi	cfa_offset, -10
$C$DW$179	.dwtag  DW_TAG_variable
	.dwattr $C$DW$179, DW_AT_name("d")
	.dwattr $C$DW$179, DW_AT_type(*$C$DW$T$17)
	.dwattr $C$DW$179, DW_AT_location[DW_OP_breg20 -8]

        MOV32     *-SP[8],R0L           ; [CPU_FPU] |342| 
        MOV32     *-SP[6],R0H           ; [CPU_FPU] |342| 
	.dwpsn	file "C:/ti/ccs1260/ccs/tools/compiler/ti-cgt-c2000_22.6.1.LTS/include/_defs.h",line 342,column 3,is_stmt,isa 0
        MOV       T,#48                 ; [CPU_ALU] |342| 
        MOV32     P,R0L                 ; [CPU_FPU] |342| 
        MOV32     ACC,R0H               ; [CPU_FPU] |342| 
        LSR64     ACC:P,T               ; [CPU_ALU] |342| 
        AND       PL,#0x7ff0            ; [CPU_ALU] |342| 
        MOVZ      AR6,PL                ; [CPU_ALU] |342| 
        MOV       ACC,#32752            ; [CPU_ALU] |342| 
        MOVB      XAR4,#0               ; [CPU_ALU] |342| 
        CMPL      ACC,XAR6              ; [CPU_ALU] |342| 
        B         ||$C$L15||,NEQ        ; [CPU_ALU] |342| 
        ; branchcc occurs ; [] |342| 
        MOVB      ACC,#0                ; [CPU_ALU] |342| 
        MOVL      *-SP[4],ACC           ; [CPU_ALU] |342| 
        MOV       *-SP[2],#0            ; [CPU_ALU] |342| 
        MOV       *-SP[1],#0            ; [CPU_ALU] |342| 
        MOV32     R0H,*-SP[6]           ; [CPU_FPU] |342| 
        MOV32     R0L,*-SP[8]           ; [CPU_FPU] |342| 
        NOP       ; [CPU_ALU] 
        MOV32     P,R0L                 ; [CPU_FPU] |342| 
        AND       PL,#65535             ; [CPU_ALU] |342| 
        AND       PH,#65535             ; [CPU_ALU] |342| 
        MOV32     ACC,R0H               ; [CPU_FPU] |342| 
        AND       AL,#65535             ; [CPU_ALU] |342| 
        ANDB      AH,#15                ; [CPU_ALU] |342| 
$C$DW$180	.dwtag  DW_TAG_TI_branch
	.dwattr $C$DW$180, DW_AT_low_pc(0x00)
	.dwattr $C$DW$180, DW_AT_name("__c28xabi_cmpull")
	.dwattr $C$DW$180, DW_AT_TI_call

        LCR       #||__c28xabi_cmpull|| ; [CPU_ALU] |342| 
        ; call occurs [#||__c28xabi_cmpull||] ; [] |342| 
        MOVB      AH,#0                 ; [CPU_ALU] |342| 
        CMPB      AL,#0                 ; [CPU_ALU] |342| 
        B         ||$C$L14||,NEQ        ; [CPU_ALU] |342| 
        ; branchcc occurs ; [] |342| 
        MOVB      AH,#1                 ; [CPU_ALU] |342| 
||$C$L14||:    
        CMPB      AH,#0                 ; [CPU_ALU] |342| 
        B         ||$C$L15||,NEQ        ; [CPU_ALU] |342| 
        ; branchcc occurs ; [] |342| 
        MOVB      XAR4,#1               ; [CPU_ALU] |342| 
||$C$L15||:    
        MOV       AL,AR4                ; [CPU_ALU] |342| 
	.dwpsn	file "C:/ti/ccs1260/ccs/tools/compiler/ti-cgt-c2000_22.6.1.LTS/include/_defs.h",line 343,column 47,is_stmt,isa 0
        SUBB      SP,#8                 ; [CPU_ARAU] 
	.dwcfi	cfa_offset, -2
$C$DW$181	.dwtag  DW_TAG_TI_branch
	.dwattr $C$DW$181, DW_AT_low_pc(0x00)
	.dwattr $C$DW$181, DW_AT_TI_return

        LRETR     ; [CPU_ALU] 
        ; return occurs ; [] 
	.dwattr $C$DW$177, DW_AT_TI_end_file("C:/ti/ccs1260/ccs/tools/compiler/ti-cgt-c2000_22.6.1.LTS/include/_defs.h")
	.dwattr $C$DW$177, DW_AT_TI_end_line(0x157)
	.dwattr $C$DW$177, DW_AT_TI_end_column(0x2f)
	.dwendentry
	.dwendtag $C$DW$177

	.sect	".text:__isnanf"
	.clink
	.global	||__isnanf||

$C$DW$182	.dwtag  DW_TAG_subprogram
	.dwattr $C$DW$182, DW_AT_name("__isnanf")
	.dwattr $C$DW$182, DW_AT_low_pc(||__isnanf||)
	.dwattr $C$DW$182, DW_AT_high_pc(0x00)
	.dwattr $C$DW$182, DW_AT_linkage_name("__isnanf")
	.dwattr $C$DW$182, DW_AT_external
	.dwattr $C$DW$182, DW_AT_type(*$C$DW$T$10)
	.dwattr $C$DW$182, DW_AT_decl_file("C:/ti/ccs1260/ccs/tools/compiler/ti-cgt-c2000_22.6.1.LTS/include/_defs.h")
	.dwattr $C$DW$182, DW_AT_decl_line(0x158)
	.dwattr $C$DW$182, DW_AT_decl_column(0x18)
	.dwattr $C$DW$182, DW_AT_TI_max_frame_size(-4)
	.dwpsn	file "C:/ti/ccs1260/ccs/tools/compiler/ti-cgt-c2000_22.6.1.LTS/include/_defs.h",line 345,column 1,is_stmt,address ||__isnanf||,isa 0

	.dwfde $C$DW$CIE, ||__isnanf||
$C$DW$183	.dwtag  DW_TAG_formal_parameter
	.dwattr $C$DW$183, DW_AT_name("f")
	.dwattr $C$DW$183, DW_AT_type(*$C$DW$T$16)
	.dwattr $C$DW$183, DW_AT_location[DW_OP_regx 0x2b]


;***************************************************************
;* FNAME: __isnanf                      FR SIZE:   2           *
;*                                                             *
;* FUNCTION ENVIRONMENT                                        *
;*                                                             *
;* FUNCTION PROPERTIES                                         *
;*                            0 Parameter,  2 Auto,  0 SOE     *
;***************************************************************

||__isnanf||:
	.dwcfi	cfa_offset, -2
	.dwcfi	save_reg_to_mem, 26, 0
        ADDB      SP,#2                 ; [CPU_ARAU] 
	.dwcfi	cfa_offset, -4
$C$DW$184	.dwtag  DW_TAG_variable
	.dwattr $C$DW$184, DW_AT_name("f")
	.dwattr $C$DW$184, DW_AT_type(*$C$DW$T$16)
	.dwattr $C$DW$184, DW_AT_location[DW_OP_breg20 -2]

        MOV32     *-SP[2],R0H           ; [CPU_FPU] |345| 
	.dwpsn	file "C:/ti/ccs1260/ccs/tools/compiler/ti-cgt-c2000_22.6.1.LTS/include/_defs.h",line 345,column 3,is_stmt,isa 0
        MOVL      ACC,*-SP[2]           ; [CPU_ALU] |345| 
        AND       AH,#0x7f80            ; [CPU_ALU] |345| 
        MOVZ      AR7,AH                ; [CPU_ALU] |345| 
        MOVB      XAR6,#0               ; [CPU_ALU] |345| 
        MOV       ACC,#32640            ; [CPU_ALU] |345| 
        CMPL      ACC,XAR7              ; [CPU_ALU] |345| 
        B         ||$C$L17||,NEQ        ; [CPU_ALU] |345| 
        ; branchcc occurs ; [] |345| 
        MOVL      ACC,*-SP[2]           ; [CPU_ALU] |345| 
        ANDB      AH,#127               ; [CPU_ALU] |345| 
        MOVB      XAR7,#0               ; [CPU_FPU] |345| 
        TEST      ACC                   ; [CPU_ALU] |345| 
        B         ||$C$L16||,NEQ        ; [CPU_ALU] |345| 
        ; branchcc occurs ; [] |345| 
        MOVB      XAR7,#1               ; [CPU_ALU] |345| 
||$C$L16||:    
        MOV       AH,AR7                ; [CPU_ALU] 
        B         ||$C$L17||,NEQ        ; [CPU_ALU] |345| 
        ; branchcc occurs ; [] |345| 
        MOVB      XAR6,#1               ; [CPU_ALU] |345| 
||$C$L17||:    
        MOV       AL,AR6                ; [CPU_ALU] |345| 
	.dwpsn	file "C:/ti/ccs1260/ccs/tools/compiler/ti-cgt-c2000_22.6.1.LTS/include/_defs.h",line 346,column 46,is_stmt,isa 0
        SUBB      SP,#2                 ; [CPU_ARAU] 
	.dwcfi	cfa_offset, -2
$C$DW$185	.dwtag  DW_TAG_TI_branch
	.dwattr $C$DW$185, DW_AT_low_pc(0x00)
	.dwattr $C$DW$185, DW_AT_TI_return

        LRETR     ; [CPU_ALU] 
        ; return occurs ; [] 
	.dwattr $C$DW$182, DW_AT_TI_end_file("C:/ti/ccs1260/ccs/tools/compiler/ti-cgt-c2000_22.6.1.LTS/include/_defs.h")
	.dwattr $C$DW$182, DW_AT_TI_end_line(0x15a)
	.dwattr $C$DW$182, DW_AT_TI_end_column(0x2e)
	.dwendentry
	.dwendtag $C$DW$182

	.sect	".text:__isnanl"
	.clink
	.global	||__isnanl||

$C$DW$186	.dwtag  DW_TAG_subprogram
	.dwattr $C$DW$186, DW_AT_name("__isnanl")
	.dwattr $C$DW$186, DW_AT_low_pc(||__isnanl||)
	.dwattr $C$DW$186, DW_AT_high_pc(0x00)
	.dwattr $C$DW$186, DW_AT_linkage_name("__isnanl")
	.dwattr $C$DW$186, DW_AT_external
	.dwattr $C$DW$186, DW_AT_type(*$C$DW$T$10)
	.dwattr $C$DW$186, DW_AT_decl_file("C:/ti/ccs1260/ccs/tools/compiler/ti-cgt-c2000_22.6.1.LTS/include/_defs.h")
	.dwattr $C$DW$186, DW_AT_decl_line(0x15b)
	.dwattr $C$DW$186, DW_AT_decl_column(0x18)
	.dwattr $C$DW$186, DW_AT_TI_max_frame_size(-10)
	.dwpsn	file "C:/ti/ccs1260/ccs/tools/compiler/ti-cgt-c2000_22.6.1.LTS/include/_defs.h",line 348,column 1,is_stmt,address ||__isnanl||,isa 0

	.dwfde $C$DW$CIE, ||__isnanl||
$C$DW$187	.dwtag  DW_TAG_formal_parameter
	.dwattr $C$DW$187, DW_AT_name("e")
	.dwattr $C$DW$187, DW_AT_type(*$C$DW$T$18)
	.dwattr $C$DW$187, DW_AT_location[DW_OP_regx 0x29]


;***************************************************************
;* FNAME: __isnanl                      FR SIZE:   8           *
;*                                                             *
;* FUNCTION ENVIRONMENT                                        *
;*                                                             *
;* FUNCTION PROPERTIES                                         *
;*                            4 Parameter,  4 Auto,  0 SOE     *
;***************************************************************

||__isnanl||:
	.dwcfi	cfa_offset, -2
	.dwcfi	save_reg_to_mem, 26, 0
        ADDB      SP,#8                 ; [CPU_ARAU] 
	.dwcfi	cfa_offset, -10
$C$DW$188	.dwtag  DW_TAG_variable
	.dwattr $C$DW$188, DW_AT_name("e")
	.dwattr $C$DW$188, DW_AT_type(*$C$DW$T$18)
	.dwattr $C$DW$188, DW_AT_location[DW_OP_breg20 -8]

        MOV32     *-SP[8],R0L           ; [CPU_FPU] |348| 
        MOV32     *-SP[6],R0H           ; [CPU_FPU] |348| 
	.dwpsn	file "C:/ti/ccs1260/ccs/tools/compiler/ti-cgt-c2000_22.6.1.LTS/include/_defs.h",line 348,column 3,is_stmt,isa 0
        MOV       T,#48                 ; [CPU_ALU] |348| 
        MOV32     P,R0L                 ; [CPU_FPU] |348| 
        MOV32     ACC,R0H               ; [CPU_FPU] |348| 
        LSR64     ACC:P,T               ; [CPU_ALU] |348| 
        AND       PL,#0x7ff0            ; [CPU_ALU] |348| 
        MOVZ      AR6,PL                ; [CPU_ALU] |348| 
        MOV       ACC,#32752            ; [CPU_ALU] |348| 
        MOVB      XAR4,#0               ; [CPU_ALU] |348| 
        CMPL      ACC,XAR6              ; [CPU_ALU] |348| 
        B         ||$C$L19||,NEQ        ; [CPU_ALU] |348| 
        ; branchcc occurs ; [] |348| 
        MOVB      ACC,#0                ; [CPU_ALU] |348| 
        MOVL      *-SP[4],ACC           ; [CPU_ALU] |348| 
        MOV       *-SP[2],#0            ; [CPU_ALU] |348| 
        MOV       *-SP[1],#0            ; [CPU_ALU] |348| 
        MOV32     R0H,*-SP[6]           ; [CPU_FPU] |348| 
        MOV32     R0L,*-SP[8]           ; [CPU_FPU] |348| 
        NOP       ; [CPU_ALU] 
        MOV32     P,R0L                 ; [CPU_FPU] |348| 
        AND       PL,#65535             ; [CPU_ALU] |348| 
        AND       PH,#65535             ; [CPU_ALU] |348| 
        MOV32     ACC,R0H               ; [CPU_FPU] |348| 
        AND       AL,#65535             ; [CPU_ALU] |348| 
        ANDB      AH,#15                ; [CPU_ALU] |348| 
$C$DW$189	.dwtag  DW_TAG_TI_branch
	.dwattr $C$DW$189, DW_AT_low_pc(0x00)
	.dwattr $C$DW$189, DW_AT_name("__c28xabi_cmpull")
	.dwattr $C$DW$189, DW_AT_TI_call

        LCR       #||__c28xabi_cmpull|| ; [CPU_ALU] |348| 
        ; call occurs [#||__c28xabi_cmpull||] ; [] |348| 
        MOVB      AH,#0                 ; [CPU_ALU] |348| 
        CMPB      AL,#0                 ; [CPU_ALU] |348| 
        B         ||$C$L18||,NEQ        ; [CPU_ALU] |348| 
        ; branchcc occurs ; [] |348| 
        MOVB      AH,#1                 ; [CPU_ALU] |348| 
||$C$L18||:    
        CMPB      AH,#0                 ; [CPU_ALU] |348| 
        B         ||$C$L19||,NEQ        ; [CPU_ALU] |348| 
        ; branchcc occurs ; [] |348| 
        MOVB      XAR4,#1               ; [CPU_ALU] |348| 
||$C$L19||:    
        MOV       AL,AR4                ; [CPU_ALU] |348| 
	.dwpsn	file "C:/ti/ccs1260/ccs/tools/compiler/ti-cgt-c2000_22.6.1.LTS/include/_defs.h",line 349,column 48,is_stmt,isa 0
        SUBB      SP,#8                 ; [CPU_ARAU] 
	.dwcfi	cfa_offset, -2
$C$DW$190	.dwtag  DW_TAG_TI_branch
	.dwattr $C$DW$190, DW_AT_low_pc(0x00)
	.dwattr $C$DW$190, DW_AT_TI_return

        LRETR     ; [CPU_ALU] 
        ; return occurs ; [] 
	.dwattr $C$DW$186, DW_AT_TI_end_file("C:/ti/ccs1260/ccs/tools/compiler/ti-cgt-c2000_22.6.1.LTS/include/_defs.h")
	.dwattr $C$DW$186, DW_AT_TI_end_line(0x15d)
	.dwattr $C$DW$186, DW_AT_TI_end_column(0x30)
	.dwendentry
	.dwendtag $C$DW$186

	.sect	".text:__isnormal"
	.clink
	.global	||__isnormal||

$C$DW$191	.dwtag  DW_TAG_subprogram
	.dwattr $C$DW$191, DW_AT_name("__isnormal")
	.dwattr $C$DW$191, DW_AT_low_pc(||__isnormal||)
	.dwattr $C$DW$191, DW_AT_high_pc(0x00)
	.dwattr $C$DW$191, DW_AT_linkage_name("__isnormal")
	.dwattr $C$DW$191, DW_AT_external
	.dwattr $C$DW$191, DW_AT_type(*$C$DW$T$10)
	.dwattr $C$DW$191, DW_AT_decl_file("C:/ti/ccs1260/ccs/tools/compiler/ti-cgt-c2000_22.6.1.LTS/include/_defs.h")
	.dwattr $C$DW$191, DW_AT_decl_line(0x15f)
	.dwattr $C$DW$191, DW_AT_decl_column(0x18)
	.dwattr $C$DW$191, DW_AT_TI_max_frame_size(-10)
	.dwpsn	file "C:/ti/ccs1260/ccs/tools/compiler/ti-cgt-c2000_22.6.1.LTS/include/_defs.h",line 352,column 1,is_stmt,address ||__isnormal||,isa 0

	.dwfde $C$DW$CIE, ||__isnormal||
$C$DW$192	.dwtag  DW_TAG_formal_parameter
	.dwattr $C$DW$192, DW_AT_name("d")
	.dwattr $C$DW$192, DW_AT_type(*$C$DW$T$17)
	.dwattr $C$DW$192, DW_AT_location[DW_OP_regx 0x29]


;***************************************************************
;* FNAME: __isnormal                    FR SIZE:   8           *
;*                                                             *
;* FUNCTION ENVIRONMENT                                        *
;*                                                             *
;* FUNCTION PROPERTIES                                         *
;*                            4 Parameter,  4 Auto,  0 SOE     *
;***************************************************************

||__isnormal||:
	.dwcfi	cfa_offset, -2
	.dwcfi	save_reg_to_mem, 26, 0
        ADDB      SP,#8                 ; [CPU_ARAU] 
	.dwcfi	cfa_offset, -10
$C$DW$193	.dwtag  DW_TAG_variable
	.dwattr $C$DW$193, DW_AT_name("d")
	.dwattr $C$DW$193, DW_AT_type(*$C$DW$T$17)
	.dwattr $C$DW$193, DW_AT_location[DW_OP_breg20 -8]

        MOV32     *-SP[8],R0L           ; [CPU_FPU] |352| 
        MOV32     *-SP[6],R0H           ; [CPU_FPU] |352| 
	.dwpsn	file "C:/ti/ccs1260/ccs/tools/compiler/ti-cgt-c2000_22.6.1.LTS/include/_defs.h",line 352,column 3,is_stmt,isa 0
        MOVB      ACC,#0                ; [CPU_ALU] |352| 
        MOVL      *-SP[4],ACC           ; [CPU_ALU] |352| 
        MOV       *-SP[2],#0            ; [CPU_ALU] |352| 
        MOV       *-SP[1],#0            ; [CPU_ALU] |352| 
        MOV32     R0H,*-SP[6]           ; [CPU_FPU] |352| 
        MOV32     R0L,*-SP[8]           ; [CPU_FPU] |352| 
        MOV       T,#52                 ; [CPU_ALU] |352| 
        MOV32     P,R0L                 ; [CPU_FPU] |352| 
        MOV32     ACC,R0H               ; [CPU_FPU] |352| 
        LSR64     ACC:P,T               ; [CPU_ALU] |352| 
        ANDB      AL,#0                 ; [CPU_ALU] |352| 
        ANDB      AH,#0                 ; [CPU_ALU] |352| 
        AND       PL,#2047              ; [CPU_ALU] |352| 
        AND       PH,#0                 ; [CPU_ALU] |352| 
$C$DW$194	.dwtag  DW_TAG_TI_branch
	.dwattr $C$DW$194, DW_AT_low_pc(0x00)
	.dwattr $C$DW$194, DW_AT_name("__c28xabi_cmpull")
	.dwattr $C$DW$194, DW_AT_TI_call

        LCR       #||__c28xabi_cmpull|| ; [CPU_ALU] |352| 
        ; call occurs [#||__c28xabi_cmpull||] ; [] |352| 
        MOVB      XAR7,#0               ; [CPU_ALU] |352| 
        MOVB      AH,#0                 ; [CPU_ALU] |352| 
        CMPB      AL,#0                 ; [CPU_ALU] |352| 
        B         ||$C$L20||,NEQ        ; [CPU_ALU] |352| 
        ; branchcc occurs ; [] |352| 
        MOVB      AH,#1                 ; [CPU_ALU] |352| 
||$C$L20||:    
        CMPB      AH,#0                 ; [CPU_ALU] |352| 
        B         ||$C$L22||,NEQ        ; [CPU_ALU] |352| 
        ; branchcc occurs ; [] |352| 
        MOV32     R0H,*-SP[6]           ; [CPU_FPU] |352| 
        MOV       T,#48                 ; [CPU_ALU] |352| 
        MOV32     R0L,*-SP[8]           ; [CPU_FPU] |352| 
        MOVB      XAR6,#0               ; [CPU_ALU] |352| 
        MOV32     P,R0L                 ; [CPU_FPU] |352| 
        MOV32     ACC,R0H               ; [CPU_FPU] |352| 
        LSR64     ACC:P,T               ; [CPU_ALU] |352| 
        MOV       PH,#0                 ; [CPU_ALU] |352| 
        AND       PL,#0x7ff0            ; [CPU_ALU] |352| 
        MOV       ACC,#32752            ; [CPU_ALU] |352| 
        CMPL      ACC,P                 ; [CPU_ALU] |352| 
        B         ||$C$L21||,NEQ        ; [CPU_ALU] |352| 
        ; branchcc occurs ; [] |352| 
        MOVB      XAR6,#1               ; [CPU_ALU] |352| 
||$C$L21||:    
        MOV       AL,AR6                ; [CPU_ALU] 
        B         ||$C$L22||,NEQ        ; [CPU_ALU] |352| 
        ; branchcc occurs ; [] |352| 
        MOVB      XAR7,#1               ; [CPU_ALU] |352| 
||$C$L22||:    
        MOV       AL,AR7                ; [CPU_ALU] |352| 
	.dwpsn	file "C:/ti/ccs1260/ccs/tools/compiler/ti-cgt-c2000_22.6.1.LTS/include/_defs.h",line 353,column 48,is_stmt,isa 0
        SUBB      SP,#8                 ; [CPU_ARAU] 
	.dwcfi	cfa_offset, -2
$C$DW$195	.dwtag  DW_TAG_TI_branch
	.dwattr $C$DW$195, DW_AT_low_pc(0x00)
	.dwattr $C$DW$195, DW_AT_TI_return

        LRETR     ; [CPU_ALU] 
        ; return occurs ; [] 
	.dwattr $C$DW$191, DW_AT_TI_end_file("C:/ti/ccs1260/ccs/tools/compiler/ti-cgt-c2000_22.6.1.LTS/include/_defs.h")
	.dwattr $C$DW$191, DW_AT_TI_end_line(0x161)
	.dwattr $C$DW$191, DW_AT_TI_end_column(0x30)
	.dwendentry
	.dwendtag $C$DW$191

	.sect	".text:__isnormalf"
	.clink
	.global	||__isnormalf||

$C$DW$196	.dwtag  DW_TAG_subprogram
	.dwattr $C$DW$196, DW_AT_name("__isnormalf")
	.dwattr $C$DW$196, DW_AT_low_pc(||__isnormalf||)
	.dwattr $C$DW$196, DW_AT_high_pc(0x00)
	.dwattr $C$DW$196, DW_AT_linkage_name("__isnormalf")
	.dwattr $C$DW$196, DW_AT_external
	.dwattr $C$DW$196, DW_AT_type(*$C$DW$T$10)
	.dwattr $C$DW$196, DW_AT_decl_file("C:/ti/ccs1260/ccs/tools/compiler/ti-cgt-c2000_22.6.1.LTS/include/_defs.h")
	.dwattr $C$DW$196, DW_AT_decl_line(0x163)
	.dwattr $C$DW$196, DW_AT_decl_column(0x18)
	.dwattr $C$DW$196, DW_AT_TI_max_frame_size(-4)
	.dwpsn	file "C:/ti/ccs1260/ccs/tools/compiler/ti-cgt-c2000_22.6.1.LTS/include/_defs.h",line 356,column 1,is_stmt,address ||__isnormalf||,isa 0

	.dwfde $C$DW$CIE, ||__isnormalf||
$C$DW$197	.dwtag  DW_TAG_formal_parameter
	.dwattr $C$DW$197, DW_AT_name("f")
	.dwattr $C$DW$197, DW_AT_type(*$C$DW$T$16)
	.dwattr $C$DW$197, DW_AT_location[DW_OP_regx 0x2b]


;***************************************************************
;* FNAME: __isnormalf                   FR SIZE:   2           *
;*                                                             *
;* FUNCTION ENVIRONMENT                                        *
;*                                                             *
;* FUNCTION PROPERTIES                                         *
;*                            0 Parameter,  2 Auto,  0 SOE     *
;***************************************************************

||__isnormalf||:
	.dwcfi	cfa_offset, -2
	.dwcfi	save_reg_to_mem, 26, 0
        ADDB      SP,#2                 ; [CPU_ARAU] 
	.dwcfi	cfa_offset, -4
$C$DW$198	.dwtag  DW_TAG_variable
	.dwattr $C$DW$198, DW_AT_name("f")
	.dwattr $C$DW$198, DW_AT_type(*$C$DW$T$16)
	.dwattr $C$DW$198, DW_AT_location[DW_OP_breg20 -2]

        MOV32     *-SP[2],R0H           ; [CPU_FPU] |356| 
	.dwpsn	file "C:/ti/ccs1260/ccs/tools/compiler/ti-cgt-c2000_22.6.1.LTS/include/_defs.h",line 356,column 3,is_stmt,isa 0
        MOV       T,#23                 ; [CPU_ALU] |356| 
        MOVL      ACC,*-SP[2]           ; [CPU_ALU] |356| 
        MOVB      XAR6,#0               ; [CPU_ALU] |356| 
        LSRL      ACC,T                 ; [CPU_ALU] |356| 
        MOVB      AH,#0                 ; [CPU_ALU] |356| 
        ANDB      AL,#0xff              ; [CPU_ALU] |356| 
        CMPB      AL,#0                 ; [CPU_ALU] |356| 
        B         ||$C$L23||,NEQ        ; [CPU_ALU] |356| 
        ; branchcc occurs ; [] |356| 
        MOVB      AH,#1                 ; [CPU_ALU] |356| 
||$C$L23||:    
        CMPB      AH,#0                 ; [CPU_ALU] |356| 
        B         ||$C$L25||,NEQ        ; [CPU_ALU] |356| 
        ; branchcc occurs ; [] |356| 
        MOVL      P,*-SP[2]             ; [CPU_ALU] |356| 
        MOV       ACC,#32640            ; [CPU_ALU] |356| 
        AND       PH,#0x7f80            ; [CPU_ALU] |356| 
        MOVB      XAR7,#0               ; [CPU_ALU] |356| 
        MOV       PL,PH                 ; [CPU_ALU] |356| 
        MOV       PH,#0                 ; [CPU_ALU] |356| 
        CMPL      ACC,P                 ; [CPU_ALU] |356| 
        B         ||$C$L24||,NEQ        ; [CPU_ALU] |356| 
        ; branchcc occurs ; [] |356| 
        MOVB      XAR7,#1               ; [CPU_ALU] |356| 
||$C$L24||:    
        MOV       AH,AR7                ; [CPU_ALU] 
        B         ||$C$L25||,NEQ        ; [CPU_ALU] |356| 
        ; branchcc occurs ; [] |356| 
        MOVB      XAR6,#1               ; [CPU_ALU] |356| 
||$C$L25||:    
        MOV       AL,AR6                ; [CPU_ALU] |356| 
	.dwpsn	file "C:/ti/ccs1260/ccs/tools/compiler/ti-cgt-c2000_22.6.1.LTS/include/_defs.h",line 357,column 47,is_stmt,isa 0
        SUBB      SP,#2                 ; [CPU_ARAU] 
	.dwcfi	cfa_offset, -2
$C$DW$199	.dwtag  DW_TAG_TI_branch
	.dwattr $C$DW$199, DW_AT_low_pc(0x00)
	.dwattr $C$DW$199, DW_AT_TI_return

        LRETR     ; [CPU_ALU] 
        ; return occurs ; [] 
	.dwattr $C$DW$196, DW_AT_TI_end_file("C:/ti/ccs1260/ccs/tools/compiler/ti-cgt-c2000_22.6.1.LTS/include/_defs.h")
	.dwattr $C$DW$196, DW_AT_TI_end_line(0x165)
	.dwattr $C$DW$196, DW_AT_TI_end_column(0x2f)
	.dwendentry
	.dwendtag $C$DW$196

	.sect	".text:__isnormall"
	.clink
	.global	||__isnormall||

$C$DW$200	.dwtag  DW_TAG_subprogram
	.dwattr $C$DW$200, DW_AT_name("__isnormall")
	.dwattr $C$DW$200, DW_AT_low_pc(||__isnormall||)
	.dwattr $C$DW$200, DW_AT_high_pc(0x00)
	.dwattr $C$DW$200, DW_AT_linkage_name("__isnormall")
	.dwattr $C$DW$200, DW_AT_external
	.dwattr $C$DW$200, DW_AT_type(*$C$DW$T$10)
	.dwattr $C$DW$200, DW_AT_decl_file("C:/ti/ccs1260/ccs/tools/compiler/ti-cgt-c2000_22.6.1.LTS/include/_defs.h")
	.dwattr $C$DW$200, DW_AT_decl_line(0x167)
	.dwattr $C$DW$200, DW_AT_decl_column(0x18)
	.dwattr $C$DW$200, DW_AT_TI_max_frame_size(-10)
	.dwpsn	file "C:/ti/ccs1260/ccs/tools/compiler/ti-cgt-c2000_22.6.1.LTS/include/_defs.h",line 360,column 1,is_stmt,address ||__isnormall||,isa 0

	.dwfde $C$DW$CIE, ||__isnormall||
$C$DW$201	.dwtag  DW_TAG_formal_parameter
	.dwattr $C$DW$201, DW_AT_name("e")
	.dwattr $C$DW$201, DW_AT_type(*$C$DW$T$18)
	.dwattr $C$DW$201, DW_AT_location[DW_OP_regx 0x29]


;***************************************************************
;* FNAME: __isnormall                   FR SIZE:   8           *
;*                                                             *
;* FUNCTION ENVIRONMENT                                        *
;*                                                             *
;* FUNCTION PROPERTIES                                         *
;*                            4 Parameter,  4 Auto,  0 SOE     *
;***************************************************************

||__isnormall||:
	.dwcfi	cfa_offset, -2
	.dwcfi	save_reg_to_mem, 26, 0
        ADDB      SP,#8                 ; [CPU_ARAU] 
	.dwcfi	cfa_offset, -10
$C$DW$202	.dwtag  DW_TAG_variable
	.dwattr $C$DW$202, DW_AT_name("e")
	.dwattr $C$DW$202, DW_AT_type(*$C$DW$T$18)
	.dwattr $C$DW$202, DW_AT_location[DW_OP_breg20 -8]

        MOV32     *-SP[8],R0L           ; [CPU_FPU] |360| 
        MOV32     *-SP[6],R0H           ; [CPU_FPU] |360| 
	.dwpsn	file "C:/ti/ccs1260/ccs/tools/compiler/ti-cgt-c2000_22.6.1.LTS/include/_defs.h",line 360,column 3,is_stmt,isa 0
        MOVB      ACC,#0                ; [CPU_ALU] |360| 
        MOVL      *-SP[4],ACC           ; [CPU_ALU] |360| 
        MOV       *-SP[2],#0            ; [CPU_ALU] |360| 
        MOV       *-SP[1],#0            ; [CPU_ALU] |360| 
        MOV32     R0H,*-SP[6]           ; [CPU_FPU] |360| 
        MOV32     R0L,*-SP[8]           ; [CPU_FPU] |360| 
        MOV       T,#52                 ; [CPU_ALU] |360| 
        MOV32     P,R0L                 ; [CPU_FPU] |360| 
        MOV32     ACC,R0H               ; [CPU_FPU] |360| 
        LSR64     ACC:P,T               ; [CPU_ALU] |360| 
        ANDB      AL,#0                 ; [CPU_ALU] |360| 
        ANDB      AH,#0                 ; [CPU_ALU] |360| 
        AND       PL,#2047              ; [CPU_ALU] |360| 
        AND       PH,#0                 ; [CPU_ALU] |360| 
$C$DW$203	.dwtag  DW_TAG_TI_branch
	.dwattr $C$DW$203, DW_AT_low_pc(0x00)
	.dwattr $C$DW$203, DW_AT_name("__c28xabi_cmpull")
	.dwattr $C$DW$203, DW_AT_TI_call

        LCR       #||__c28xabi_cmpull|| ; [CPU_ALU] |360| 
        ; call occurs [#||__c28xabi_cmpull||] ; [] |360| 
        MOVB      XAR7,#0               ; [CPU_ALU] |360| 
        MOVB      AH,#0                 ; [CPU_ALU] |360| 
        CMPB      AL,#0                 ; [CPU_ALU] |360| 
        B         ||$C$L26||,NEQ        ; [CPU_ALU] |360| 
        ; branchcc occurs ; [] |360| 
        MOVB      AH,#1                 ; [CPU_ALU] |360| 
||$C$L26||:    
        CMPB      AH,#0                 ; [CPU_ALU] |360| 
        B         ||$C$L28||,NEQ        ; [CPU_ALU] |360| 
        ; branchcc occurs ; [] |360| 
        MOV32     R0H,*-SP[6]           ; [CPU_FPU] |360| 
        MOV       T,#48                 ; [CPU_ALU] |360| 
        MOV32     R0L,*-SP[8]           ; [CPU_FPU] |360| 
        MOVB      XAR6,#0               ; [CPU_ALU] |360| 
        MOV32     P,R0L                 ; [CPU_FPU] |360| 
        MOV32     ACC,R0H               ; [CPU_FPU] |360| 
        LSR64     ACC:P,T               ; [CPU_ALU] |360| 
        MOV       PH,#0                 ; [CPU_ALU] |360| 
        AND       PL,#0x7ff0            ; [CPU_ALU] |360| 
        MOV       ACC,#32752            ; [CPU_ALU] |360| 
        CMPL      ACC,P                 ; [CPU_ALU] |360| 
        B         ||$C$L27||,NEQ        ; [CPU_ALU] |360| 
        ; branchcc occurs ; [] |360| 
        MOVB      XAR6,#1               ; [CPU_ALU] |360| 
||$C$L27||:    
        MOV       AL,AR6                ; [CPU_ALU] 
        B         ||$C$L28||,NEQ        ; [CPU_ALU] |360| 
        ; branchcc occurs ; [] |360| 
        MOVB      XAR7,#1               ; [CPU_ALU] |360| 
||$C$L28||:    
        MOV       AL,AR7                ; [CPU_ALU] |360| 
	.dwpsn	file "C:/ti/ccs1260/ccs/tools/compiler/ti-cgt-c2000_22.6.1.LTS/include/_defs.h",line 361,column 49,is_stmt,isa 0
        SUBB      SP,#8                 ; [CPU_ARAU] 
	.dwcfi	cfa_offset, -2
$C$DW$204	.dwtag  DW_TAG_TI_branch
	.dwattr $C$DW$204, DW_AT_low_pc(0x00)
	.dwattr $C$DW$204, DW_AT_TI_return

        LRETR     ; [CPU_ALU] 
        ; return occurs ; [] 
	.dwattr $C$DW$200, DW_AT_TI_end_file("C:/ti/ccs1260/ccs/tools/compiler/ti-cgt-c2000_22.6.1.LTS/include/_defs.h")
	.dwattr $C$DW$200, DW_AT_TI_end_line(0x169)
	.dwattr $C$DW$200, DW_AT_TI_end_column(0x31)
	.dwendentry
	.dwendtag $C$DW$200

	.sect	".text:__signbit"
	.clink
	.global	||__signbit||

$C$DW$205	.dwtag  DW_TAG_subprogram
	.dwattr $C$DW$205, DW_AT_name("__signbit")
	.dwattr $C$DW$205, DW_AT_low_pc(||__signbit||)
	.dwattr $C$DW$205, DW_AT_high_pc(0x00)
	.dwattr $C$DW$205, DW_AT_linkage_name("__signbit")
	.dwattr $C$DW$205, DW_AT_external
	.dwattr $C$DW$205, DW_AT_type(*$C$DW$T$10)
	.dwattr $C$DW$205, DW_AT_decl_file("C:/ti/ccs1260/ccs/tools/compiler/ti-cgt-c2000_22.6.1.LTS/include/_defs.h")
	.dwattr $C$DW$205, DW_AT_decl_line(0x16b)
	.dwattr $C$DW$205, DW_AT_decl_column(0x18)
	.dwattr $C$DW$205, DW_AT_TI_max_frame_size(-10)
	.dwpsn	file "C:/ti/ccs1260/ccs/tools/compiler/ti-cgt-c2000_22.6.1.LTS/include/_defs.h",line 364,column 1,is_stmt,address ||__signbit||,isa 0

	.dwfde $C$DW$CIE, ||__signbit||
$C$DW$206	.dwtag  DW_TAG_formal_parameter
	.dwattr $C$DW$206, DW_AT_name("d")
	.dwattr $C$DW$206, DW_AT_type(*$C$DW$T$17)
	.dwattr $C$DW$206, DW_AT_location[DW_OP_regx 0x29]


;***************************************************************
;* FNAME: __signbit                     FR SIZE:   8           *
;*                                                             *
;* FUNCTION ENVIRONMENT                                        *
;*                                                             *
;* FUNCTION PROPERTIES                                         *
;*                            4 Parameter,  4 Auto,  0 SOE     *
;***************************************************************

||__signbit||:
	.dwcfi	cfa_offset, -2
	.dwcfi	save_reg_to_mem, 26, 0
        ADDB      SP,#8                 ; [CPU_ARAU] 
	.dwcfi	cfa_offset, -10
$C$DW$207	.dwtag  DW_TAG_variable
	.dwattr $C$DW$207, DW_AT_name("d")
	.dwattr $C$DW$207, DW_AT_type(*$C$DW$T$17)
	.dwattr $C$DW$207, DW_AT_location[DW_OP_breg20 -8]

        MOV32     *-SP[8],R0L           ; [CPU_FPU] |364| 
        MOV32     *-SP[6],R0H           ; [CPU_FPU] |364| 
	.dwpsn	file "C:/ti/ccs1260/ccs/tools/compiler/ti-cgt-c2000_22.6.1.LTS/include/_defs.h",line 364,column 3,is_stmt,isa 0
        MOVB      ACC,#0                ; [CPU_ALU] |364| 
        MOVL      *-SP[4],ACC           ; [CPU_ALU] |364| 
        MOV       *-SP[2],#0            ; [CPU_ALU] |364| 
        MOV       *-SP[1],#0            ; [CPU_ALU] |364| 
        MOV32     R0H,*-SP[6]           ; [CPU_FPU] |364| 
        MOV32     R0L,*-SP[8]           ; [CPU_FPU] |364| 
        NOP       ; [CPU_ALU] 
        MOV32     P,R0L                 ; [CPU_FPU] |364| 
        AND       PL,#0                 ; [CPU_ALU] |364| 
        AND       PH,#0                 ; [CPU_ALU] |364| 
        MOV32     ACC,R0H               ; [CPU_FPU] |364| 
        ANDB      AL,#0                 ; [CPU_ALU] |364| 
        AND       AH,#32768             ; [CPU_ALU] |364| 
$C$DW$208	.dwtag  DW_TAG_TI_branch
	.dwattr $C$DW$208, DW_AT_low_pc(0x00)
	.dwattr $C$DW$208, DW_AT_name("__c28xabi_cmpull")
	.dwattr $C$DW$208, DW_AT_TI_call

        LCR       #||__c28xabi_cmpull|| ; [CPU_ALU] |364| 
        ; call occurs [#||__c28xabi_cmpull||] ; [] |364| 
        MOVB      XAR6,#0               ; [CPU_ALU] |364| 
        MOVB      AH,#0                 ; [CPU_ALU] |364| 
        CMPB      AL,#0                 ; [CPU_ALU] |364| 
        B         ||$C$L29||,NEQ        ; [CPU_ALU] |364| 
        ; branchcc occurs ; [] |364| 
        MOVB      AH,#1                 ; [CPU_ALU] |364| 
||$C$L29||:    
        CMPB      AH,#0                 ; [CPU_ALU] |364| 
        B         ||$C$L30||,NEQ        ; [CPU_ALU] |364| 
        ; branchcc occurs ; [] |364| 
        MOVB      XAR6,#1               ; [CPU_ALU] |364| 
||$C$L30||:    
        MOV       AL,AR6                ; [CPU_ALU] |364| 
	.dwpsn	file "C:/ti/ccs1260/ccs/tools/compiler/ti-cgt-c2000_22.6.1.LTS/include/_defs.h",line 364,column 42,is_stmt,isa 0
        SUBB      SP,#8                 ; [CPU_ARAU] 
	.dwcfi	cfa_offset, -2
$C$DW$209	.dwtag  DW_TAG_TI_branch
	.dwattr $C$DW$209, DW_AT_low_pc(0x00)
	.dwattr $C$DW$209, DW_AT_TI_return

        LRETR     ; [CPU_ALU] 
        ; return occurs ; [] 
	.dwattr $C$DW$205, DW_AT_TI_end_file("C:/ti/ccs1260/ccs/tools/compiler/ti-cgt-c2000_22.6.1.LTS/include/_defs.h")
	.dwattr $C$DW$205, DW_AT_TI_end_line(0x16c)
	.dwattr $C$DW$205, DW_AT_TI_end_column(0x2a)
	.dwendentry
	.dwendtag $C$DW$205

	.sect	".text:__signbitf"
	.clink
	.global	||__signbitf||

$C$DW$210	.dwtag  DW_TAG_subprogram
	.dwattr $C$DW$210, DW_AT_name("__signbitf")
	.dwattr $C$DW$210, DW_AT_low_pc(||__signbitf||)
	.dwattr $C$DW$210, DW_AT_high_pc(0x00)
	.dwattr $C$DW$210, DW_AT_linkage_name("__signbitf")
	.dwattr $C$DW$210, DW_AT_external
	.dwattr $C$DW$210, DW_AT_type(*$C$DW$T$10)
	.dwattr $C$DW$210, DW_AT_decl_file("C:/ti/ccs1260/ccs/tools/compiler/ti-cgt-c2000_22.6.1.LTS/include/_defs.h")
	.dwattr $C$DW$210, DW_AT_decl_line(0x16d)
	.dwattr $C$DW$210, DW_AT_decl_column(0x18)
	.dwattr $C$DW$210, DW_AT_TI_max_frame_size(-4)
	.dwpsn	file "C:/ti/ccs1260/ccs/tools/compiler/ti-cgt-c2000_22.6.1.LTS/include/_defs.h",line 366,column 1,is_stmt,address ||__signbitf||,isa 0

	.dwfde $C$DW$CIE, ||__signbitf||
$C$DW$211	.dwtag  DW_TAG_formal_parameter
	.dwattr $C$DW$211, DW_AT_name("f")
	.dwattr $C$DW$211, DW_AT_type(*$C$DW$T$16)
	.dwattr $C$DW$211, DW_AT_location[DW_OP_regx 0x2b]


;***************************************************************
;* FNAME: __signbitf                    FR SIZE:   2           *
;*                                                             *
;* FUNCTION ENVIRONMENT                                        *
;*                                                             *
;* FUNCTION PROPERTIES                                         *
;*                            0 Parameter,  2 Auto,  0 SOE     *
;***************************************************************

||__signbitf||:
	.dwcfi	cfa_offset, -2
	.dwcfi	save_reg_to_mem, 26, 0
        ADDB      SP,#2                 ; [CPU_ARAU] 
	.dwcfi	cfa_offset, -4
$C$DW$212	.dwtag  DW_TAG_variable
	.dwattr $C$DW$212, DW_AT_name("f")
	.dwattr $C$DW$212, DW_AT_type(*$C$DW$T$16)
	.dwattr $C$DW$212, DW_AT_location[DW_OP_breg20 -2]

        MOV32     *-SP[2],R0H           ; [CPU_FPU] |366| 
	.dwpsn	file "C:/ti/ccs1260/ccs/tools/compiler/ti-cgt-c2000_22.6.1.LTS/include/_defs.h",line 366,column 3,is_stmt,isa 0
        MOVL      ACC,*-SP[2]           ; [CPU_ALU] |366| 
        MOVB      XAR6,#0               ; [CPU_ALU] |366| 
        MOVB      XAR7,#0               ; [CPU_ALU] |366| 
        ANDB      AL,#0                 ; [CPU_ALU] |366| 
        AND       AH,#32768             ; [CPU_ALU] |366| 
        TEST      ACC                   ; [CPU_ALU] |366| 
        B         ||$C$L31||,NEQ        ; [CPU_ALU] |366| 
        ; branchcc occurs ; [] |366| 
        MOVB      XAR7,#1               ; [CPU_ALU] |366| 
||$C$L31||:    
        MOV       AH,AR7                ; [CPU_ALU] 
        B         ||$C$L32||,NEQ        ; [CPU_ALU] |366| 
        ; branchcc occurs ; [] |366| 
        MOVB      XAR6,#1               ; [CPU_ALU] |366| 
||$C$L32||:    
        MOV       AL,AR6                ; [CPU_ALU] |366| 
	.dwpsn	file "C:/ti/ccs1260/ccs/tools/compiler/ti-cgt-c2000_22.6.1.LTS/include/_defs.h",line 366,column 41,is_stmt,isa 0
        SUBB      SP,#2                 ; [CPU_ARAU] 
	.dwcfi	cfa_offset, -2
$C$DW$213	.dwtag  DW_TAG_TI_branch
	.dwattr $C$DW$213, DW_AT_low_pc(0x00)
	.dwattr $C$DW$213, DW_AT_TI_return

        LRETR     ; [CPU_ALU] 
        ; return occurs ; [] 
	.dwattr $C$DW$210, DW_AT_TI_end_file("C:/ti/ccs1260/ccs/tools/compiler/ti-cgt-c2000_22.6.1.LTS/include/_defs.h")
	.dwattr $C$DW$210, DW_AT_TI_end_line(0x16e)
	.dwattr $C$DW$210, DW_AT_TI_end_column(0x29)
	.dwendentry
	.dwendtag $C$DW$210

	.sect	".text:__signbitl"
	.clink
	.global	||__signbitl||

$C$DW$214	.dwtag  DW_TAG_subprogram
	.dwattr $C$DW$214, DW_AT_name("__signbitl")
	.dwattr $C$DW$214, DW_AT_low_pc(||__signbitl||)
	.dwattr $C$DW$214, DW_AT_high_pc(0x00)
	.dwattr $C$DW$214, DW_AT_linkage_name("__signbitl")
	.dwattr $C$DW$214, DW_AT_external
	.dwattr $C$DW$214, DW_AT_type(*$C$DW$T$10)
	.dwattr $C$DW$214, DW_AT_decl_file("C:/ti/ccs1260/ccs/tools/compiler/ti-cgt-c2000_22.6.1.LTS/include/_defs.h")
	.dwattr $C$DW$214, DW_AT_decl_line(0x16f)
	.dwattr $C$DW$214, DW_AT_decl_column(0x18)
	.dwattr $C$DW$214, DW_AT_TI_max_frame_size(-10)
	.dwpsn	file "C:/ti/ccs1260/ccs/tools/compiler/ti-cgt-c2000_22.6.1.LTS/include/_defs.h",line 368,column 1,is_stmt,address ||__signbitl||,isa 0

	.dwfde $C$DW$CIE, ||__signbitl||
$C$DW$215	.dwtag  DW_TAG_formal_parameter
	.dwattr $C$DW$215, DW_AT_name("e")
	.dwattr $C$DW$215, DW_AT_type(*$C$DW$T$18)
	.dwattr $C$DW$215, DW_AT_location[DW_OP_regx 0x29]


;***************************************************************
;* FNAME: __signbitl                    FR SIZE:   8           *
;*                                                             *
;* FUNCTION ENVIRONMENT                                        *
;*                                                             *
;* FUNCTION PROPERTIES                                         *
;*                            4 Parameter,  4 Auto,  0 SOE     *
;***************************************************************

||__signbitl||:
	.dwcfi	cfa_offset, -2
	.dwcfi	save_reg_to_mem, 26, 0
        ADDB      SP,#8                 ; [CPU_ARAU] 
	.dwcfi	cfa_offset, -10
$C$DW$216	.dwtag  DW_TAG_variable
	.dwattr $C$DW$216, DW_AT_name("e")
	.dwattr $C$DW$216, DW_AT_type(*$C$DW$T$18)
	.dwattr $C$DW$216, DW_AT_location[DW_OP_breg20 -8]

        MOV32     *-SP[8],R0L           ; [CPU_FPU] |368| 
        MOV32     *-SP[6],R0H           ; [CPU_FPU] |368| 
	.dwpsn	file "C:/ti/ccs1260/ccs/tools/compiler/ti-cgt-c2000_22.6.1.LTS/include/_defs.h",line 368,column 3,is_stmt,isa 0
        MOVB      ACC,#0                ; [CPU_ALU] |368| 
        MOVL      *-SP[4],ACC           ; [CPU_ALU] |368| 
        MOV       *-SP[2],#0            ; [CPU_ALU] |368| 
        MOV       *-SP[1],#0            ; [CPU_ALU] |368| 
        MOV32     R0H,*-SP[6]           ; [CPU_FPU] |368| 
        MOV32     R0L,*-SP[8]           ; [CPU_FPU] |368| 
        NOP       ; [CPU_ALU] 
        MOV32     P,R0L                 ; [CPU_FPU] |368| 
        AND       PL,#0                 ; [CPU_ALU] |368| 
        AND       PH,#0                 ; [CPU_ALU] |368| 
        MOV32     ACC,R0H               ; [CPU_FPU] |368| 
        ANDB      AL,#0                 ; [CPU_ALU] |368| 
        AND       AH,#32768             ; [CPU_ALU] |368| 
$C$DW$217	.dwtag  DW_TAG_TI_branch
	.dwattr $C$DW$217, DW_AT_low_pc(0x00)
	.dwattr $C$DW$217, DW_AT_name("__c28xabi_cmpull")
	.dwattr $C$DW$217, DW_AT_TI_call

        LCR       #||__c28xabi_cmpull|| ; [CPU_ALU] |368| 
        ; call occurs [#||__c28xabi_cmpull||] ; [] |368| 
        MOVB      XAR6,#0               ; [CPU_ALU] |368| 
        MOVB      AH,#0                 ; [CPU_ALU] |368| 
        CMPB      AL,#0                 ; [CPU_ALU] |368| 
        B         ||$C$L33||,NEQ        ; [CPU_ALU] |368| 
        ; branchcc occurs ; [] |368| 
        MOVB      AH,#1                 ; [CPU_ALU] |368| 
||$C$L33||:    
        CMPB      AH,#0                 ; [CPU_ALU] |368| 
        B         ||$C$L34||,NEQ        ; [CPU_ALU] |368| 
        ; branchcc occurs ; [] |368| 
        MOVB      XAR6,#1               ; [CPU_ALU] |368| 
||$C$L34||:    
        MOV       AL,AR6                ; [CPU_ALU] |368| 
	.dwpsn	file "C:/ti/ccs1260/ccs/tools/compiler/ti-cgt-c2000_22.6.1.LTS/include/_defs.h",line 368,column 43,is_stmt,isa 0
        SUBB      SP,#8                 ; [CPU_ARAU] 
	.dwcfi	cfa_offset, -2
$C$DW$218	.dwtag  DW_TAG_TI_branch
	.dwattr $C$DW$218, DW_AT_low_pc(0x00)
	.dwattr $C$DW$218, DW_AT_TI_return

        LRETR     ; [CPU_ALU] 
        ; return occurs ; [] 
	.dwattr $C$DW$214, DW_AT_TI_end_file("C:/ti/ccs1260/ccs/tools/compiler/ti-cgt-c2000_22.6.1.LTS/include/_defs.h")
	.dwattr $C$DW$214, DW_AT_TI_end_line(0x170)
	.dwattr $C$DW$214, DW_AT_TI_end_column(0x2b)
	.dwendentry
	.dwendtag $C$DW$214

	.sect	".text:__isinff"
	.clink
	.global	||__isinff||

$C$DW$219	.dwtag  DW_TAG_subprogram
	.dwattr $C$DW$219, DW_AT_name("__isinff")
	.dwattr $C$DW$219, DW_AT_low_pc(||__isinff||)
	.dwattr $C$DW$219, DW_AT_high_pc(0x00)
	.dwattr $C$DW$219, DW_AT_linkage_name("__isinff")
	.dwattr $C$DW$219, DW_AT_external
	.dwattr $C$DW$219, DW_AT_type(*$C$DW$T$10)
	.dwattr $C$DW$219, DW_AT_decl_file("C:/ti/ccs1260/ccs/tools/compiler/ti-cgt-c2000_22.6.1.LTS/include/_defs.h")
	.dwattr $C$DW$219, DW_AT_decl_line(0x176)
	.dwattr $C$DW$219, DW_AT_decl_column(0x18)
	.dwattr $C$DW$219, DW_AT_TI_max_frame_size(-4)
	.dwpsn	file "C:/ti/ccs1260/ccs/tools/compiler/ti-cgt-c2000_22.6.1.LTS/include/_defs.h",line 375,column 1,is_stmt,address ||__isinff||,isa 0

	.dwfde $C$DW$CIE, ||__isinff||
$C$DW$220	.dwtag  DW_TAG_formal_parameter
	.dwattr $C$DW$220, DW_AT_name("f")
	.dwattr $C$DW$220, DW_AT_type(*$C$DW$T$16)
	.dwattr $C$DW$220, DW_AT_location[DW_OP_regx 0x2b]


;***************************************************************
;* FNAME: __isinff                      FR SIZE:   2           *
;*                                                             *
;* FUNCTION ENVIRONMENT                                        *
;*                                                             *
;* FUNCTION PROPERTIES                                         *
;*                            0 Parameter,  2 Auto,  0 SOE     *
;***************************************************************

||__isinff||:
	.dwcfi	cfa_offset, -2
	.dwcfi	save_reg_to_mem, 26, 0
        ADDB      SP,#2                 ; [CPU_ARAU] 
	.dwcfi	cfa_offset, -4
$C$DW$221	.dwtag  DW_TAG_variable
	.dwattr $C$DW$221, DW_AT_name("f")
	.dwattr $C$DW$221, DW_AT_type(*$C$DW$T$16)
	.dwattr $C$DW$221, DW_AT_location[DW_OP_breg20 -2]

        MOV32     *-SP[2],R0H           ; [CPU_FPU] |375| 
	.dwpsn	file "C:/ti/ccs1260/ccs/tools/compiler/ti-cgt-c2000_22.6.1.LTS/include/_defs.h",line 375,column 3,is_stmt,isa 0
        MOVL      ACC,*-SP[2]           ; [CPU_ALU] |375| 
        AND       AH,#0x7f80            ; [CPU_ALU] |375| 
        MOVZ      AR7,AH                ; [CPU_ALU] |375| 
        MOVB      XAR6,#0               ; [CPU_ALU] |375| 
        MOV       ACC,#32640            ; [CPU_ALU] |375| 
        CMPL      ACC,XAR7              ; [CPU_ALU] |375| 
        B         ||$C$L35||,NEQ        ; [CPU_ALU] |375| 
        ; branchcc occurs ; [] |375| 
        MOVL      ACC,*-SP[2]           ; [CPU_ALU] |375| 
        ANDB      AH,#127               ; [CPU_ALU] |375| 
        TEST      ACC                   ; [CPU_ALU] |375| 
        B         ||$C$L35||,NEQ        ; [CPU_ALU] |375| 
        ; branchcc occurs ; [] |375| 
        MOVB      XAR6,#1               ; [CPU_ALU] |375| 
||$C$L35||:    
        MOV       AL,AR6                ; [CPU_ALU] |375| 
	.dwpsn	file "C:/ti/ccs1260/ccs/tools/compiler/ti-cgt-c2000_22.6.1.LTS/include/_defs.h",line 375,column 72,is_stmt,isa 0
        SUBB      SP,#2                 ; [CPU_ARAU] 
	.dwcfi	cfa_offset, -2
$C$DW$222	.dwtag  DW_TAG_TI_branch
	.dwattr $C$DW$222, DW_AT_low_pc(0x00)
	.dwattr $C$DW$222, DW_AT_TI_return

        LRETR     ; [CPU_ALU] 
        ; return occurs ; [] 
	.dwattr $C$DW$219, DW_AT_TI_end_file("C:/ti/ccs1260/ccs/tools/compiler/ti-cgt-c2000_22.6.1.LTS/include/_defs.h")
	.dwattr $C$DW$219, DW_AT_TI_end_line(0x177)
	.dwattr $C$DW$219, DW_AT_TI_end_column(0x48)
	.dwendentry
	.dwendtag $C$DW$219

	.sect	".text:__isinf"
	.clink
	.global	||__isinf||

$C$DW$223	.dwtag  DW_TAG_subprogram
	.dwattr $C$DW$223, DW_AT_name("__isinf")
	.dwattr $C$DW$223, DW_AT_low_pc(||__isinf||)
	.dwattr $C$DW$223, DW_AT_high_pc(0x00)
	.dwattr $C$DW$223, DW_AT_linkage_name("__isinf")
	.dwattr $C$DW$223, DW_AT_external
	.dwattr $C$DW$223, DW_AT_type(*$C$DW$T$10)
	.dwattr $C$DW$223, DW_AT_decl_file("C:/ti/ccs1260/ccs/tools/compiler/ti-cgt-c2000_22.6.1.LTS/include/_defs.h")
	.dwattr $C$DW$223, DW_AT_decl_line(0x178)
	.dwattr $C$DW$223, DW_AT_decl_column(0x18)
	.dwattr $C$DW$223, DW_AT_TI_max_frame_size(-10)
	.dwpsn	file "C:/ti/ccs1260/ccs/tools/compiler/ti-cgt-c2000_22.6.1.LTS/include/_defs.h",line 377,column 1,is_stmt,address ||__isinf||,isa 0

	.dwfde $C$DW$CIE, ||__isinf||
$C$DW$224	.dwtag  DW_TAG_formal_parameter
	.dwattr $C$DW$224, DW_AT_name("d")
	.dwattr $C$DW$224, DW_AT_type(*$C$DW$T$17)
	.dwattr $C$DW$224, DW_AT_location[DW_OP_regx 0x29]


;***************************************************************
;* FNAME: __isinf                       FR SIZE:   8           *
;*                                                             *
;* FUNCTION ENVIRONMENT                                        *
;*                                                             *
;* FUNCTION PROPERTIES                                         *
;*                            4 Parameter,  4 Auto,  0 SOE     *
;***************************************************************

||__isinf||:
	.dwcfi	cfa_offset, -2
	.dwcfi	save_reg_to_mem, 26, 0
        ADDB      SP,#8                 ; [CPU_ARAU] 
	.dwcfi	cfa_offset, -10
$C$DW$225	.dwtag  DW_TAG_variable
	.dwattr $C$DW$225, DW_AT_name("d")
	.dwattr $C$DW$225, DW_AT_type(*$C$DW$T$17)
	.dwattr $C$DW$225, DW_AT_location[DW_OP_breg20 -8]

        MOV32     *-SP[8],R0L           ; [CPU_FPU] |377| 
        MOV32     *-SP[6],R0H           ; [CPU_FPU] |377| 
	.dwpsn	file "C:/ti/ccs1260/ccs/tools/compiler/ti-cgt-c2000_22.6.1.LTS/include/_defs.h",line 377,column 3,is_stmt,isa 0
        MOV       T,#48                 ; [CPU_ALU] |377| 
        MOV32     P,R0L                 ; [CPU_FPU] |377| 
        MOV32     ACC,R0H               ; [CPU_FPU] |377| 
        LSR64     ACC:P,T               ; [CPU_ALU] |377| 
        AND       PL,#0x7ff0            ; [CPU_ALU] |377| 
        MOVZ      AR6,PL                ; [CPU_ALU] |377| 
        MOV       ACC,#32752            ; [CPU_ALU] |377| 
        MOVB      XAR4,#0               ; [CPU_ALU] |377| 
        CMPL      ACC,XAR6              ; [CPU_ALU] |377| 
        B         ||$C$L36||,NEQ        ; [CPU_ALU] |377| 
        ; branchcc occurs ; [] |377| 
        MOVB      ACC,#0                ; [CPU_ALU] |377| 
        MOVL      *-SP[4],ACC           ; [CPU_ALU] |377| 
        MOV       *-SP[2],#0            ; [CPU_ALU] |377| 
        MOV       *-SP[1],#0            ; [CPU_ALU] |377| 
        MOV32     R0H,*-SP[6]           ; [CPU_FPU] |377| 
        MOV32     R0L,*-SP[8]           ; [CPU_FPU] |377| 
        NOP       ; [CPU_ALU] 
        MOV32     P,R0L                 ; [CPU_FPU] |377| 
        AND       PL,#65535             ; [CPU_ALU] |377| 
        AND       PH,#65535             ; [CPU_ALU] |377| 
        MOV32     ACC,R0H               ; [CPU_FPU] |377| 
        AND       AL,#65535             ; [CPU_ALU] |377| 
        ANDB      AH,#15                ; [CPU_ALU] |377| 
$C$DW$226	.dwtag  DW_TAG_TI_branch
	.dwattr $C$DW$226, DW_AT_low_pc(0x00)
	.dwattr $C$DW$226, DW_AT_name("__c28xabi_cmpull")
	.dwattr $C$DW$226, DW_AT_TI_call

        LCR       #||__c28xabi_cmpull|| ; [CPU_ALU] |377| 
        ; call occurs [#||__c28xabi_cmpull||] ; [] |377| 
        CMPB      AL,#0                 ; [CPU_ALU] |377| 
        B         ||$C$L36||,NEQ        ; [CPU_ALU] |377| 
        ; branchcc occurs ; [] |377| 
        MOVB      XAR4,#1               ; [CPU_ALU] |377| 
||$C$L36||:    
        MOV       AL,AR4                ; [CPU_ALU] |377| 
	.dwpsn	file "C:/ti/ccs1260/ccs/tools/compiler/ti-cgt-c2000_22.6.1.LTS/include/_defs.h",line 377,column 74,is_stmt,isa 0
        SUBB      SP,#8                 ; [CPU_ARAU] 
	.dwcfi	cfa_offset, -2
$C$DW$227	.dwtag  DW_TAG_TI_branch
	.dwattr $C$DW$227, DW_AT_low_pc(0x00)
	.dwattr $C$DW$227, DW_AT_TI_return

        LRETR     ; [CPU_ALU] 
        ; return occurs ; [] 
	.dwattr $C$DW$223, DW_AT_TI_end_file("C:/ti/ccs1260/ccs/tools/compiler/ti-cgt-c2000_22.6.1.LTS/include/_defs.h")
	.dwattr $C$DW$223, DW_AT_TI_end_line(0x179)
	.dwattr $C$DW$223, DW_AT_TI_end_column(0x4a)
	.dwendentry
	.dwendtag $C$DW$223

	.sect	".text:__isinfl"
	.clink
	.global	||__isinfl||

$C$DW$228	.dwtag  DW_TAG_subprogram
	.dwattr $C$DW$228, DW_AT_name("__isinfl")
	.dwattr $C$DW$228, DW_AT_low_pc(||__isinfl||)
	.dwattr $C$DW$228, DW_AT_high_pc(0x00)
	.dwattr $C$DW$228, DW_AT_linkage_name("__isinfl")
	.dwattr $C$DW$228, DW_AT_external
	.dwattr $C$DW$228, DW_AT_type(*$C$DW$T$10)
	.dwattr $C$DW$228, DW_AT_decl_file("C:/ti/ccs1260/ccs/tools/compiler/ti-cgt-c2000_22.6.1.LTS/include/_defs.h")
	.dwattr $C$DW$228, DW_AT_decl_line(0x17a)
	.dwattr $C$DW$228, DW_AT_decl_column(0x18)
	.dwattr $C$DW$228, DW_AT_TI_max_frame_size(-10)
	.dwpsn	file "C:/ti/ccs1260/ccs/tools/compiler/ti-cgt-c2000_22.6.1.LTS/include/_defs.h",line 379,column 1,is_stmt,address ||__isinfl||,isa 0

	.dwfde $C$DW$CIE, ||__isinfl||
$C$DW$229	.dwtag  DW_TAG_formal_parameter
	.dwattr $C$DW$229, DW_AT_name("e")
	.dwattr $C$DW$229, DW_AT_type(*$C$DW$T$18)
	.dwattr $C$DW$229, DW_AT_location[DW_OP_regx 0x29]


;***************************************************************
;* FNAME: __isinfl                      FR SIZE:   8           *
;*                                                             *
;* FUNCTION ENVIRONMENT                                        *
;*                                                             *
;* FUNCTION PROPERTIES                                         *
;*                            4 Parameter,  4 Auto,  0 SOE     *
;***************************************************************

||__isinfl||:
	.dwcfi	cfa_offset, -2
	.dwcfi	save_reg_to_mem, 26, 0
        ADDB      SP,#8                 ; [CPU_ARAU] 
	.dwcfi	cfa_offset, -10
$C$DW$230	.dwtag  DW_TAG_variable
	.dwattr $C$DW$230, DW_AT_name("e")
	.dwattr $C$DW$230, DW_AT_type(*$C$DW$T$18)
	.dwattr $C$DW$230, DW_AT_location[DW_OP_breg20 -8]

        MOV32     *-SP[8],R0L           ; [CPU_FPU] |379| 
        MOV32     *-SP[6],R0H           ; [CPU_FPU] |379| 
	.dwpsn	file "C:/ti/ccs1260/ccs/tools/compiler/ti-cgt-c2000_22.6.1.LTS/include/_defs.h",line 379,column 3,is_stmt,isa 0
        MOV       T,#48                 ; [CPU_ALU] |379| 
        MOV32     P,R0L                 ; [CPU_FPU] |379| 
        MOV32     ACC,R0H               ; [CPU_FPU] |379| 
        LSR64     ACC:P,T               ; [CPU_ALU] |379| 
        AND       PL,#0x7ff0            ; [CPU_ALU] |379| 
        MOVZ      AR6,PL                ; [CPU_ALU] |379| 
        MOV       ACC,#32752            ; [CPU_ALU] |379| 
        MOVB      XAR4,#0               ; [CPU_ALU] |379| 
        CMPL      ACC,XAR6              ; [CPU_ALU] |379| 
        B         ||$C$L37||,NEQ        ; [CPU_ALU] |379| 
        ; branchcc occurs ; [] |379| 
        MOVB      ACC,#0                ; [CPU_ALU] |379| 
        MOVL      *-SP[4],ACC           ; [CPU_ALU] |379| 
        MOV       *-SP[2],#0            ; [CPU_ALU] |379| 
        MOV       *-SP[1],#0            ; [CPU_ALU] |379| 
        MOV32     R0H,*-SP[6]           ; [CPU_FPU] |379| 
        MOV32     R0L,*-SP[8]           ; [CPU_FPU] |379| 
        NOP       ; [CPU_ALU] 
        MOV32     P,R0L                 ; [CPU_FPU] |379| 
        AND       PL,#65535             ; [CPU_ALU] |379| 
        AND       PH,#65535             ; [CPU_ALU] |379| 
        MOV32     ACC,R0H               ; [CPU_FPU] |379| 
        AND       AL,#65535             ; [CPU_ALU] |379| 
        ANDB      AH,#15                ; [CPU_ALU] |379| 
$C$DW$231	.dwtag  DW_TAG_TI_branch
	.dwattr $C$DW$231, DW_AT_low_pc(0x00)
	.dwattr $C$DW$231, DW_AT_name("__c28xabi_cmpull")
	.dwattr $C$DW$231, DW_AT_TI_call

        LCR       #||__c28xabi_cmpull|| ; [CPU_ALU] |379| 
        ; call occurs [#||__c28xabi_cmpull||] ; [] |379| 
        CMPB      AL,#0                 ; [CPU_ALU] |379| 
        B         ||$C$L37||,NEQ        ; [CPU_ALU] |379| 
        ; branchcc occurs ; [] |379| 
        MOVB      XAR4,#1               ; [CPU_ALU] |379| 
||$C$L37||:    
        MOV       AL,AR4                ; [CPU_ALU] |379| 
	.dwpsn	file "C:/ti/ccs1260/ccs/tools/compiler/ti-cgt-c2000_22.6.1.LTS/include/_defs.h",line 379,column 76,is_stmt,isa 0
        SUBB      SP,#8                 ; [CPU_ARAU] 
	.dwcfi	cfa_offset, -2
$C$DW$232	.dwtag  DW_TAG_TI_branch
	.dwattr $C$DW$232, DW_AT_low_pc(0x00)
	.dwattr $C$DW$232, DW_AT_TI_return

        LRETR     ; [CPU_ALU] 
        ; return occurs ; [] 
	.dwattr $C$DW$228, DW_AT_TI_end_file("C:/ti/ccs1260/ccs/tools/compiler/ti-cgt-c2000_22.6.1.LTS/include/_defs.h")
	.dwattr $C$DW$228, DW_AT_TI_end_line(0x17b)
	.dwattr $C$DW$228, DW_AT_TI_end_column(0x4c)
	.dwendentry
	.dwendtag $C$DW$228

	.sect	".text:__fpclassifyf"
	.clink
	.global	||__fpclassifyf||

$C$DW$233	.dwtag  DW_TAG_subprogram
	.dwattr $C$DW$233, DW_AT_name("__fpclassifyf")
	.dwattr $C$DW$233, DW_AT_low_pc(||__fpclassifyf||)
	.dwattr $C$DW$233, DW_AT_high_pc(0x00)
	.dwattr $C$DW$233, DW_AT_linkage_name("__fpclassifyf")
	.dwattr $C$DW$233, DW_AT_external
	.dwattr $C$DW$233, DW_AT_type(*$C$DW$T$10)
	.dwattr $C$DW$233, DW_AT_decl_file("C:/ti/ccs1260/ccs/tools/compiler/ti-cgt-c2000_22.6.1.LTS/include/_defs.h")
	.dwattr $C$DW$233, DW_AT_decl_line(0x18c)
	.dwattr $C$DW$233, DW_AT_decl_column(0x18)
	.dwattr $C$DW$233, DW_AT_TI_max_frame_size(-4)
	.dwpsn	file "C:/ti/ccs1260/ccs/tools/compiler/ti-cgt-c2000_22.6.1.LTS/include/_defs.h",line 397,column 1,is_stmt,address ||__fpclassifyf||,isa 0

	.dwfde $C$DW$CIE, ||__fpclassifyf||
$C$DW$234	.dwtag  DW_TAG_formal_parameter
	.dwattr $C$DW$234, DW_AT_name("f")
	.dwattr $C$DW$234, DW_AT_type(*$C$DW$T$16)
	.dwattr $C$DW$234, DW_AT_location[DW_OP_regx 0x2b]


;***************************************************************
;* FNAME: __fpclassifyf                 FR SIZE:   2           *
;*                                                             *
;* FUNCTION ENVIRONMENT                                        *
;*                                                             *
;* FUNCTION PROPERTIES                                         *
;*                            0 Parameter,  2 Auto,  0 SOE     *
;***************************************************************

||__fpclassifyf||:
	.dwcfi	cfa_offset, -2
	.dwcfi	save_reg_to_mem, 26, 0
        ADDB      SP,#2                 ; [CPU_ARAU] 
	.dwcfi	cfa_offset, -4
$C$DW$235	.dwtag  DW_TAG_variable
	.dwattr $C$DW$235, DW_AT_name("f")
	.dwattr $C$DW$235, DW_AT_type(*$C$DW$T$16)
	.dwattr $C$DW$235, DW_AT_location[DW_OP_breg20 -2]

        MOV32     *-SP[2],R0H           ; [CPU_FPU] |397| 
	.dwpsn	file "C:/ti/ccs1260/ccs/tools/compiler/ti-cgt-c2000_22.6.1.LTS/include/_defs.h",line 398,column 5,is_stmt,isa 0
        MOVL      ACC,*-SP[2]           ; [CPU_ALU] |398| 
        AND       AH,#0x7f80            ; [CPU_ALU] |398| 
        MOVZ      AR6,AH                ; [CPU_ALU] |398| 
        MOV       ACC,#32640            ; [CPU_ALU] |398| 
        CMPL      ACC,XAR6              ; [CPU_ALU] |398| 
        B         ||$C$L39||,NEQ        ; [CPU_ALU] |398| 
        ; branchcc occurs ; [] |398| 
	.dwpsn	file "C:/ti/ccs1260/ccs/tools/compiler/ti-cgt-c2000_22.6.1.LTS/include/_defs.h",line 400,column 9,is_stmt,isa 0
        MOVL      ACC,*-SP[2]           ; [CPU_ALU] |400| 
        ANDB      AH,#127               ; [CPU_ALU] |400| 
        TEST      ACC                   ; [CPU_ALU] |400| 
        B         ||$C$L38||,NEQ        ; [CPU_ALU] |400| 
        ; branchcc occurs ; [] |400| 
	.dwpsn	file "C:/ti/ccs1260/ccs/tools/compiler/ti-cgt-c2000_22.6.1.LTS/include/_defs.h",line 401,column 13,is_stmt,isa 0
        MOVB      AL,#1                 ; [CPU_ALU] |401| 
        B         ||$C$L42||,UNC        ; [CPU_ALU] |401| 
        ; branch occurs ; [] |401| 
||$C$L38||:    
	.dwpsn	file "C:/ti/ccs1260/ccs/tools/compiler/ti-cgt-c2000_22.6.1.LTS/include/_defs.h",line 402,column 14,is_stmt,isa 0
        MOVB      AL,#2                 ; [CPU_ALU] |402| 
        B         ||$C$L42||,UNC        ; [CPU_ALU] |402| 
        ; branch occurs ; [] |402| 
||$C$L39||:    
	.dwpsn	file "C:/ti/ccs1260/ccs/tools/compiler/ti-cgt-c2000_22.6.1.LTS/include/_defs.h",line 404,column 5,is_stmt,isa 0
        MOVL      ACC,*-SP[2]           ; [CPU_ALU] |404| 
        MOV       T,#23                 ; [CPU_ALU] |404| 
        LSRL      ACC,T                 ; [CPU_ALU] |404| 
        ANDB      AL,#0xff              ; [CPU_ALU] |404| 
        B         ||$C$L41||,NEQ        ; [CPU_ALU] |404| 
        ; branchcc occurs ; [] |404| 
	.dwpsn	file "C:/ti/ccs1260/ccs/tools/compiler/ti-cgt-c2000_22.6.1.LTS/include/_defs.h",line 406,column 9,is_stmt,isa 0
        MOVL      ACC,*-SP[2]           ; [CPU_ALU] |406| 
        ANDB      AH,#127               ; [CPU_ALU] |406| 
        TEST      ACC                   ; [CPU_ALU] |406| 
        B         ||$C$L40||,NEQ        ; [CPU_ALU] |406| 
        ; branchcc occurs ; [] |406| 
	.dwpsn	file "C:/ti/ccs1260/ccs/tools/compiler/ti-cgt-c2000_22.6.1.LTS/include/_defs.h",line 407,column 13,is_stmt,isa 0
        MOVB      AL,#0                 ; [CPU_ALU] |407| 
        B         ||$C$L42||,UNC        ; [CPU_ALU] |407| 
        ; branch occurs ; [] |407| 
||$C$L40||:    
	.dwpsn	file "C:/ti/ccs1260/ccs/tools/compiler/ti-cgt-c2000_22.6.1.LTS/include/_defs.h",line 408,column 14,is_stmt,isa 0
        MOV       AL,#-2                ; [CPU_ALU] |408| 
        B         ||$C$L42||,UNC        ; [CPU_ALU] |408| 
        ; branch occurs ; [] |408| 
||$C$L41||:    
	.dwpsn	file "C:/ti/ccs1260/ccs/tools/compiler/ti-cgt-c2000_22.6.1.LTS/include/_defs.h",line 410,column 5,is_stmt,isa 0
        MOV       AL,#-1                ; [CPU_ALU] |410| 
||$C$L42||:    
	.dwpsn	file "C:/ti/ccs1260/ccs/tools/compiler/ti-cgt-c2000_22.6.1.LTS/include/_defs.h",line 411,column 1,is_stmt,isa 0
        SUBB      SP,#2                 ; [CPU_ARAU] 
	.dwcfi	cfa_offset, -2
$C$DW$236	.dwtag  DW_TAG_TI_branch
	.dwattr $C$DW$236, DW_AT_low_pc(0x00)
	.dwattr $C$DW$236, DW_AT_TI_return

        LRETR     ; [CPU_ALU] 
        ; return occurs ; [] 
	.dwattr $C$DW$233, DW_AT_TI_end_file("C:/ti/ccs1260/ccs/tools/compiler/ti-cgt-c2000_22.6.1.LTS/include/_defs.h")
	.dwattr $C$DW$233, DW_AT_TI_end_line(0x19b)
	.dwattr $C$DW$233, DW_AT_TI_end_column(0x01)
	.dwendentry
	.dwendtag $C$DW$233

	.sect	".text:__fpclassify"
	.clink
	.global	||__fpclassify||

$C$DW$237	.dwtag  DW_TAG_subprogram
	.dwattr $C$DW$237, DW_AT_name("__fpclassify")
	.dwattr $C$DW$237, DW_AT_low_pc(||__fpclassify||)
	.dwattr $C$DW$237, DW_AT_high_pc(0x00)
	.dwattr $C$DW$237, DW_AT_linkage_name("__fpclassify")
	.dwattr $C$DW$237, DW_AT_external
	.dwattr $C$DW$237, DW_AT_type(*$C$DW$T$10)
	.dwattr $C$DW$237, DW_AT_decl_file("C:/ti/ccs1260/ccs/tools/compiler/ti-cgt-c2000_22.6.1.LTS/include/_defs.h")
	.dwattr $C$DW$237, DW_AT_decl_line(0x19d)
	.dwattr $C$DW$237, DW_AT_decl_column(0x18)
	.dwattr $C$DW$237, DW_AT_TI_max_frame_size(-10)
	.dwpsn	file "C:/ti/ccs1260/ccs/tools/compiler/ti-cgt-c2000_22.6.1.LTS/include/_defs.h",line 414,column 1,is_stmt,address ||__fpclassify||,isa 0

	.dwfde $C$DW$CIE, ||__fpclassify||
$C$DW$238	.dwtag  DW_TAG_formal_parameter
	.dwattr $C$DW$238, DW_AT_name("d")
	.dwattr $C$DW$238, DW_AT_type(*$C$DW$T$17)
	.dwattr $C$DW$238, DW_AT_location[DW_OP_regx 0x29]


;***************************************************************
;* FNAME: __fpclassify                  FR SIZE:   8           *
;*                                                             *
;* FUNCTION ENVIRONMENT                                        *
;*                                                             *
;* FUNCTION PROPERTIES                                         *
;*                            4 Parameter,  4 Auto,  0 SOE     *
;***************************************************************

||__fpclassify||:
	.dwcfi	cfa_offset, -2
	.dwcfi	save_reg_to_mem, 26, 0
        ADDB      SP,#8                 ; [CPU_ARAU] 
	.dwcfi	cfa_offset, -10
$C$DW$239	.dwtag  DW_TAG_variable
	.dwattr $C$DW$239, DW_AT_name("d")
	.dwattr $C$DW$239, DW_AT_type(*$C$DW$T$17)
	.dwattr $C$DW$239, DW_AT_location[DW_OP_breg20 -8]

        MOV32     *-SP[8],R0L           ; [CPU_FPU] |414| 
        MOV32     *-SP[6],R0H           ; [CPU_FPU] |414| 
	.dwpsn	file "C:/ti/ccs1260/ccs/tools/compiler/ti-cgt-c2000_22.6.1.LTS/include/_defs.h",line 415,column 5,is_stmt,isa 0
        MOV       T,#48                 ; [CPU_ALU] |415| 
        MOV32     P,R0L                 ; [CPU_FPU] |415| 
        MOV32     ACC,R0H               ; [CPU_FPU] |415| 
        LSR64     ACC:P,T               ; [CPU_ALU] |415| 
        AND       PL,#0x7ff0            ; [CPU_ALU] |415| 
        MOVZ      AR6,PL                ; [CPU_ALU] |415| 
        MOV       ACC,#32752            ; [CPU_ALU] |415| 
        CMPL      ACC,XAR6              ; [CPU_ALU] |415| 
        B         ||$C$L44||,NEQ        ; [CPU_ALU] |415| 
        ; branchcc occurs ; [] |415| 
	.dwpsn	file "C:/ti/ccs1260/ccs/tools/compiler/ti-cgt-c2000_22.6.1.LTS/include/_defs.h",line 417,column 9,is_stmt,isa 0
        MOVB      ACC,#0                ; [CPU_ALU] |417| 
        MOVL      *-SP[4],ACC           ; [CPU_ALU] |417| 
        MOV       *-SP[2],#0            ; [CPU_ALU] |417| 
        MOV       *-SP[1],#0            ; [CPU_ALU] |417| 
        MOV32     R0H,*-SP[6]           ; [CPU_FPU] |417| 
        MOV32     R0L,*-SP[8]           ; [CPU_FPU] |417| 
        NOP       ; [CPU_ALU] 
        MOV32     P,R0L                 ; [CPU_FPU] |417| 
        AND       PL,#65535             ; [CPU_ALU] |417| 
        AND       PH,#65535             ; [CPU_ALU] |417| 
        MOV32     ACC,R0H               ; [CPU_FPU] |417| 
        AND       AL,#65535             ; [CPU_ALU] |417| 
        ANDB      AH,#15                ; [CPU_ALU] |417| 
$C$DW$240	.dwtag  DW_TAG_TI_branch
	.dwattr $C$DW$240, DW_AT_low_pc(0x00)
	.dwattr $C$DW$240, DW_AT_name("__c28xabi_cmpull")
	.dwattr $C$DW$240, DW_AT_TI_call

        LCR       #||__c28xabi_cmpull|| ; [CPU_ALU] |417| 
        ; call occurs [#||__c28xabi_cmpull||] ; [] |417| 
        CMPB      AL,#0                 ; [CPU_ALU] |417| 
        B         ||$C$L43||,NEQ        ; [CPU_ALU] |417| 
        ; branchcc occurs ; [] |417| 
	.dwpsn	file "C:/ti/ccs1260/ccs/tools/compiler/ti-cgt-c2000_22.6.1.LTS/include/_defs.h",line 418,column 13,is_stmt,isa 0
        MOVB      AL,#1                 ; [CPU_ALU] |418| 
        B         ||$C$L47||,UNC        ; [CPU_ALU] |418| 
        ; branch occurs ; [] |418| 
||$C$L43||:    
	.dwpsn	file "C:/ti/ccs1260/ccs/tools/compiler/ti-cgt-c2000_22.6.1.LTS/include/_defs.h",line 419,column 14,is_stmt,isa 0
        MOVB      AL,#2                 ; [CPU_ALU] |419| 
        B         ||$C$L47||,UNC        ; [CPU_ALU] |419| 
        ; branch occurs ; [] |419| 
||$C$L44||:    
	.dwpsn	file "C:/ti/ccs1260/ccs/tools/compiler/ti-cgt-c2000_22.6.1.LTS/include/_defs.h",line 421,column 5,is_stmt,isa 0
        MOVB      ACC,#0                ; [CPU_ALU] |421| 
        MOVL      *-SP[4],ACC           ; [CPU_ALU] |421| 
        MOV       *-SP[2],#0            ; [CPU_ALU] |421| 
        MOV       *-SP[1],#0            ; [CPU_ALU] |421| 
        MOV32     R0H,*-SP[6]           ; [CPU_FPU] |421| 
        MOV32     R0L,*-SP[8]           ; [CPU_FPU] |421| 
        MOV       T,#52                 ; [CPU_ALU] |421| 
        MOV32     P,R0L                 ; [CPU_FPU] |421| 
        MOV32     ACC,R0H               ; [CPU_FPU] |421| 
        LSR64     ACC:P,T               ; [CPU_ALU] |421| 
        ANDB      AL,#0                 ; [CPU_ALU] |421| 
        ANDB      AH,#0                 ; [CPU_ALU] |421| 
        AND       PL,#2047              ; [CPU_ALU] |421| 
        AND       PH,#0                 ; [CPU_ALU] |421| 
$C$DW$241	.dwtag  DW_TAG_TI_branch
	.dwattr $C$DW$241, DW_AT_low_pc(0x00)
	.dwattr $C$DW$241, DW_AT_name("__c28xabi_cmpull")
	.dwattr $C$DW$241, DW_AT_TI_call

        LCR       #||__c28xabi_cmpull|| ; [CPU_ALU] |421| 
        ; call occurs [#||__c28xabi_cmpull||] ; [] |421| 
        CMPB      AL,#0                 ; [CPU_ALU] |421| 
        B         ||$C$L46||,NEQ        ; [CPU_ALU] |421| 
        ; branchcc occurs ; [] |421| 
	.dwpsn	file "C:/ti/ccs1260/ccs/tools/compiler/ti-cgt-c2000_22.6.1.LTS/include/_defs.h",line 423,column 9,is_stmt,isa 0
        MOVB      ACC,#0                ; [CPU_ALU] |423| 
        MOVL      *-SP[4],ACC           ; [CPU_ALU] |423| 
        MOV       *-SP[2],#0            ; [CPU_ALU] |423| 
        MOV       *-SP[1],#0            ; [CPU_ALU] |423| 
        MOV32     R0H,*-SP[6]           ; [CPU_FPU] |423| 
        MOV32     R0L,*-SP[8]           ; [CPU_FPU] |423| 
        NOP       ; [CPU_ALU] 
        MOV32     P,R0L                 ; [CPU_FPU] |423| 
        AND       PL,#65535             ; [CPU_ALU] |423| 
        AND       PH,#65535             ; [CPU_ALU] |423| 
        MOV32     ACC,R0H               ; [CPU_FPU] |423| 
        AND       AL,#65535             ; [CPU_ALU] |423| 
        ANDB      AH,#15                ; [CPU_ALU] |423| 
$C$DW$242	.dwtag  DW_TAG_TI_branch
	.dwattr $C$DW$242, DW_AT_low_pc(0x00)
	.dwattr $C$DW$242, DW_AT_name("__c28xabi_cmpull")
	.dwattr $C$DW$242, DW_AT_TI_call

        LCR       #||__c28xabi_cmpull|| ; [CPU_ALU] |423| 
        ; call occurs [#||__c28xabi_cmpull||] ; [] |423| 
        CMPB      AL,#0                 ; [CPU_ALU] |423| 
        B         ||$C$L45||,NEQ        ; [CPU_ALU] |423| 
        ; branchcc occurs ; [] |423| 
	.dwpsn	file "C:/ti/ccs1260/ccs/tools/compiler/ti-cgt-c2000_22.6.1.LTS/include/_defs.h",line 424,column 13,is_stmt,isa 0
        MOVB      AL,#0                 ; [CPU_ALU] |424| 
        B         ||$C$L47||,UNC        ; [CPU_ALU] |424| 
        ; branch occurs ; [] |424| 
||$C$L45||:    
	.dwpsn	file "C:/ti/ccs1260/ccs/tools/compiler/ti-cgt-c2000_22.6.1.LTS/include/_defs.h",line 425,column 14,is_stmt,isa 0
        MOV       AL,#-2                ; [CPU_ALU] |425| 
        B         ||$C$L47||,UNC        ; [CPU_ALU] |425| 
        ; branch occurs ; [] |425| 
||$C$L46||:    
	.dwpsn	file "C:/ti/ccs1260/ccs/tools/compiler/ti-cgt-c2000_22.6.1.LTS/include/_defs.h",line 427,column 5,is_stmt,isa 0
        MOV       AL,#-1                ; [CPU_ALU] |427| 
||$C$L47||:    
	.dwpsn	file "C:/ti/ccs1260/ccs/tools/compiler/ti-cgt-c2000_22.6.1.LTS/include/_defs.h",line 428,column 1,is_stmt,isa 0
        SUBB      SP,#8                 ; [CPU_ARAU] 
	.dwcfi	cfa_offset, -2
$C$DW$243	.dwtag  DW_TAG_TI_branch
	.dwattr $C$DW$243, DW_AT_low_pc(0x00)
	.dwattr $C$DW$243, DW_AT_TI_return

        LRETR     ; [CPU_ALU] 
        ; return occurs ; [] 
	.dwattr $C$DW$237, DW_AT_TI_end_file("C:/ti/ccs1260/ccs/tools/compiler/ti-cgt-c2000_22.6.1.LTS/include/_defs.h")
	.dwattr $C$DW$237, DW_AT_TI_end_line(0x1ac)
	.dwattr $C$DW$237, DW_AT_TI_end_column(0x01)
	.dwendentry
	.dwendtag $C$DW$237

	.sect	".text:__fpclassifyl"
	.clink
	.global	||__fpclassifyl||

$C$DW$244	.dwtag  DW_TAG_subprogram
	.dwattr $C$DW$244, DW_AT_name("__fpclassifyl")
	.dwattr $C$DW$244, DW_AT_low_pc(||__fpclassifyl||)
	.dwattr $C$DW$244, DW_AT_high_pc(0x00)
	.dwattr $C$DW$244, DW_AT_linkage_name("__fpclassifyl")
	.dwattr $C$DW$244, DW_AT_external
	.dwattr $C$DW$244, DW_AT_type(*$C$DW$T$10)
	.dwattr $C$DW$244, DW_AT_decl_file("C:/ti/ccs1260/ccs/tools/compiler/ti-cgt-c2000_22.6.1.LTS/include/_defs.h")
	.dwattr $C$DW$244, DW_AT_decl_line(0x1ae)
	.dwattr $C$DW$244, DW_AT_decl_column(0x18)
	.dwattr $C$DW$244, DW_AT_TI_max_frame_size(-10)
	.dwpsn	file "C:/ti/ccs1260/ccs/tools/compiler/ti-cgt-c2000_22.6.1.LTS/include/_defs.h",line 431,column 1,is_stmt,address ||__fpclassifyl||,isa 0

	.dwfde $C$DW$CIE, ||__fpclassifyl||
$C$DW$245	.dwtag  DW_TAG_formal_parameter
	.dwattr $C$DW$245, DW_AT_name("e")
	.dwattr $C$DW$245, DW_AT_type(*$C$DW$T$18)
	.dwattr $C$DW$245, DW_AT_location[DW_OP_regx 0x29]


;***************************************************************
;* FNAME: __fpclassifyl                 FR SIZE:   8           *
;*                                                             *
;* FUNCTION ENVIRONMENT                                        *
;*                                                             *
;* FUNCTION PROPERTIES                                         *
;*                            4 Parameter,  4 Auto,  0 SOE     *
;***************************************************************

||__fpclassifyl||:
	.dwcfi	cfa_offset, -2
	.dwcfi	save_reg_to_mem, 26, 0
        ADDB      SP,#8                 ; [CPU_ARAU] 
	.dwcfi	cfa_offset, -10
$C$DW$246	.dwtag  DW_TAG_variable
	.dwattr $C$DW$246, DW_AT_name("e")
	.dwattr $C$DW$246, DW_AT_type(*$C$DW$T$18)
	.dwattr $C$DW$246, DW_AT_location[DW_OP_breg20 -8]

        MOV32     *-SP[8],R0L           ; [CPU_FPU] |431| 
        MOV32     *-SP[6],R0H           ; [CPU_FPU] |431| 
	.dwpsn	file "C:/ti/ccs1260/ccs/tools/compiler/ti-cgt-c2000_22.6.1.LTS/include/_defs.h",line 432,column 5,is_stmt,isa 0
        MOV       T,#48                 ; [CPU_ALU] |432| 
        MOV32     P,R0L                 ; [CPU_FPU] |432| 
        MOV32     ACC,R0H               ; [CPU_FPU] |432| 
        LSR64     ACC:P,T               ; [CPU_ALU] |432| 
        AND       PL,#0x7ff0            ; [CPU_ALU] |432| 
        MOVZ      AR6,PL                ; [CPU_ALU] |432| 
        MOV       ACC,#32752            ; [CPU_ALU] |432| 
        CMPL      ACC,XAR6              ; [CPU_ALU] |432| 
        B         ||$C$L49||,NEQ        ; [CPU_ALU] |432| 
        ; branchcc occurs ; [] |432| 
	.dwpsn	file "C:/ti/ccs1260/ccs/tools/compiler/ti-cgt-c2000_22.6.1.LTS/include/_defs.h",line 434,column 9,is_stmt,isa 0
        MOVB      ACC,#0                ; [CPU_ALU] |434| 
        MOVL      *-SP[4],ACC           ; [CPU_ALU] |434| 
        MOV       *-SP[2],#0            ; [CPU_ALU] |434| 
        MOV       *-SP[1],#0            ; [CPU_ALU] |434| 
        MOV32     R0H,*-SP[6]           ; [CPU_FPU] |434| 
        MOV32     R0L,*-SP[8]           ; [CPU_FPU] |434| 
        NOP       ; [CPU_ALU] 
        MOV32     P,R0L                 ; [CPU_FPU] |434| 
        AND       PL,#65535             ; [CPU_ALU] |434| 
        AND       PH,#65535             ; [CPU_ALU] |434| 
        MOV32     ACC,R0H               ; [CPU_FPU] |434| 
        AND       AL,#65535             ; [CPU_ALU] |434| 
        ANDB      AH,#15                ; [CPU_ALU] |434| 
$C$DW$247	.dwtag  DW_TAG_TI_branch
	.dwattr $C$DW$247, DW_AT_low_pc(0x00)
	.dwattr $C$DW$247, DW_AT_name("__c28xabi_cmpull")
	.dwattr $C$DW$247, DW_AT_TI_call

        LCR       #||__c28xabi_cmpull|| ; [CPU_ALU] |434| 
        ; call occurs [#||__c28xabi_cmpull||] ; [] |434| 
        CMPB      AL,#0                 ; [CPU_ALU] |434| 
        B         ||$C$L48||,NEQ        ; [CPU_ALU] |434| 
        ; branchcc occurs ; [] |434| 
	.dwpsn	file "C:/ti/ccs1260/ccs/tools/compiler/ti-cgt-c2000_22.6.1.LTS/include/_defs.h",line 435,column 13,is_stmt,isa 0
        MOVB      AL,#1                 ; [CPU_ALU] |435| 
        B         ||$C$L52||,UNC        ; [CPU_ALU] |435| 
        ; branch occurs ; [] |435| 
||$C$L48||:    
	.dwpsn	file "C:/ti/ccs1260/ccs/tools/compiler/ti-cgt-c2000_22.6.1.LTS/include/_defs.h",line 436,column 14,is_stmt,isa 0
        MOVB      AL,#2                 ; [CPU_ALU] |436| 
        B         ||$C$L52||,UNC        ; [CPU_ALU] |436| 
        ; branch occurs ; [] |436| 
||$C$L49||:    
	.dwpsn	file "C:/ti/ccs1260/ccs/tools/compiler/ti-cgt-c2000_22.6.1.LTS/include/_defs.h",line 438,column 5,is_stmt,isa 0
        MOVB      ACC,#0                ; [CPU_ALU] |438| 
        MOVL      *-SP[4],ACC           ; [CPU_ALU] |438| 
        MOV       *-SP[2],#0            ; [CPU_ALU] |438| 
        MOV       *-SP[1],#0            ; [CPU_ALU] |438| 
        MOV32     R0H,*-SP[6]           ; [CPU_FPU] |438| 
        MOV32     R0L,*-SP[8]           ; [CPU_FPU] |438| 
        MOV       T,#52                 ; [CPU_ALU] |438| 
        MOV32     P,R0L                 ; [CPU_FPU] |438| 
        MOV32     ACC,R0H               ; [CPU_FPU] |438| 
        LSR64     ACC:P,T               ; [CPU_ALU] |438| 
        ANDB      AL,#0                 ; [CPU_ALU] |438| 
        ANDB      AH,#0                 ; [CPU_ALU] |438| 
        AND       PL,#2047              ; [CPU_ALU] |438| 
        AND       PH,#0                 ; [CPU_ALU] |438| 
$C$DW$248	.dwtag  DW_TAG_TI_branch
	.dwattr $C$DW$248, DW_AT_low_pc(0x00)
	.dwattr $C$DW$248, DW_AT_name("__c28xabi_cmpull")
	.dwattr $C$DW$248, DW_AT_TI_call

        LCR       #||__c28xabi_cmpull|| ; [CPU_ALU] |438| 
        ; call occurs [#||__c28xabi_cmpull||] ; [] |438| 
        CMPB      AL,#0                 ; [CPU_ALU] |438| 
        B         ||$C$L51||,NEQ        ; [CPU_ALU] |438| 
        ; branchcc occurs ; [] |438| 
	.dwpsn	file "C:/ti/ccs1260/ccs/tools/compiler/ti-cgt-c2000_22.6.1.LTS/include/_defs.h",line 440,column 9,is_stmt,isa 0
        MOVB      ACC,#0                ; [CPU_ALU] |440| 
        MOVL      *-SP[4],ACC           ; [CPU_ALU] |440| 
        MOV       *-SP[2],#0            ; [CPU_ALU] |440| 
        MOV       *-SP[1],#0            ; [CPU_ALU] |440| 
        MOV32     R0H,*-SP[6]           ; [CPU_FPU] |440| 
        MOV32     R0L,*-SP[8]           ; [CPU_FPU] |440| 
        NOP       ; [CPU_ALU] 
        MOV32     P,R0L                 ; [CPU_FPU] |440| 
        AND       PL,#65535             ; [CPU_ALU] |440| 
        AND       PH,#65535             ; [CPU_ALU] |440| 
        MOV32     ACC,R0H               ; [CPU_FPU] |440| 
        AND       AL,#65535             ; [CPU_ALU] |440| 
        ANDB      AH,#15                ; [CPU_ALU] |440| 
$C$DW$249	.dwtag  DW_TAG_TI_branch
	.dwattr $C$DW$249, DW_AT_low_pc(0x00)
	.dwattr $C$DW$249, DW_AT_name("__c28xabi_cmpull")
	.dwattr $C$DW$249, DW_AT_TI_call

        LCR       #||__c28xabi_cmpull|| ; [CPU_ALU] |440| 
        ; call occurs [#||__c28xabi_cmpull||] ; [] |440| 
        CMPB      AL,#0                 ; [CPU_ALU] |440| 
        B         ||$C$L50||,NEQ        ; [CPU_ALU] |440| 
        ; branchcc occurs ; [] |440| 
	.dwpsn	file "C:/ti/ccs1260/ccs/tools/compiler/ti-cgt-c2000_22.6.1.LTS/include/_defs.h",line 441,column 13,is_stmt,isa 0
        MOVB      AL,#0                 ; [CPU_ALU] |441| 
        B         ||$C$L52||,UNC        ; [CPU_ALU] |441| 
        ; branch occurs ; [] |441| 
||$C$L50||:    
	.dwpsn	file "C:/ti/ccs1260/ccs/tools/compiler/ti-cgt-c2000_22.6.1.LTS/include/_defs.h",line 442,column 14,is_stmt,isa 0
        MOV       AL,#-2                ; [CPU_ALU] |442| 
        B         ||$C$L52||,UNC        ; [CPU_ALU] |442| 
        ; branch occurs ; [] |442| 
||$C$L51||:    
	.dwpsn	file "C:/ti/ccs1260/ccs/tools/compiler/ti-cgt-c2000_22.6.1.LTS/include/_defs.h",line 444,column 5,is_stmt,isa 0
        MOV       AL,#-1                ; [CPU_ALU] |444| 
||$C$L52||:    
	.dwpsn	file "C:/ti/ccs1260/ccs/tools/compiler/ti-cgt-c2000_22.6.1.LTS/include/_defs.h",line 445,column 1,is_stmt,isa 0
        SUBB      SP,#8                 ; [CPU_ARAU] 
	.dwcfi	cfa_offset, -2
$C$DW$250	.dwtag  DW_TAG_TI_branch
	.dwattr $C$DW$250, DW_AT_low_pc(0x00)
	.dwattr $C$DW$250, DW_AT_TI_return

        LRETR     ; [CPU_ALU] 
        ; return occurs ; [] 
	.dwattr $C$DW$244, DW_AT_TI_end_file("C:/ti/ccs1260/ccs/tools/compiler/ti-cgt-c2000_22.6.1.LTS/include/_defs.h")
	.dwattr $C$DW$244, DW_AT_TI_end_line(0x1bd)
	.dwattr $C$DW$244, DW_AT_TI_end_column(0x01)
	.dwendentry
	.dwendtag $C$DW$244

	.sect	".text:__relaxed_fmaxf"
	.clink
	.global	||__relaxed_fmaxf||

$C$DW$251	.dwtag  DW_TAG_subprogram
	.dwattr $C$DW$251, DW_AT_name("__relaxed_fmaxf")
	.dwattr $C$DW$251, DW_AT_low_pc(||__relaxed_fmaxf||)
	.dwattr $C$DW$251, DW_AT_high_pc(0x00)
	.dwattr $C$DW$251, DW_AT_linkage_name("__relaxed_fmaxf")
	.dwattr $C$DW$251, DW_AT_external
	.dwattr $C$DW$251, DW_AT_type(*$C$DW$T$16)
	.dwattr $C$DW$251, DW_AT_decl_file("C:/ti/ccs1260/ccs/tools/compiler/ti-cgt-c2000_22.6.1.LTS/include/math.h")
	.dwattr $C$DW$251, DW_AT_decl_line(0xe8)
	.dwattr $C$DW$251, DW_AT_decl_column(0x10)
	.dwattr $C$DW$251, DW_AT_TI_max_frame_size(-6)
	.dwpsn	file "C:/ti/ccs1260/ccs/tools/compiler/ti-cgt-c2000_22.6.1.LTS/include/math.h",line 233,column 1,is_stmt,address ||__relaxed_fmaxf||,isa 0

	.dwfde $C$DW$CIE, ||__relaxed_fmaxf||
$C$DW$252	.dwtag  DW_TAG_formal_parameter
	.dwattr $C$DW$252, DW_AT_name("x")
	.dwattr $C$DW$252, DW_AT_type(*$C$DW$T$16)
	.dwattr $C$DW$252, DW_AT_location[DW_OP_regx 0x2b]

$C$DW$253	.dwtag  DW_TAG_formal_parameter
	.dwattr $C$DW$253, DW_AT_name("y")
	.dwattr $C$DW$253, DW_AT_type(*$C$DW$T$16)
	.dwattr $C$DW$253, DW_AT_location[DW_OP_regx 0x2f]


;***************************************************************
;* FNAME: __relaxed_fmaxf               FR SIZE:   4           *
;*                                                             *
;* FUNCTION ENVIRONMENT                                        *
;*                                                             *
;* FUNCTION PROPERTIES                                         *
;*                            0 Parameter,  4 Auto,  0 SOE     *
;***************************************************************

||__relaxed_fmaxf||:
	.dwcfi	cfa_offset, -2
	.dwcfi	save_reg_to_mem, 26, 0
        ADDB      SP,#4                 ; [CPU_ARAU] 
	.dwcfi	cfa_offset, -6
$C$DW$254	.dwtag  DW_TAG_variable
	.dwattr $C$DW$254, DW_AT_name("x")
	.dwattr $C$DW$254, DW_AT_type(*$C$DW$T$16)
	.dwattr $C$DW$254, DW_AT_location[DW_OP_breg20 -2]

$C$DW$255	.dwtag  DW_TAG_variable
	.dwattr $C$DW$255, DW_AT_name("y")
	.dwattr $C$DW$255, DW_AT_type(*$C$DW$T$16)
	.dwattr $C$DW$255, DW_AT_location[DW_OP_breg20 -4]

        MOV32     *-SP[4],R1H           ; [CPU_FPU] |233| 
        MOV32     *-SP[2],R0H           ; [CPU_FPU] |233| 
	.dwpsn	file "C:/ti/ccs1260/ccs/tools/compiler/ti-cgt-c2000_22.6.1.LTS/include/math.h",line 234,column 5,is_stmt,isa 0
        MAXF32    R0H,R1H               ; [CPU_FPU] |234| 
	.dwpsn	file "C:/ti/ccs1260/ccs/tools/compiler/ti-cgt-c2000_22.6.1.LTS/include/math.h",line 235,column 1,is_stmt,isa 0
        SUBB      SP,#4                 ; [CPU_ARAU] 
	.dwcfi	cfa_offset, -2
$C$DW$256	.dwtag  DW_TAG_TI_branch
	.dwattr $C$DW$256, DW_AT_low_pc(0x00)
	.dwattr $C$DW$256, DW_AT_TI_return

        LRETR     ; [CPU_ALU] 
        ; return occurs ; [] 
	.dwattr $C$DW$251, DW_AT_TI_end_file("C:/ti/ccs1260/ccs/tools/compiler/ti-cgt-c2000_22.6.1.LTS/include/math.h")
	.dwattr $C$DW$251, DW_AT_TI_end_line(0xeb)
	.dwattr $C$DW$251, DW_AT_TI_end_column(0x01)
	.dwendentry
	.dwendtag $C$DW$251

	.sect	".text:__relaxed_fminf"
	.clink
	.global	||__relaxed_fminf||

$C$DW$257	.dwtag  DW_TAG_subprogram
	.dwattr $C$DW$257, DW_AT_name("__relaxed_fminf")
	.dwattr $C$DW$257, DW_AT_low_pc(||__relaxed_fminf||)
	.dwattr $C$DW$257, DW_AT_high_pc(0x00)
	.dwattr $C$DW$257, DW_AT_linkage_name("__relaxed_fminf")
	.dwattr $C$DW$257, DW_AT_external
	.dwattr $C$DW$257, DW_AT_type(*$C$DW$T$16)
	.dwattr $C$DW$257, DW_AT_decl_file("C:/ti/ccs1260/ccs/tools/compiler/ti-cgt-c2000_22.6.1.LTS/include/math.h")
	.dwattr $C$DW$257, DW_AT_decl_line(0xee)
	.dwattr $C$DW$257, DW_AT_decl_column(0x10)
	.dwattr $C$DW$257, DW_AT_TI_max_frame_size(-6)
	.dwpsn	file "C:/ti/ccs1260/ccs/tools/compiler/ti-cgt-c2000_22.6.1.LTS/include/math.h",line 239,column 1,is_stmt,address ||__relaxed_fminf||,isa 0

	.dwfde $C$DW$CIE, ||__relaxed_fminf||
$C$DW$258	.dwtag  DW_TAG_formal_parameter
	.dwattr $C$DW$258, DW_AT_name("x")
	.dwattr $C$DW$258, DW_AT_type(*$C$DW$T$16)
	.dwattr $C$DW$258, DW_AT_location[DW_OP_regx 0x2b]

$C$DW$259	.dwtag  DW_TAG_formal_parameter
	.dwattr $C$DW$259, DW_AT_name("y")
	.dwattr $C$DW$259, DW_AT_type(*$C$DW$T$16)
	.dwattr $C$DW$259, DW_AT_location[DW_OP_regx 0x2f]


;***************************************************************
;* FNAME: __relaxed_fminf               FR SIZE:   4           *
;*                                                             *
;* FUNCTION ENVIRONMENT                                        *
;*                                                             *
;* FUNCTION PROPERTIES                                         *
;*                            0 Parameter,  4 Auto,  0 SOE     *
;***************************************************************

||__relaxed_fminf||:
	.dwcfi	cfa_offset, -2
	.dwcfi	save_reg_to_mem, 26, 0
        ADDB      SP,#4                 ; [CPU_ARAU] 
	.dwcfi	cfa_offset, -6
$C$DW$260	.dwtag  DW_TAG_variable
	.dwattr $C$DW$260, DW_AT_name("x")
	.dwattr $C$DW$260, DW_AT_type(*$C$DW$T$16)
	.dwattr $C$DW$260, DW_AT_location[DW_OP_breg20 -2]

$C$DW$261	.dwtag  DW_TAG_variable
	.dwattr $C$DW$261, DW_AT_name("y")
	.dwattr $C$DW$261, DW_AT_type(*$C$DW$T$16)
	.dwattr $C$DW$261, DW_AT_location[DW_OP_breg20 -4]

        MOV32     *-SP[4],R1H           ; [CPU_FPU] |239| 
        MOV32     *-SP[2],R0H           ; [CPU_FPU] |239| 
	.dwpsn	file "C:/ti/ccs1260/ccs/tools/compiler/ti-cgt-c2000_22.6.1.LTS/include/math.h",line 240,column 5,is_stmt,isa 0
        MINF32    R0H,R1H               ; [CPU_FPU] |240| 
	.dwpsn	file "C:/ti/ccs1260/ccs/tools/compiler/ti-cgt-c2000_22.6.1.LTS/include/math.h",line 241,column 1,is_stmt,isa 0
        SUBB      SP,#4                 ; [CPU_ARAU] 
	.dwcfi	cfa_offset, -2
$C$DW$262	.dwtag  DW_TAG_TI_branch
	.dwattr $C$DW$262, DW_AT_low_pc(0x00)
	.dwattr $C$DW$262, DW_AT_TI_return

        LRETR     ; [CPU_ALU] 
        ; return occurs ; [] 
	.dwattr $C$DW$257, DW_AT_TI_end_file("C:/ti/ccs1260/ccs/tools/compiler/ti-cgt-c2000_22.6.1.LTS/include/math.h")
	.dwattr $C$DW$257, DW_AT_TI_end_line(0xf1)
	.dwattr $C$DW$257, DW_AT_TI_end_column(0x01)
	.dwendentry
	.dwendtag $C$DW$257

	.sect	".text:__relaxed_sqrtf"
	.clink
	.global	||__relaxed_sqrtf||

$C$DW$263	.dwtag  DW_TAG_subprogram
	.dwattr $C$DW$263, DW_AT_name("__relaxed_sqrtf")
	.dwattr $C$DW$263, DW_AT_low_pc(||__relaxed_sqrtf||)
	.dwattr $C$DW$263, DW_AT_high_pc(0x00)
	.dwattr $C$DW$263, DW_AT_linkage_name("__relaxed_sqrtf")
	.dwattr $C$DW$263, DW_AT_external
	.dwattr $C$DW$263, DW_AT_type(*$C$DW$T$16)
	.dwattr $C$DW$263, DW_AT_decl_file("C:/ti/ccs1260/ccs/tools/compiler/ti-cgt-c2000_22.6.1.LTS/include/math.h")
	.dwattr $C$DW$263, DW_AT_decl_line(0x103)
	.dwattr $C$DW$263, DW_AT_decl_column(0x10)
	.dwattr $C$DW$263, DW_AT_TI_max_frame_size(-4)
	.dwpsn	file "C:/ti/ccs1260/ccs/tools/compiler/ti-cgt-c2000_22.6.1.LTS/include/math.h",line 260,column 1,is_stmt,address ||__relaxed_sqrtf||,isa 0

	.dwfde $C$DW$CIE, ||__relaxed_sqrtf||
$C$DW$264	.dwtag  DW_TAG_formal_parameter
	.dwattr $C$DW$264, DW_AT_name("x")
	.dwattr $C$DW$264, DW_AT_type(*$C$DW$T$16)
	.dwattr $C$DW$264, DW_AT_location[DW_OP_regx 0x2b]


;***************************************************************
;* FNAME: __relaxed_sqrtf               FR SIZE:   2           *
;*                                                             *
;* FUNCTION ENVIRONMENT                                        *
;*                                                             *
;* FUNCTION PROPERTIES                                         *
;*                            0 Parameter,  2 Auto,  0 SOE     *
;***************************************************************

||__relaxed_sqrtf||:
	.dwcfi	cfa_offset, -2
	.dwcfi	save_reg_to_mem, 26, 0
        ADDB      SP,#2                 ; [CPU_ARAU] 
	.dwcfi	cfa_offset, -4
$C$DW$265	.dwtag  DW_TAG_variable
	.dwattr $C$DW$265, DW_AT_name("x")
	.dwattr $C$DW$265, DW_AT_type(*$C$DW$T$16)
	.dwattr $C$DW$265, DW_AT_location[DW_OP_breg20 -2]

        MOV32     *-SP[2],R0H           ; [CPU_FPU] |260| 
	.dwpsn	file "C:/ti/ccs1260/ccs/tools/compiler/ti-cgt-c2000_22.6.1.LTS/include/math.h",line 261,column 5,is_stmt,isa 0
        SQRTF32   R0H,R0H               ; [CPU_FPU] |261| 
        NOP       ; [CPU_ALU] 
        NOP       ; [CPU_ALU] 
	.dwpsn	file "C:/ti/ccs1260/ccs/tools/compiler/ti-cgt-c2000_22.6.1.LTS/include/math.h",line 262,column 1,is_stmt,isa 0
        SUBB      SP,#2                 ; [CPU_ARAU] 
	.dwcfi	cfa_offset, -2
$C$DW$266	.dwtag  DW_TAG_TI_branch
	.dwattr $C$DW$266, DW_AT_low_pc(0x00)
	.dwattr $C$DW$266, DW_AT_TI_return

        LRETR     ; [CPU_ALU] 
        ; return occurs ; [] 
	.dwattr $C$DW$263, DW_AT_TI_end_file("C:/ti/ccs1260/ccs/tools/compiler/ti-cgt-c2000_22.6.1.LTS/include/math.h")
	.dwattr $C$DW$263, DW_AT_TI_end_line(0x106)
	.dwattr $C$DW$263, DW_AT_TI_end_column(0x01)
	.dwendentry
	.dwendtag $C$DW$263

	.sect	".text:__relaxed_sinf"
	.clink
	.global	||__relaxed_sinf||

$C$DW$267	.dwtag  DW_TAG_subprogram
	.dwattr $C$DW$267, DW_AT_name("__relaxed_sinf")
	.dwattr $C$DW$267, DW_AT_low_pc(||__relaxed_sinf||)
	.dwattr $C$DW$267, DW_AT_high_pc(0x00)
	.dwattr $C$DW$267, DW_AT_linkage_name("__relaxed_sinf")
	.dwattr $C$DW$267, DW_AT_external
	.dwattr $C$DW$267, DW_AT_type(*$C$DW$T$16)
	.dwattr $C$DW$267, DW_AT_decl_file("C:/ti/ccs1260/ccs/tools/compiler/ti-cgt-c2000_22.6.1.LTS/include/math.h")
	.dwattr $C$DW$267, DW_AT_decl_line(0x108)
	.dwattr $C$DW$267, DW_AT_decl_column(0x10)
	.dwattr $C$DW$267, DW_AT_TI_max_frame_size(-4)
	.dwpsn	file "C:/ti/ccs1260/ccs/tools/compiler/ti-cgt-c2000_22.6.1.LTS/include/math.h",line 265,column 1,is_stmt,address ||__relaxed_sinf||,isa 0

	.dwfde $C$DW$CIE, ||__relaxed_sinf||
$C$DW$268	.dwtag  DW_TAG_formal_parameter
	.dwattr $C$DW$268, DW_AT_name("x")
	.dwattr $C$DW$268, DW_AT_type(*$C$DW$T$16)
	.dwattr $C$DW$268, DW_AT_location[DW_OP_regx 0x2b]


;***************************************************************
;* FNAME: __relaxed_sinf                FR SIZE:   2           *
;*                                                             *
;* FUNCTION ENVIRONMENT                                        *
;*                                                             *
;* FUNCTION PROPERTIES                                         *
;*                            0 Parameter,  2 Auto,  0 SOE     *
;***************************************************************

||__relaxed_sinf||:
	.dwcfi	cfa_offset, -2
	.dwcfi	save_reg_to_mem, 26, 0
        ADDB      SP,#2                 ; [CPU_ARAU] 
	.dwcfi	cfa_offset, -4
$C$DW$269	.dwtag  DW_TAG_variable
	.dwattr $C$DW$269, DW_AT_name("x")
	.dwattr $C$DW$269, DW_AT_type(*$C$DW$T$16)
	.dwattr $C$DW$269, DW_AT_location[DW_OP_breg20 -2]

        MOV32     *-SP[2],R0H           ; [CPU_FPU] |265| 
	.dwpsn	file "C:/ti/ccs1260/ccs/tools/compiler/ti-cgt-c2000_22.6.1.LTS/include/math.h",line 266,column 5,is_stmt,isa 0
        DIV2PIF32 R0H,R0H               ; [CPU_FPU] |266| 
        NOP       ; [CPU_ALU] 
        SINPUF32  R0H,R0H               ; [CPU_FPU] |266| 
        NOP       ; [CPU_ALU] 
	.dwpsn	file "C:/ti/ccs1260/ccs/tools/compiler/ti-cgt-c2000_22.6.1.LTS/include/math.h",line 267,column 1,is_stmt,isa 0
        SUBB      SP,#2                 ; [CPU_ARAU] 
	.dwcfi	cfa_offset, -2
$C$DW$270	.dwtag  DW_TAG_TI_branch
	.dwattr $C$DW$270, DW_AT_low_pc(0x00)
	.dwattr $C$DW$270, DW_AT_TI_return

        LRETR     ; [CPU_ALU] 
        ; return occurs ; [] 
	.dwattr $C$DW$267, DW_AT_TI_end_file("C:/ti/ccs1260/ccs/tools/compiler/ti-cgt-c2000_22.6.1.LTS/include/math.h")
	.dwattr $C$DW$267, DW_AT_TI_end_line(0x10b)
	.dwattr $C$DW$267, DW_AT_TI_end_column(0x01)
	.dwendentry
	.dwendtag $C$DW$267

	.sect	".text:__relaxed_cosf"
	.clink
	.global	||__relaxed_cosf||

$C$DW$271	.dwtag  DW_TAG_subprogram
	.dwattr $C$DW$271, DW_AT_name("__relaxed_cosf")
	.dwattr $C$DW$271, DW_AT_low_pc(||__relaxed_cosf||)
	.dwattr $C$DW$271, DW_AT_high_pc(0x00)
	.dwattr $C$DW$271, DW_AT_linkage_name("__relaxed_cosf")
	.dwattr $C$DW$271, DW_AT_external
	.dwattr $C$DW$271, DW_AT_type(*$C$DW$T$16)
	.dwattr $C$DW$271, DW_AT_decl_file("C:/ti/ccs1260/ccs/tools/compiler/ti-cgt-c2000_22.6.1.LTS/include/math.h")
	.dwattr $C$DW$271, DW_AT_decl_line(0x10d)
	.dwattr $C$DW$271, DW_AT_decl_column(0x10)
	.dwattr $C$DW$271, DW_AT_TI_max_frame_size(-4)
	.dwpsn	file "C:/ti/ccs1260/ccs/tools/compiler/ti-cgt-c2000_22.6.1.LTS/include/math.h",line 270,column 1,is_stmt,address ||__relaxed_cosf||,isa 0

	.dwfde $C$DW$CIE, ||__relaxed_cosf||
$C$DW$272	.dwtag  DW_TAG_formal_parameter
	.dwattr $C$DW$272, DW_AT_name("x")
	.dwattr $C$DW$272, DW_AT_type(*$C$DW$T$16)
	.dwattr $C$DW$272, DW_AT_location[DW_OP_regx 0x2b]


;***************************************************************
;* FNAME: __relaxed_cosf                FR SIZE:   2           *
;*                                                             *
;* FUNCTION ENVIRONMENT                                        *
;*                                                             *
;* FUNCTION PROPERTIES                                         *
;*                            0 Parameter,  2 Auto,  0 SOE     *
;***************************************************************

||__relaxed_cosf||:
	.dwcfi	cfa_offset, -2
	.dwcfi	save_reg_to_mem, 26, 0
        ADDB      SP,#2                 ; [CPU_ARAU] 
	.dwcfi	cfa_offset, -4
$C$DW$273	.dwtag  DW_TAG_variable
	.dwattr $C$DW$273, DW_AT_name("x")
	.dwattr $C$DW$273, DW_AT_type(*$C$DW$T$16)
	.dwattr $C$DW$273, DW_AT_location[DW_OP_breg20 -2]

        MOV32     *-SP[2],R0H           ; [CPU_FPU] |270| 
	.dwpsn	file "C:/ti/ccs1260/ccs/tools/compiler/ti-cgt-c2000_22.6.1.LTS/include/math.h",line 271,column 5,is_stmt,isa 0
        DIV2PIF32 R0H,R0H               ; [CPU_FPU] |271| 
        NOP       ; [CPU_ALU] 
        COSPUF32  R0H,R0H               ; [CPU_FPU] |271| 
        NOP       ; [CPU_ALU] 
	.dwpsn	file "C:/ti/ccs1260/ccs/tools/compiler/ti-cgt-c2000_22.6.1.LTS/include/math.h",line 272,column 1,is_stmt,isa 0
        SUBB      SP,#2                 ; [CPU_ARAU] 
	.dwcfi	cfa_offset, -2
$C$DW$274	.dwtag  DW_TAG_TI_branch
	.dwattr $C$DW$274, DW_AT_low_pc(0x00)
	.dwattr $C$DW$274, DW_AT_TI_return

        LRETR     ; [CPU_ALU] 
        ; return occurs ; [] 
	.dwattr $C$DW$271, DW_AT_TI_end_file("C:/ti/ccs1260/ccs/tools/compiler/ti-cgt-c2000_22.6.1.LTS/include/math.h")
	.dwattr $C$DW$271, DW_AT_TI_end_line(0x110)
	.dwattr $C$DW$271, DW_AT_TI_end_column(0x01)
	.dwendentry
	.dwendtag $C$DW$271

	.sect	".text:__relaxed_atanf"
	.clink
	.global	||__relaxed_atanf||

$C$DW$275	.dwtag  DW_TAG_subprogram
	.dwattr $C$DW$275, DW_AT_name("__relaxed_atanf")
	.dwattr $C$DW$275, DW_AT_low_pc(||__relaxed_atanf||)
	.dwattr $C$DW$275, DW_AT_high_pc(0x00)
	.dwattr $C$DW$275, DW_AT_linkage_name("__relaxed_atanf")
	.dwattr $C$DW$275, DW_AT_external
	.dwattr $C$DW$275, DW_AT_type(*$C$DW$T$16)
	.dwattr $C$DW$275, DW_AT_decl_file("C:/ti/ccs1260/ccs/tools/compiler/ti-cgt-c2000_22.6.1.LTS/include/math.h")
	.dwattr $C$DW$275, DW_AT_decl_line(0x112)
	.dwattr $C$DW$275, DW_AT_decl_column(0x10)
	.dwattr $C$DW$275, DW_AT_TI_max_frame_size(-4)
	.dwpsn	file "C:/ti/ccs1260/ccs/tools/compiler/ti-cgt-c2000_22.6.1.LTS/include/math.h",line 275,column 1,is_stmt,address ||__relaxed_atanf||,isa 0

	.dwfde $C$DW$CIE, ||__relaxed_atanf||
$C$DW$276	.dwtag  DW_TAG_formal_parameter
	.dwattr $C$DW$276, DW_AT_name("x")
	.dwattr $C$DW$276, DW_AT_type(*$C$DW$T$16)
	.dwattr $C$DW$276, DW_AT_location[DW_OP_regx 0x2b]


;***************************************************************
;* FNAME: __relaxed_atanf               FR SIZE:   2           *
;*                                                             *
;* FUNCTION ENVIRONMENT                                        *
;*                                                             *
;* FUNCTION PROPERTIES                                         *
;*                            0 Parameter,  2 Auto,  0 SOE     *
;***************************************************************

||__relaxed_atanf||:
	.dwcfi	cfa_offset, -2
	.dwcfi	save_reg_to_mem, 26, 0
        ADDB      SP,#2                 ; [CPU_ARAU] 
	.dwcfi	cfa_offset, -4
$C$DW$277	.dwtag  DW_TAG_variable
	.dwattr $C$DW$277, DW_AT_name("x")
	.dwattr $C$DW$277, DW_AT_type(*$C$DW$T$16)
	.dwattr $C$DW$277, DW_AT_location[DW_OP_breg20 -2]

        MOV32     *-SP[2],R0H           ; [CPU_FPU] |275| 
	.dwpsn	file "C:/ti/ccs1260/ccs/tools/compiler/ti-cgt-c2000_22.6.1.LTS/include/math.h",line 276,column 3,is_stmt,isa 0
        MOVIZ     R0H,#16256            ; [CPU_FPU] |276| 
        MOV32     R1H,*-SP[2]           ; [CPU_FPU] |276| 
        QUADF32   R1H,R0H,R1H,R0H       ; [CPU_FPU] |276| 
        NOP       ; [CPU_ALU] 
        NOP       ; [CPU_ALU] 
        NOP       ; [CPU_ALU] 
        NOP       ; [CPU_ALU] 
        ATANPUF32 R0H,R0H               ; [CPU_FPU] |276| 
        NOP       ; [CPU_ALU] 
        NOP       ; [CPU_ALU] 
        NOP       ; [CPU_ALU] 
        ADDF32    R0H,R0H,R1H           ; [CPU_FPU] |276| 
        NOP       ; [CPU_ALU] 
        NOP       ; [CPU_ALU] 
        MPY2PIF32 R0H,R0H               ; [CPU_FPU] |276| 
	.dwpsn	file "C:/ti/ccs1260/ccs/tools/compiler/ti-cgt-c2000_22.6.1.LTS/include/math.h",line 277,column 1,is_stmt,isa 0
        SUBB      SP,#2                 ; [CPU_ARAU] 
	.dwcfi	cfa_offset, -2
$C$DW$278	.dwtag  DW_TAG_TI_branch
	.dwattr $C$DW$278, DW_AT_low_pc(0x00)
	.dwattr $C$DW$278, DW_AT_TI_return

        LRETR     ; [CPU_ALU] 
        ; return occurs ; [] 
	.dwattr $C$DW$275, DW_AT_TI_end_file("C:/ti/ccs1260/ccs/tools/compiler/ti-cgt-c2000_22.6.1.LTS/include/math.h")
	.dwattr $C$DW$275, DW_AT_TI_end_line(0x115)
	.dwattr $C$DW$275, DW_AT_TI_end_column(0x01)
	.dwendentry
	.dwendtag $C$DW$275

	.sect	".text:__relaxed_atan2f"
	.clink
	.global	||__relaxed_atan2f||

$C$DW$279	.dwtag  DW_TAG_subprogram
	.dwattr $C$DW$279, DW_AT_name("__relaxed_atan2f")
	.dwattr $C$DW$279, DW_AT_low_pc(||__relaxed_atan2f||)
	.dwattr $C$DW$279, DW_AT_high_pc(0x00)
	.dwattr $C$DW$279, DW_AT_linkage_name("__relaxed_atan2f")
	.dwattr $C$DW$279, DW_AT_external
	.dwattr $C$DW$279, DW_AT_type(*$C$DW$T$16)
	.dwattr $C$DW$279, DW_AT_decl_file("C:/ti/ccs1260/ccs/tools/compiler/ti-cgt-c2000_22.6.1.LTS/include/math.h")
	.dwattr $C$DW$279, DW_AT_decl_line(0x117)
	.dwattr $C$DW$279, DW_AT_decl_column(0x10)
	.dwattr $C$DW$279, DW_AT_TI_max_frame_size(-6)
	.dwpsn	file "C:/ti/ccs1260/ccs/tools/compiler/ti-cgt-c2000_22.6.1.LTS/include/math.h",line 280,column 1,is_stmt,address ||__relaxed_atan2f||,isa 0

	.dwfde $C$DW$CIE, ||__relaxed_atan2f||
$C$DW$280	.dwtag  DW_TAG_formal_parameter
	.dwattr $C$DW$280, DW_AT_name("y")
	.dwattr $C$DW$280, DW_AT_type(*$C$DW$T$16)
	.dwattr $C$DW$280, DW_AT_location[DW_OP_regx 0x2b]

$C$DW$281	.dwtag  DW_TAG_formal_parameter
	.dwattr $C$DW$281, DW_AT_name("x")
	.dwattr $C$DW$281, DW_AT_type(*$C$DW$T$16)
	.dwattr $C$DW$281, DW_AT_location[DW_OP_regx 0x2f]


;***************************************************************
;* FNAME: __relaxed_atan2f              FR SIZE:   4           *
;*                                                             *
;* FUNCTION ENVIRONMENT                                        *
;*                                                             *
;* FUNCTION PROPERTIES                                         *
;*                            0 Parameter,  4 Auto,  0 SOE     *
;***************************************************************

||__relaxed_atan2f||:
	.dwcfi	cfa_offset, -2
	.dwcfi	save_reg_to_mem, 26, 0
        ADDB      SP,#4                 ; [CPU_ARAU] 
	.dwcfi	cfa_offset, -6
$C$DW$282	.dwtag  DW_TAG_variable
	.dwattr $C$DW$282, DW_AT_name("y")
	.dwattr $C$DW$282, DW_AT_type(*$C$DW$T$16)
	.dwattr $C$DW$282, DW_AT_location[DW_OP_breg20 -2]

$C$DW$283	.dwtag  DW_TAG_variable
	.dwattr $C$DW$283, DW_AT_name("x")
	.dwattr $C$DW$283, DW_AT_type(*$C$DW$T$16)
	.dwattr $C$DW$283, DW_AT_location[DW_OP_breg20 -4]

        MOV32     *-SP[4],R1H           ; [CPU_FPU] |280| 
        MOV32     *-SP[2],R0H           ; [CPU_FPU] |280| 
	.dwpsn	file "C:/ti/ccs1260/ccs/tools/compiler/ti-cgt-c2000_22.6.1.LTS/include/math.h",line 281,column 3,is_stmt,isa 0
        MOV32     R0H,*-SP[4]           ; [CPU_FPU] |281| 
        MOV32     R1H,*-SP[2]           ; [CPU_FPU] |281| 
        QUADF32   R1H,R0H,R1H,R0H       ; [CPU_FPU] |281| 
        NOP       ; [CPU_ALU] 
        NOP       ; [CPU_ALU] 
        NOP       ; [CPU_ALU] 
        NOP       ; [CPU_ALU] 
        ATANPUF32 R0H,R0H               ; [CPU_FPU] |281| 
        NOP       ; [CPU_ALU] 
        NOP       ; [CPU_ALU] 
        NOP       ; [CPU_ALU] 
        ADDF32    R0H,R0H,R1H           ; [CPU_FPU] |281| 
        NOP       ; [CPU_ALU] 
        NOP       ; [CPU_ALU] 
        MPY2PIF32 R0H,R0H               ; [CPU_FPU] |281| 
	.dwpsn	file "C:/ti/ccs1260/ccs/tools/compiler/ti-cgt-c2000_22.6.1.LTS/include/math.h",line 282,column 1,is_stmt,isa 0
        SUBB      SP,#4                 ; [CPU_ARAU] 
	.dwcfi	cfa_offset, -2
$C$DW$284	.dwtag  DW_TAG_TI_branch
	.dwattr $C$DW$284, DW_AT_low_pc(0x00)
	.dwattr $C$DW$284, DW_AT_TI_return

        LRETR     ; [CPU_ALU] 
        ; return occurs ; [] 
	.dwattr $C$DW$279, DW_AT_TI_end_file("C:/ti/ccs1260/ccs/tools/compiler/ti-cgt-c2000_22.6.1.LTS/include/math.h")
	.dwattr $C$DW$279, DW_AT_TI_end_line(0x11a)
	.dwattr $C$DW$279, DW_AT_TI_end_column(0x01)
	.dwendentry
	.dwendtag $C$DW$279

	.sect	".text:__relaxed_fmodf"
	.clink
	.global	||__relaxed_fmodf||

$C$DW$285	.dwtag  DW_TAG_subprogram
	.dwattr $C$DW$285, DW_AT_name("__relaxed_fmodf")
	.dwattr $C$DW$285, DW_AT_low_pc(||__relaxed_fmodf||)
	.dwattr $C$DW$285, DW_AT_high_pc(0x00)
	.dwattr $C$DW$285, DW_AT_linkage_name("__relaxed_fmodf")
	.dwattr $C$DW$285, DW_AT_external
	.dwattr $C$DW$285, DW_AT_type(*$C$DW$T$16)
	.dwattr $C$DW$285, DW_AT_decl_file("C:/ti/ccs1260/ccs/tools/compiler/ti-cgt-c2000_22.6.1.LTS/include/math.h")
	.dwattr $C$DW$285, DW_AT_decl_line(0x11c)
	.dwattr $C$DW$285, DW_AT_decl_column(0x10)
	.dwattr $C$DW$285, DW_AT_TI_max_frame_size(-6)
	.dwpsn	file "C:/ti/ccs1260/ccs/tools/compiler/ti-cgt-c2000_22.6.1.LTS/include/math.h",line 285,column 1,is_stmt,address ||__relaxed_fmodf||,isa 0

	.dwfde $C$DW$CIE, ||__relaxed_fmodf||
$C$DW$286	.dwtag  DW_TAG_formal_parameter
	.dwattr $C$DW$286, DW_AT_name("y")
	.dwattr $C$DW$286, DW_AT_type(*$C$DW$T$16)
	.dwattr $C$DW$286, DW_AT_location[DW_OP_regx 0x2b]

$C$DW$287	.dwtag  DW_TAG_formal_parameter
	.dwattr $C$DW$287, DW_AT_name("x")
	.dwattr $C$DW$287, DW_AT_type(*$C$DW$T$16)
	.dwattr $C$DW$287, DW_AT_location[DW_OP_regx 0x2f]


;***************************************************************
;* FNAME: __relaxed_fmodf               FR SIZE:   4           *
;*                                                             *
;* FUNCTION ENVIRONMENT                                        *
;*                                                             *
;* FUNCTION PROPERTIES                                         *
;*                            0 Parameter,  4 Auto,  0 SOE     *
;***************************************************************

||__relaxed_fmodf||:
	.dwcfi	cfa_offset, -2
	.dwcfi	save_reg_to_mem, 26, 0
        ADDB      SP,#4                 ; [CPU_ARAU] 
	.dwcfi	cfa_offset, -6
$C$DW$288	.dwtag  DW_TAG_variable
	.dwattr $C$DW$288, DW_AT_name("y")
	.dwattr $C$DW$288, DW_AT_type(*$C$DW$T$16)
	.dwattr $C$DW$288, DW_AT_location[DW_OP_breg20 -2]

$C$DW$289	.dwtag  DW_TAG_variable
	.dwattr $C$DW$289, DW_AT_name("x")
	.dwattr $C$DW$289, DW_AT_type(*$C$DW$T$16)
	.dwattr $C$DW$289, DW_AT_location[DW_OP_breg20 -4]

        MOV32     *-SP[4],R1H           ; [CPU_FPU] |285| 
        MOV32     *-SP[2],R0H           ; [CPU_FPU] |285| 
	.dwpsn	file "C:/ti/ccs1260/ccs/tools/compiler/ti-cgt-c2000_22.6.1.LTS/include/math.h",line 286,column 3,is_stmt,isa 0
        MOV32     R2H,*-SP[2]           ; [CPU_FPU] |286| 
        DIVF32    R0H,R2H,R1H           ; [CPU_FPU] |286| 
        NOP       ; [CPU_ALU] 
        NOP       ; [CPU_ALU] 
        NOP       ; [CPU_ALU] 
        NOP       ; [CPU_ALU] 
        F32TOI32  R0H,R0H               ; [CPU_FPU] |286| 
        NOP       ; [CPU_ALU] 
        I32TOF32  R0H,R0H               ; [CPU_FPU] |286| 
        NOP       ; [CPU_ALU] 
        MPYF32    R0H,R1H,R0H           ; [CPU_FPU] |286| 
        NOP       ; [CPU_ALU] 
        SUBF32    R0H,R2H,R0H           ; [CPU_FPU] |286| 
	.dwpsn	file "C:/ti/ccs1260/ccs/tools/compiler/ti-cgt-c2000_22.6.1.LTS/include/math.h",line 287,column 1,is_stmt,isa 0
        SUBB      SP,#4                 ; [CPU_ARAU] 
	.dwcfi	cfa_offset, -2
$C$DW$290	.dwtag  DW_TAG_TI_branch
	.dwattr $C$DW$290, DW_AT_low_pc(0x00)
	.dwattr $C$DW$290, DW_AT_TI_return

        LRETR     ; [CPU_ALU] 
        ; return occurs ; [] 
	.dwattr $C$DW$285, DW_AT_TI_end_file("C:/ti/ccs1260/ccs/tools/compiler/ti-cgt-c2000_22.6.1.LTS/include/math.h")
	.dwattr $C$DW$285, DW_AT_TI_end_line(0x11f)
	.dwattr $C$DW$285, DW_AT_TI_end_column(0x01)
	.dwendentry
	.dwendtag $C$DW$285

	.sect	".text:SetMotorOff"
	.clink
	.global	||SetMotorOff||

$C$DW$291	.dwtag  DW_TAG_subprogram
	.dwattr $C$DW$291, DW_AT_name("SetMotorOff")
	.dwattr $C$DW$291, DW_AT_low_pc(||SetMotorOff||)
	.dwattr $C$DW$291, DW_AT_high_pc(0x00)
	.dwattr $C$DW$291, DW_AT_linkage_name("SetMotorOff")
	.dwattr $C$DW$291, DW_AT_external
	.dwattr $C$DW$291, DW_AT_decl_file("..\Application\StructDef2.h")
	.dwattr $C$DW$291, DW_AT_decl_line(0x584)
	.dwattr $C$DW$291, DW_AT_decl_column(0x06)
	.dwattr $C$DW$291, DW_AT_TI_max_frame_size(-4)
	.dwpsn	file "..\Application\StructDef2.h",line 1413,column 1,is_stmt,address ||SetMotorOff||,isa 0

	.dwfde $C$DW$CIE, ||SetMotorOff||
$C$DW$292	.dwtag  DW_TAG_formal_parameter
	.dwattr $C$DW$292, DW_AT_name("pAxis")
	.dwattr $C$DW$292, DW_AT_type(*$C$DW$T$220)
	.dwattr $C$DW$292, DW_AT_location[DW_OP_reg12]


;***************************************************************
;* FNAME: SetMotorOff                   FR SIZE:   2           *
;*                                                             *
;* FUNCTION ENVIRONMENT                                        *
;*                                                             *
;* FUNCTION PROPERTIES                                         *
;*                            0 Parameter,  2 Auto,  0 SOE     *
;***************************************************************

||SetMotorOff||:
	.dwcfi	cfa_offset, -2
	.dwcfi	save_reg_to_mem, 26, 0
        ADDB      SP,#2                 ; [CPU_ARAU] 
	.dwcfi	cfa_offset, -4
$C$DW$293	.dwtag  DW_TAG_variable
	.dwattr $C$DW$293, DW_AT_name("pAxis")
	.dwattr $C$DW$293, DW_AT_type(*$C$DW$T$220)
	.dwattr $C$DW$293, DW_AT_location[DW_OP_breg20 -2]

        MOVL      *-SP[2],XAR4          ; [CPU_ALU] |1413| 
	.dwpsn	file "..\Application\StructDef2.h",line 1414,column 5,is_stmt,isa 0
        MOVB      ACC,#82               ; [CPU_ALU] |1414| 
        ADDL      ACC,*-SP[2]           ; [CPU_ALU] |1414| 
        MOVL      XAR4,ACC              ; [CPU_ALU] |1414| 
        AND       *+XAR4[0],#0xfffe     ; [CPU_ALU] |1414| 
	.dwpsn	file "..\Application\StructDef2.h",line 1415,column 1,is_stmt,isa 0
        SUBB      SP,#2                 ; [CPU_ARAU] 
	.dwcfi	cfa_offset, -2
$C$DW$294	.dwtag  DW_TAG_TI_branch
	.dwattr $C$DW$294, DW_AT_low_pc(0x00)
	.dwattr $C$DW$294, DW_AT_TI_return

        LRETR     ; [CPU_ALU] 
        ; return occurs ; [] 
	.dwattr $C$DW$291, DW_AT_TI_end_file("..\Application\StructDef2.h")
	.dwattr $C$DW$291, DW_AT_TI_end_line(0x587)
	.dwattr $C$DW$291, DW_AT_TI_end_column(0x01)
	.dwendentry
	.dwendtag $C$DW$291

	.sect	".text:SetMotorOn"
	.clink
	.global	||SetMotorOn||

$C$DW$295	.dwtag  DW_TAG_subprogram
	.dwattr $C$DW$295, DW_AT_name("SetMotorOn")
	.dwattr $C$DW$295, DW_AT_low_pc(||SetMotorOn||)
	.dwattr $C$DW$295, DW_AT_high_pc(0x00)
	.dwattr $C$DW$295, DW_AT_linkage_name("SetMotorOn")
	.dwattr $C$DW$295, DW_AT_external
	.dwattr $C$DW$295, DW_AT_decl_file("..\Application\StructDef2.h")
	.dwattr $C$DW$295, DW_AT_decl_line(0x58a)
	.dwattr $C$DW$295, DW_AT_decl_column(0x06)
	.dwattr $C$DW$295, DW_AT_TI_max_frame_size(-4)
	.dwpsn	file "..\Application\StructDef2.h",line 1419,column 1,is_stmt,address ||SetMotorOn||,isa 0

	.dwfde $C$DW$CIE, ||SetMotorOn||
$C$DW$296	.dwtag  DW_TAG_formal_parameter
	.dwattr $C$DW$296, DW_AT_name("pAxis")
	.dwattr $C$DW$296, DW_AT_type(*$C$DW$T$220)
	.dwattr $C$DW$296, DW_AT_location[DW_OP_reg12]


;***************************************************************
;* FNAME: SetMotorOn                    FR SIZE:   2           *
;*                                                             *
;* FUNCTION ENVIRONMENT                                        *
;*                                                             *
;* FUNCTION PROPERTIES                                         *
;*                            0 Parameter,  2 Auto,  0 SOE     *
;***************************************************************

||SetMotorOn||:
	.dwcfi	cfa_offset, -2
	.dwcfi	save_reg_to_mem, 26, 0
        ADDB      SP,#2                 ; [CPU_ARAU] 
	.dwcfi	cfa_offset, -4
$C$DW$297	.dwtag  DW_TAG_variable
	.dwattr $C$DW$297, DW_AT_name("pAxis")
	.dwattr $C$DW$297, DW_AT_type(*$C$DW$T$220)
	.dwattr $C$DW$297, DW_AT_location[DW_OP_breg20 -2]

        MOVL      *-SP[2],XAR4          ; [CPU_ALU] |1419| 
	.dwpsn	file "..\Application\StructDef2.h",line 1420,column 5,is_stmt,isa 0
        MOVB      ACC,#82               ; [CPU_ALU] |1420| 
        ADDL      ACC,*-SP[2]           ; [CPU_ALU] |1420| 
        MOVL      XAR4,ACC              ; [CPU_ALU] |1420| 
        OR        *+XAR4[0],#0x0001     ; [CPU_ALU] |1420| 
	.dwpsn	file "..\Application\StructDef2.h",line 1421,column 1,is_stmt,isa 0
        SUBB      SP,#2                 ; [CPU_ARAU] 
	.dwcfi	cfa_offset, -2
$C$DW$298	.dwtag  DW_TAG_TI_branch
	.dwattr $C$DW$298, DW_AT_low_pc(0x00)
	.dwattr $C$DW$298, DW_AT_TI_return

        LRETR     ; [CPU_ALU] 
        ; return occurs ; [] 
	.dwattr $C$DW$295, DW_AT_TI_end_file("..\Application\StructDef2.h")
	.dwattr $C$DW$295, DW_AT_TI_end_line(0x58d)
	.dwattr $C$DW$295, DW_AT_TI_end_column(0x01)
	.dwendentry
	.dwendtag $C$DW$295

	.sect	".text:IsGen3"
	.clink
	.global	||IsGen3||

$C$DW$299	.dwtag  DW_TAG_subprogram
	.dwattr $C$DW$299, DW_AT_name("IsGen3")
	.dwattr $C$DW$299, DW_AT_low_pc(||IsGen3||)
	.dwattr $C$DW$299, DW_AT_high_pc(0x00)
	.dwattr $C$DW$299, DW_AT_linkage_name("IsGen3")
	.dwattr $C$DW$299, DW_AT_external
	.dwattr $C$DW$299, DW_AT_type(*$C$DW$T$8)
	.dwattr $C$DW$299, DW_AT_decl_file("..\Application\StructDef2.h")
	.dwattr $C$DW$299, DW_AT_decl_line(0x591)
	.dwattr $C$DW$299, DW_AT_decl_column(0x07)
	.dwattr $C$DW$299, DW_AT_TI_max_frame_size(-2)
	.dwpsn	file "..\Application\StructDef2.h",line 1426,column 1,is_stmt,address ||IsGen3||,isa 0

	.dwfde $C$DW$CIE, ||IsGen3||

;***************************************************************
;* FNAME: IsGen3                        FR SIZE:   0           *
;*                                                             *
;* FUNCTION ENVIRONMENT                                        *
;*                                                             *
;* FUNCTION PROPERTIES                                         *
;*                            0 Parameter,  0 Auto,  0 SOE     *
;***************************************************************

||IsGen3||:
	.dwcfi	cfa_offset, -2
	.dwcfi	save_reg_to_mem, 26, 0
	.dwpsn	file "..\Application\StructDef2.h",line 1427,column 5,is_stmt,isa 0
        MOVW      DP,#||S2M||+30        ; [CPU_ARAU] 
        MOV       AL,@$BLOCKED(||S2M||)+30 ; [CPU_ALU] |1427| 
        ANDB      AL,#0x0f              ; [CPU_ALU] |1427| 
        CMPB      AL,#3                 ; [CPU_ALU] |1427| 
        B         ||$C$L53||,NEQ        ; [CPU_ALU] |1427| 
        ; branchcc occurs ; [] |1427| 
        MOVB      AL,#1                 ; [CPU_ALU] |1427| 
        B         ||$C$L54||,UNC        ; [CPU_ALU] |1427| 
        ; branch occurs ; [] |1427| 
||$C$L53||:    
        MOVB      AL,#0                 ; [CPU_ALU] |1427| 
||$C$L54||:    
	.dwpsn	file "..\Application\StructDef2.h",line 1428,column 1,is_stmt,isa 0
$C$DW$300	.dwtag  DW_TAG_TI_branch
	.dwattr $C$DW$300, DW_AT_low_pc(0x00)
	.dwattr $C$DW$300, DW_AT_TI_return

        LRETR     ; [CPU_ALU] 
        ; return occurs ; [] 
	.dwattr $C$DW$299, DW_AT_TI_end_file("..\Application\StructDef2.h")
	.dwattr $C$DW$299, DW_AT_TI_end_line(0x594)
	.dwattr $C$DW$299, DW_AT_TI_end_column(0x01)
	.dwendentry
	.dwendtag $C$DW$299

	.sect	".text:IsPsActive"
	.clink
	.global	||IsPsActive||

$C$DW$301	.dwtag  DW_TAG_subprogram
	.dwattr $C$DW$301, DW_AT_name("IsPsActive")
	.dwattr $C$DW$301, DW_AT_low_pc(||IsPsActive||)
	.dwattr $C$DW$301, DW_AT_high_pc(0x00)
	.dwattr $C$DW$301, DW_AT_linkage_name("IsPsActive")
	.dwattr $C$DW$301, DW_AT_external
	.dwattr $C$DW$301, DW_AT_type(*$C$DW$T$8)
	.dwattr $C$DW$301, DW_AT_decl_file("..\Application\StructDef2.h")
	.dwattr $C$DW$301, DW_AT_decl_line(0x597)
	.dwattr $C$DW$301, DW_AT_decl_column(0x07)
	.dwattr $C$DW$301, DW_AT_TI_max_frame_size(-2)
	.dwpsn	file "..\Application\StructDef2.h",line 1432,column 1,is_stmt,address ||IsPsActive||,isa 0

	.dwfde $C$DW$CIE, ||IsPsActive||

;***************************************************************
;* FNAME: IsPsActive                    FR SIZE:   0           *
;*                                                             *
;* FUNCTION ENVIRONMENT                                        *
;*                                                             *
;* FUNCTION PROPERTIES                                         *
;*                            0 Parameter,  0 Auto,  0 SOE     *
;***************************************************************

||IsPsActive||:
	.dwcfi	cfa_offset, -2
	.dwcfi	save_reg_to_mem, 26, 0
	.dwpsn	file "..\Application\StructDef2.h",line 1433,column 5,is_stmt,isa 0
        MOVW      DP,#||SysState||+323  ; [CPU_ARAU] 
        MOV       AL,@$BLOCKED(||SysState||)+323 ; [CPU_ALU] |1433| 
	.dwpsn	file "..\Application\StructDef2.h",line 1434,column 1,is_stmt,isa 0
$C$DW$302	.dwtag  DW_TAG_TI_branch
	.dwattr $C$DW$302, DW_AT_low_pc(0x00)
	.dwattr $C$DW$302, DW_AT_TI_return

        LRETR     ; [CPU_ALU] 
        ; return occurs ; [] 
	.dwattr $C$DW$301, DW_AT_TI_end_file("..\Application\StructDef2.h")
	.dwattr $C$DW$301, DW_AT_TI_end_line(0x59a)
	.dwattr $C$DW$301, DW_AT_TI_end_column(0x01)
	.dwendentry
	.dwendtag $C$DW$301

	.sect	".text:StopSuctionImmediate"
	.clink
	.global	||StopSuctionImmediate||

$C$DW$303	.dwtag  DW_TAG_subprogram
	.dwattr $C$DW$303, DW_AT_name("StopSuctionImmediate")
	.dwattr $C$DW$303, DW_AT_low_pc(||StopSuctionImmediate||)
	.dwattr $C$DW$303, DW_AT_high_pc(0x00)
	.dwattr $C$DW$303, DW_AT_linkage_name("StopSuctionImmediate")
	.dwattr $C$DW$303, DW_AT_external
	.dwattr $C$DW$303, DW_AT_decl_file("..\Application\StructDef2.h")
	.dwattr $C$DW$303, DW_AT_decl_line(0x59e)
	.dwattr $C$DW$303, DW_AT_decl_column(0x06)
	.dwattr $C$DW$303, DW_AT_TI_max_frame_size(-2)
	.dwpsn	file "..\Application\StructDef2.h",line 1439,column 1,is_stmt,address ||StopSuctionImmediate||,isa 0

	.dwfde $C$DW$CIE, ||StopSuctionImmediate||

;***************************************************************
;* FNAME: StopSuctionImmediate          FR SIZE:   0           *
;*                                                             *
;* FUNCTION ENVIRONMENT                                        *
;*                                                             *
;* FUNCTION PROPERTIES                                         *
;*                            0 Parameter,  0 Auto,  0 SOE     *
;***************************************************************

||StopSuctionImmediate||:
	.dwcfi	cfa_offset, -2
	.dwcfi	save_reg_to_mem, 26, 0
	.dwpsn	file "..\Application\StructDef2.h",line 1440,column 5,is_stmt,isa 0
        MOVB      ACC,#0                ; [CPU_ALU] |1440| 
        MOVW      DP,#||SysState||+148  ; [CPU_ARAU] 
        MOVL      @$BLOCKED(||SysState||)+148,ACC ; [CPU_ALU] |1440| 
	.dwpsn	file "..\Application\StructDef2.h",line 1441,column 5,is_stmt,isa 0
        OR        @$BLOCKED(||SysState||)+148,#0x0002 ; [CPU_ALU] |1441| 
	.dwpsn	file "..\Application\StructDef2.h",line 1442,column 1,is_stmt,isa 0
$C$DW$304	.dwtag  DW_TAG_TI_branch
	.dwattr $C$DW$304, DW_AT_low_pc(0x00)
	.dwattr $C$DW$304, DW_AT_TI_return

        LRETR     ; [CPU_ALU] 
        ; return occurs ; [] 
	.dwattr $C$DW$303, DW_AT_TI_end_file("..\Application\StructDef2.h")
	.dwattr $C$DW$303, DW_AT_TI_end_line(0x5a2)
	.dwattr $C$DW$303, DW_AT_TI_end_column(0x01)
	.dwendentry
	.dwendtag $C$DW$303

	.sect	".text:StopSuctionMonitor"
	.clink
	.global	||StopSuctionMonitor||

$C$DW$305	.dwtag  DW_TAG_subprogram
	.dwattr $C$DW$305, DW_AT_name("StopSuctionMonitor")
	.dwattr $C$DW$305, DW_AT_low_pc(||StopSuctionMonitor||)
	.dwattr $C$DW$305, DW_AT_high_pc(0x00)
	.dwattr $C$DW$305, DW_AT_linkage_name("StopSuctionMonitor")
	.dwattr $C$DW$305, DW_AT_external
	.dwattr $C$DW$305, DW_AT_decl_file("..\Application\StructDef2.h")
	.dwattr $C$DW$305, DW_AT_decl_line(0x5a6)
	.dwattr $C$DW$305, DW_AT_decl_column(0x06)
	.dwattr $C$DW$305, DW_AT_TI_max_frame_size(-2)
	.dwpsn	file "..\Application\StructDef2.h",line 1447,column 1,is_stmt,address ||StopSuctionMonitor||,isa 0

	.dwfde $C$DW$CIE, ||StopSuctionMonitor||

;***************************************************************
;* FNAME: StopSuctionMonitor            FR SIZE:   0           *
;*                                                             *
;* FUNCTION ENVIRONMENT                                        *
;*                                                             *
;* FUNCTION PROPERTIES                                         *
;*                            0 Parameter,  0 Auto,  0 SOE     *
;***************************************************************

||StopSuctionMonitor||:
	.dwcfi	cfa_offset, -2
	.dwcfi	save_reg_to_mem, 26, 0
	.dwpsn	file "..\Application\StructDef2.h",line 1448,column 5,is_stmt,isa 0
        MOVB      ACC,#0                ; [CPU_ALU] |1448| 
        MOVW      DP,#||SysState||+148  ; [CPU_ARAU] 
        MOVL      @$BLOCKED(||SysState||)+148,ACC ; [CPU_ALU] |1448| 
	.dwpsn	file "..\Application\StructDef2.h",line 1449,column 1,is_stmt,isa 0
$C$DW$306	.dwtag  DW_TAG_TI_branch
	.dwattr $C$DW$306, DW_AT_low_pc(0x00)
	.dwattr $C$DW$306, DW_AT_TI_return

        LRETR     ; [CPU_ALU] 
        ; return occurs ; [] 
	.dwattr $C$DW$305, DW_AT_TI_end_file("..\Application\StructDef2.h")
	.dwattr $C$DW$305, DW_AT_TI_end_line(0x5a9)
	.dwattr $C$DW$305, DW_AT_TI_end_column(0x01)
	.dwendentry
	.dwendtag $C$DW$305

	.sect	".text:InitSuctionMonitor"
	.clink
	.global	||InitSuctionMonitor||

$C$DW$307	.dwtag  DW_TAG_subprogram
	.dwattr $C$DW$307, DW_AT_name("InitSuctionMonitor")
	.dwattr $C$DW$307, DW_AT_low_pc(||InitSuctionMonitor||)
	.dwattr $C$DW$307, DW_AT_high_pc(0x00)
	.dwattr $C$DW$307, DW_AT_linkage_name("InitSuctionMonitor")
	.dwattr $C$DW$307, DW_AT_external
	.dwattr $C$DW$307, DW_AT_decl_file("..\Application\StructDef2.h")
	.dwattr $C$DW$307, DW_AT_decl_line(0x5ae)
	.dwattr $C$DW$307, DW_AT_decl_column(0x06)
	.dwattr $C$DW$307, DW_AT_TI_max_frame_size(-2)
	.dwpsn	file "..\Application\StructDef2.h",line 1455,column 1,is_stmt,address ||InitSuctionMonitor||,isa 0

	.dwfde $C$DW$CIE, ||InitSuctionMonitor||

;***************************************************************
;* FNAME: InitSuctionMonitor            FR SIZE:   0           *
;*                                                             *
;* FUNCTION ENVIRONMENT                                        *
;*                                                             *
;* FUNCTION PROPERTIES                                         *
;*                            0 Parameter,  0 Auto,  0 SOE     *
;***************************************************************

||InitSuctionMonitor||:
	.dwcfi	cfa_offset, -2
	.dwcfi	save_reg_to_mem, 26, 0
	.dwpsn	file "..\Application\StructDef2.h",line 1456,column 5,is_stmt,isa 0
        MOVB      ACC,#0                ; [CPU_ALU] |1456| 
        MOVW      DP,#||SysState||+148  ; [CPU_ARAU] 
        MOVL      @$BLOCKED(||SysState||)+148,ACC ; [CPU_ALU] |1456| 
	.dwpsn	file "..\Application\StructDef2.h",line 1457,column 5,is_stmt,isa 0
        OR        @$BLOCKED(||SysState||)+148,#0x0001 ; [CPU_ALU] |1457| 
	.dwpsn	file "..\Application\StructDef2.h",line 1458,column 1,is_stmt,isa 0
$C$DW$308	.dwtag  DW_TAG_TI_branch
	.dwattr $C$DW$308, DW_AT_low_pc(0x00)
	.dwattr $C$DW$308, DW_AT_TI_return

        LRETR     ; [CPU_ALU] 
        ; return occurs ; [] 
	.dwattr $C$DW$307, DW_AT_TI_end_file("..\Application\StructDef2.h")
	.dwattr $C$DW$307, DW_AT_TI_end_line(0x5b2)
	.dwattr $C$DW$307, DW_AT_TI_end_column(0x01)
	.dwendentry
	.dwendtag $C$DW$307

	.sect	".text:InitSuctionImmediate"
	.clink
	.global	||InitSuctionImmediate||

$C$DW$309	.dwtag  DW_TAG_subprogram
	.dwattr $C$DW$309, DW_AT_name("InitSuctionImmediate")
	.dwattr $C$DW$309, DW_AT_low_pc(||InitSuctionImmediate||)
	.dwattr $C$DW$309, DW_AT_high_pc(0x00)
	.dwattr $C$DW$309, DW_AT_linkage_name("InitSuctionImmediate")
	.dwattr $C$DW$309, DW_AT_external
	.dwattr $C$DW$309, DW_AT_decl_file("..\Application\StructDef2.h")
	.dwattr $C$DW$309, DW_AT_decl_line(0x5b6)
	.dwattr $C$DW$309, DW_AT_decl_column(0x06)
	.dwattr $C$DW$309, DW_AT_TI_max_frame_size(-2)
	.dwpsn	file "..\Application\StructDef2.h",line 1463,column 1,is_stmt,address ||InitSuctionImmediate||,isa 0

	.dwfde $C$DW$CIE, ||InitSuctionImmediate||

;***************************************************************
;* FNAME: InitSuctionImmediate          FR SIZE:   0           *
;*                                                             *
;* FUNCTION ENVIRONMENT                                        *
;*                                                             *
;* FUNCTION PROPERTIES                                         *
;*                            0 Parameter,  0 Auto,  0 SOE     *
;***************************************************************

||InitSuctionImmediate||:
	.dwcfi	cfa_offset, -2
	.dwcfi	save_reg_to_mem, 26, 0
	.dwpsn	file "..\Application\StructDef2.h",line 1464,column 5,is_stmt,isa 0
        MOVW      DP,#||SysState||+148  ; [CPU_ARAU] 
        OR        @$BLOCKED(||SysState||)+148,#0x0002 ; [CPU_ALU] |1464| 
	.dwpsn	file "..\Application\StructDef2.h",line 1465,column 5,is_stmt,isa 0
        OR        @$BLOCKED(||SysState||)+148,#0x0001 ; [CPU_ALU] |1465| 
	.dwpsn	file "..\Application\StructDef2.h",line 1466,column 1,is_stmt,isa 0
$C$DW$310	.dwtag  DW_TAG_TI_branch
	.dwattr $C$DW$310, DW_AT_low_pc(0x00)
	.dwattr $C$DW$310, DW_AT_TI_return

        LRETR     ; [CPU_ALU] 
        ; return occurs ; [] 
	.dwattr $C$DW$309, DW_AT_TI_end_file("..\Application\StructDef2.h")
	.dwattr $C$DW$309, DW_AT_TI_end_line(0x5ba)
	.dwattr $C$DW$309, DW_AT_TI_end_column(0x01)
	.dwendentry
	.dwendtag $C$DW$309

	.sect	".text:GetManipMotionStatusDbg"
	.clink
	.global	||GetManipMotionStatusDbg||

$C$DW$311	.dwtag  DW_TAG_subprogram
	.dwattr $C$DW$311, DW_AT_name("GetManipMotionStatusDbg")
	.dwattr $C$DW$311, DW_AT_low_pc(||GetManipMotionStatusDbg||)
	.dwattr $C$DW$311, DW_AT_high_pc(0x00)
	.dwattr $C$DW$311, DW_AT_linkage_name("GetManipMotionStatusDbg")
	.dwattr $C$DW$311, DW_AT_external
	.dwattr $C$DW$311, DW_AT_decl_file("../Application/ManState.c")
	.dwattr $C$DW$311, DW_AT_decl_line(0x20)
	.dwattr $C$DW$311, DW_AT_decl_column(0x06)
	.dwattr $C$DW$311, DW_AT_TI_max_frame_size(-14)
	.dwpsn	file "../Application/ManState.c",line 33,column 1,is_stmt,address ||GetManipMotionStatusDbg||,isa 0

	.dwfde $C$DW$CIE, ||GetManipMotionStatusDbg||

;***************************************************************
;* FNAME: GetManipMotionStatusDbg       FR SIZE:  12           *
;*                                                             *
;* FUNCTION ENVIRONMENT                                        *
;*                                                             *
;* FUNCTION PROPERTIES                                         *
;*                            2 Parameter, 10 Auto,  0 SOE     *
;***************************************************************

||GetManipMotionStatusDbg||:
	.dwcfi	cfa_offset, -2
	.dwcfi	save_reg_to_mem, 26, 0
        ADDB      SP,#12                ; [CPU_ARAU] 
	.dwcfi	cfa_offset, -14
$C$DW$312	.dwtag  DW_TAG_variable
	.dwattr $C$DW$312, DW_AT_name("BigErr")
	.dwattr $C$DW$312, DW_AT_type(*$C$DW$T$16)
	.dwattr $C$DW$312, DW_AT_location[DW_OP_breg20 -4]

$C$DW$313	.dwtag  DW_TAG_variable
	.dwattr $C$DW$313, DW_AT_name("BigfErr")
	.dwattr $C$DW$313, DW_AT_type(*$C$DW$T$16)
	.dwattr $C$DW$313, DW_AT_location[DW_OP_breg20 -6]

$C$DW$314	.dwtag  DW_TAG_variable
	.dwattr $C$DW$314, DW_AT_name("BigErrAx")
	.dwattr $C$DW$314, DW_AT_type(*$C$DW$T$9)
	.dwattr $C$DW$314, DW_AT_location[DW_OP_breg20 -7]

$C$DW$315	.dwtag  DW_TAG_variable
	.dwattr $C$DW$315, DW_AT_name("BigfErrAx")
	.dwattr $C$DW$315, DW_AT_type(*$C$DW$T$9)
	.dwattr $C$DW$315, DW_AT_location[DW_OP_breg20 -8]

$C$DW$316	.dwtag  DW_TAG_variable
	.dwattr $C$DW$316, DW_AT_name("stoperr")
	.dwattr $C$DW$316, DW_AT_type(*$C$DW$T$9)
	.dwattr $C$DW$316, DW_AT_location[DW_OP_breg20 -9]

	.dwpsn	file "../Application/ManState.c",line 36,column 5,is_stmt,isa 0
        MOVW      DP,#||ManCmd||+50     ; [CPU_ARAU] 
        MOVL      ACC,@$BLOCKED(||ManCmd||)+50 ; [CPU_ALU] |36| 
        MOVL      *-SP[4],ACC           ; [CPU_ALU] |36| 
	.dwpsn	file "../Application/ManState.c",line 37,column 5,is_stmt,isa 0
        MOV       *-SP[7],#0            ; [CPU_ALU] |37| 
	.dwpsn	file "../Application/ManState.c",line 38,column 5,is_stmt,isa 0
        MOVW      DP,#||ManCmd||+188    ; [CPU_ARAU] 
        F32TOF64  R0,*-SP[4]            ; [CPU_FPU] |38| 
        F32TOF64  R1,@$BLOCKED(||ManCmd||)+188 ; [CPU_FPU] |38| 
        ABSF64    R0,R0                 ; [CPU_FPU] |38| 
        ABSF64    R1,R1                 ; [CPU_FPU] |38| 
        CMPF64    R1,R0                 ; [CPU_FPU] |38| 
        MOVST0    ZF, NF                ; [CPU_FPU] |38| 
        B         ||$C$L55||,LEQ        ; [CPU_ALU] |38| 
        ; branchcc occurs ; [] |38| 
	.dwpsn	file "../Application/ManState.c",line 40,column 9,is_stmt,isa 0
        MOVL      ACC,@$BLOCKED(||ManCmd||)+188 ; [CPU_ALU] |40| 
        MOVL      *-SP[4],ACC           ; [CPU_ALU] |40| 
	.dwpsn	file "../Application/ManState.c",line 41,column 9,is_stmt,isa 0
        MOVB      *-SP[7],#1,UNC        ; [CPU_ALU] |41| 
||$C$L55||:    
	.dwpsn	file "../Application/ManState.c",line 43,column 5,is_stmt,isa 0
        MOVW      DP,#||ManCmd||+326    ; [CPU_ARAU] 
        F32TOF64  R0,*-SP[4]            ; [CPU_FPU] |43| 
        F32TOF64  R1,@$BLOCKED(||ManCmd||)+326 ; [CPU_FPU] |43| 
        ABSF64    R0,R0                 ; [CPU_FPU] |43| 
        ABSF64    R1,R1                 ; [CPU_FPU] |43| 
        CMPF64    R1,R0                 ; [CPU_FPU] |43| 
        MOVST0    ZF, NF                ; [CPU_FPU] |43| 
        B         ||$C$L56||,LEQ        ; [CPU_ALU] |43| 
        ; branchcc occurs ; [] |43| 
	.dwpsn	file "../Application/ManState.c",line 45,column 9,is_stmt,isa 0
        MOVL      ACC,@$BLOCKED(||ManCmd||)+326 ; [CPU_ALU] |45| 
        MOVL      *-SP[4],ACC           ; [CPU_ALU] |45| 
	.dwpsn	file "../Application/ManState.c",line 46,column 9,is_stmt,isa 0
        MOVB      *-SP[7],#2,UNC        ; [CPU_ALU] |46| 
||$C$L56||:    
	.dwpsn	file "../Application/ManState.c",line 49,column 5,is_stmt,isa 0
        MOVW      DP,#||ManCmd||+152    ; [CPU_ARAU] 
        MOVL      ACC,@$BLOCKED(||ManCmd||)+152 ; [CPU_ALU] |49| 
        MOVL      *-SP[6],ACC           ; [CPU_ALU] |49| 
	.dwpsn	file "../Application/ManState.c",line 50,column 5,is_stmt,isa 0
        MOV       *-SP[8],#0            ; [CPU_ALU] |50| 
	.dwpsn	file "../Application/ManState.c",line 51,column 5,is_stmt,isa 0
        MOVW      DP,#||ManCmd||+290    ; [CPU_ARAU] 
        F32TOF64  R0,*-SP[6]            ; [CPU_FPU] |51| 
        F32TOF64  R1,@$BLOCKED(||ManCmd||)+290 ; [CPU_FPU] |51| 
        ABSF64    R0,R0                 ; [CPU_FPU] |51| 
        ABSF64    R1,R1                 ; [CPU_FPU] |51| 
        CMPF64    R1,R0                 ; [CPU_FPU] |51| 
        MOVST0    ZF, NF                ; [CPU_FPU] |51| 
        B         ||$C$L57||,LEQ        ; [CPU_ALU] |51| 
        ; branchcc occurs ; [] |51| 
	.dwpsn	file "../Application/ManState.c",line 53,column 9,is_stmt,isa 0
        MOVL      ACC,@$BLOCKED(||ManCmd||)+290 ; [CPU_ALU] |53| 
        MOVL      *-SP[6],ACC           ; [CPU_ALU] |53| 
	.dwpsn	file "../Application/ManState.c",line 54,column 9,is_stmt,isa 0
        MOVB      *-SP[8],#1,UNC        ; [CPU_ALU] |54| 
||$C$L57||:    
	.dwpsn	file "../Application/ManState.c",line 56,column 5,is_stmt,isa 0
        MOVW      DP,#||ManCmd||+428    ; [CPU_ARAU] 
        F32TOF64  R0,*-SP[6]            ; [CPU_FPU] |56| 
        F32TOF64  R1,@$BLOCKED(||ManCmd||)+428 ; [CPU_FPU] |56| 
        ABSF64    R0,R0                 ; [CPU_FPU] |56| 
        ABSF64    R1,R1                 ; [CPU_FPU] |56| 
        CMPF64    R1,R0                 ; [CPU_FPU] |56| 
        MOVST0    ZF, NF                ; [CPU_FPU] |56| 
        B         ||$C$L58||,LEQ        ; [CPU_ALU] |56| 
        ; branchcc occurs ; [] |56| 
	.dwpsn	file "../Application/ManState.c",line 58,column 9,is_stmt,isa 0
        MOVL      ACC,@$BLOCKED(||ManCmd||)+428 ; [CPU_ALU] |58| 
        MOVL      *-SP[6],ACC           ; [CPU_ALU] |58| 
	.dwpsn	file "../Application/ManState.c",line 59,column 9,is_stmt,isa 0
        MOVB      *-SP[8],#2,UNC        ; [CPU_ALU] |59| 
||$C$L58||:    
	.dwpsn	file "../Application/ManState.c",line 62,column 5,is_stmt,isa 0
        MOV       *-SP[9],#0            ; [CPU_ALU] |62| 
	.dwpsn	file "../Application/ManState.c",line 63,column 5,is_stmt,isa 0
        MOVW      DP,#||ManCmd||+6      ; [CPU_ARAU] 
        MOV       AL,@$BLOCKED(||ManCmd||)+6 ; [CPU_ALU] |63| 
        B         ||$C$L59||,EQ         ; [CPU_ALU] |63| 
        ; branchcc occurs ; [] |63| 
	.dwpsn	file "../Application/ManState.c",line 65,column 9,is_stmt,isa 0
        SUB       AL,#8192              ; [CPU_ALU] |65| 
        MOV       *-SP[9],AL            ; [CPU_ALU] |65| 
||$C$L59||:    
	.dwpsn	file "../Application/ManState.c",line 68,column 5,is_stmt,isa 0
        MOVW      DP,#||ManCmd||+115    ; [CPU_ARAU] 
        MOV       AL,@$BLOCKED(||ManCmd||)+115 ; [CPU_ALU] |68| 
        MOVW      DP,#||ManCmd||+253    ; [CPU_ARAU] 
        MOV       AH,@$BLOCKED(||ManCmd||)+253 ; [CPU_ALU] |68| 
        ANDB      AL,#0x01              ; [CPU_ALU] |68| 
        ANDB      AH,#0x01              ; [CPU_ALU] |68| 
        MOVW      DP,#||ManCmd||+391    ; [CPU_ARAU] 
        LSL       AH,1                  ; [CPU_ALU] |68| 
        ADD       AH,AL                 ; [CPU_ALU] |68| 
        MOV       AL,@$BLOCKED(||ManCmd||)+391 ; [CPU_FPU] |68| 
        ANDB      AL,#0x01              ; [CPU_ALU] |68| 
        LSL       AL,2                  ; [CPU_ALU] |68| 
        MOVZ      AR6,AL                ; [CPU_ALU] |68| 
        MOVW      DP,#||ManCmd||+1481   ; [CPU_ARAU] 
        ADD       AR6,AH                ; [CPU_ALU] |68| 
        MOV       AH,@$BLOCKED(||ManCmd||)+1481 ; [CPU_ALU] |68| 
        B         ||$C$L60||,EQ         ; [CPU_ALU] |68| 
        ; branchcc occurs ; [] |68| 
        MOVB      AL,#1                 ; [CPU_ALU] |68| 
        B         ||$C$L61||,UNC        ; [CPU_ALU] |68| 
        ; branch occurs ; [] |68| 
||$C$L60||:    
        MOVB      AL,#0                 ; [CPU_ALU] |68| 
||$C$L61||:    
        MOV       ACC,AL << #3          ; [CPU_ALU] |68| 
        MOV       AH,AL                 ; [CPU_ALU] |68| 
        ADD       AH,AR6                ; [CPU_ALU] |68| 
        MOV       AL,AH                 ; [CPU_ALU] |68| 
        MOV       AH,*-SP[7]            ; [CPU_ALU] |68| 
        ANDB      AH,#0x07              ; [CPU_ALU] |68| 
        LSL       AH,4                  ; [CPU_ALU] |68| 
        ADD       AH,AL                 ; [CPU_ALU] |68| 
        MOV       AL,*-SP[9]            ; [CPU_FPU] |68| 
        ANDB      AL,#0x3f              ; [CPU_ALU] |68| 
        LSL       AL,7                  ; [CPU_ALU] |68| 
        MOVZ      AR6,AL                ; [CPU_ALU] |68| 
        SETC      SXM                   ; [CPU_ALU] 
        MOVW      DP,#||ManCmd||+38     ; [CPU_ARAU] 
        MOV       T,#17                 ; [CPU_ALU] |68| 
        ADD       AR6,AH                ; [CPU_ALU] |68| 
        MOV       ACC,@$BLOCKED(||ManCmd||)+38 ; [CPU_ALU] |68| 
        MOVL      P,ACC                 ; [CPU_ALU] |68| 
        MOV       PH,#0                 ; [CPU_ALU] |68| 
        MOV       AL,PL                 ; [CPU_ALU] |68| 
        ANDB      AL,#0x0f              ; [CPU_ALU] |68| 
        MOV       PL,AL                 ; [CPU_ALU] |68| 
        MOVL      ACC,P                 ; [CPU_ALU] |68| 
        LSL       ACC,13                ; [CPU_ALU] |68| 
        ADDU      ACC,AR6               ; [CPU_ALU] |68| 
        MOVL      P,ACC                 ; [CPU_ALU] |68| 
        MOVL      ACC,@$BLOCKED(||ManCmd||) ; [CPU_ALU] |68| 
        MOVL      *-SP[12],ACC          ; [CPU_ALU] |68| 
        MOV       AL,*-SP[12]           ; [CPU_ALU] |68| 
        ANDB      AL,#0x1f              ; [CPU_ALU] |68| 
        MOV       *-SP[12],AL           ; [CPU_ALU] |68| 
        MOV       *-SP[11],#0           ; [CPU_ALU] |68| 
        MOVL      ACC,*-SP[12]          ; [CPU_ALU] |68| 
        LSLL      ACC,T                 ; [CPU_ALU] |68| 
        MOV       T,#22                 ; [CPU_FPU] |68| 
        ADDL      ACC,P                 ; [CPU_ALU] |68| 
        MOVL      *-SP[12],ACC          ; [CPU_ALU] |68| 
        MOVB      ACC,#7                ; [CPU_ALU] |68| 
        MOVL      XAR6,*-SP[12]         ; [CPU_ALU] |68| 
        MOVW      DP,#||StructManipDbg||+4 ; [CPU_ARAU] 
        AND       ACC,*-SP[8]           ; [CPU_ALU] |68| 
        LSLL      ACC,T                 ; [CPU_ALU] |68| 
        ADDL      ACC,XAR6              ; [CPU_ALU] |68| 
        MOVL      @$BLOCKED(||StructManipDbg||)+4,ACC ; [CPU_ALU] |68| 
	.dwpsn	file "../Application/ManState.c",line 72,column 5,is_stmt,isa 0
        MOVL      ACC,*-SP[4]           ; [CPU_ALU] |72| 
        MOVL      @$BLOCKED(||StructManipDbg||),ACC ; [CPU_ALU] |72| 
	.dwpsn	file "../Application/ManState.c",line 73,column 5,is_stmt,isa 0
        MOVL      ACC,*-SP[6]           ; [CPU_ALU] |73| 
        MOVL      @$BLOCKED(||StructManipDbg||)+2,ACC ; [CPU_ALU] |73| 
	.dwpsn	file "../Application/ManState.c",line 74,column 1,is_stmt,isa 0
        SUBB      SP,#12                ; [CPU_ARAU] 
	.dwcfi	cfa_offset, -2
$C$DW$317	.dwtag  DW_TAG_TI_branch
	.dwattr $C$DW$317, DW_AT_low_pc(0x00)
	.dwattr $C$DW$317, DW_AT_TI_return

        LRETR     ; [CPU_ALU] 
        ; return occurs ; [] 
	.dwattr $C$DW$311, DW_AT_TI_end_file("../Application/ManState.c")
	.dwattr $C$DW$311, DW_AT_TI_end_line(0x4a)
	.dwattr $C$DW$311, DW_AT_TI_end_column(0x01)
	.dwendentry
	.dwendtag $C$DW$311

	.sect	".text:ApplyPosControl"
	.clink
	.global	||ApplyPosControl||

$C$DW$318	.dwtag  DW_TAG_subprogram
	.dwattr $C$DW$318, DW_AT_name("ApplyPosControl")
	.dwattr $C$DW$318, DW_AT_low_pc(||ApplyPosControl||)
	.dwattr $C$DW$318, DW_AT_high_pc(0x00)
	.dwattr $C$DW$318, DW_AT_linkage_name("ApplyPosControl")
	.dwattr $C$DW$318, DW_AT_external
	.dwattr $C$DW$318, DW_AT_decl_file("../Application/ManState.c")
	.dwattr $C$DW$318, DW_AT_decl_line(0x8a)
	.dwattr $C$DW$318, DW_AT_decl_column(0x06)
	.dwattr $C$DW$318, DW_AT_TI_max_frame_size(-18)
	.dwpsn	file "../Application/ManState.c",line 139,column 1,is_stmt,address ||ApplyPosControl||,isa 0

	.dwfde $C$DW$CIE, ||ApplyPosControl||
$C$DW$319	.dwtag  DW_TAG_formal_parameter
	.dwattr $C$DW$319, DW_AT_name("updAxis")
	.dwattr $C$DW$319, DW_AT_type(*$C$DW$T$9)
	.dwattr $C$DW$319, DW_AT_location[DW_OP_reg0]


;***************************************************************
;* FNAME: ApplyPosControl               FR SIZE:  16           *
;*                                                             *
;* FUNCTION ENVIRONMENT                                        *
;*                                                             *
;* FUNCTION PROPERTIES                                         *
;*                            2 Parameter, 14 Auto,  0 SOE     *
;***************************************************************

||ApplyPosControl||:
	.dwcfi	cfa_offset, -2
	.dwcfi	save_reg_to_mem, 26, 0
        ADDB      SP,#16                ; [CPU_ARAU] 
	.dwcfi	cfa_offset, -18
$C$DW$320	.dwtag  DW_TAG_variable
	.dwattr $C$DW$320, DW_AT_name("err")
	.dwattr $C$DW$320, DW_AT_type(*$C$DW$T$16)
	.dwattr $C$DW$320, DW_AT_location[DW_OP_breg20 -4]

$C$DW$321	.dwtag  DW_TAG_variable
	.dwattr $C$DW$321, DW_AT_name("abserr")
	.dwattr $C$DW$321, DW_AT_type(*$C$DW$T$16)
	.dwattr $C$DW$321, DW_AT_location[DW_OP_breg20 -6]

$C$DW$322	.dwtag  DW_TAG_variable
	.dwattr $C$DW$322, DW_AT_name("ErrRate")
	.dwattr $C$DW$322, DW_AT_type(*$C$DW$T$16)
	.dwattr $C$DW$322, DW_AT_location[DW_OP_breg20 -8]

$C$DW$323	.dwtag  DW_TAG_variable
	.dwattr $C$DW$323, DW_AT_name("ProfPosForFb")
	.dwattr $C$DW$323, DW_AT_type(*$C$DW$T$16)
	.dwattr $C$DW$323, DW_AT_location[DW_OP_breg20 -10]

$C$DW$324	.dwtag  DW_TAG_variable
	.dwattr $C$DW$324, DW_AT_name("pProf")
	.dwattr $C$DW$324, DW_AT_type(*$C$DW$T$225)
	.dwattr $C$DW$324, DW_AT_location[DW_OP_breg20 -12]

$C$DW$325	.dwtag  DW_TAG_variable
	.dwattr $C$DW$325, DW_AT_name("pCtl")
	.dwattr $C$DW$325, DW_AT_type(*$C$DW$T$236)
	.dwattr $C$DW$325, DW_AT_location[DW_OP_breg20 -14]

$C$DW$326	.dwtag  DW_TAG_variable
	.dwattr $C$DW$326, DW_AT_name("updAxis")
	.dwattr $C$DW$326, DW_AT_type(*$C$DW$T$9)
	.dwattr $C$DW$326, DW_AT_location[DW_OP_breg20 -15]

$C$DW$327	.dwtag  DW_TAG_variable
	.dwattr $C$DW$327, DW_AT_name("done")
	.dwattr $C$DW$327, DW_AT_type(*$C$DW$T$9)
	.dwattr $C$DW$327, DW_AT_location[DW_OP_breg20 -16]

        MOV       *-SP[15],AL           ; [CPU_ALU] |139| 
	.dwpsn	file "../Application/ManState.c",line 146,column 5,is_stmt,isa 0
        MOV       T,#138                ; [CPU_ALU] |146| 
        MOVL      XAR4,#||ManCmd||+44   ; [CPU_ARAU] |146| 
        MPYXU     ACC,T,*-SP[15]        ; [CPU_ALU] |146| 
        ADDL      XAR4,ACC              ; [CPU_ALU] |146| 
        MOVL      *-SP[14],XAR4         ; [CPU_ALU] |146| 
	.dwpsn	file "../Application/ManState.c",line 148,column 5,is_stmt,isa 0
        MOVB      ACC,#16               ; [CPU_ALU] |148| 
        ADDL      ACC,*-SP[14]          ; [CPU_ALU] |148| 
        MOVL      *-SP[12],ACC          ; [CPU_ALU] |148| 
	.dwpsn	file "../Application/ManState.c",line 150,column 5,is_stmt,isa 0
        MOVB      ACC,#55               ; [CPU_ALU] |150| 
        ADDL      ACC,*-SP[12]          ; [CPU_ALU] |150| 
        MOVL      XAR4,ACC              ; [CPU_ALU] |150| 
        MOV       AL,*+XAR4[0]          ; [CPU_ALU] |150| 
        CMPB      AL,#1                 ; [CPU_ALU] |150| 
        B         ||$C$L62||,NEQ        ; [CPU_ALU] |150| 
        ; branchcc occurs ; [] |150| 
	.dwpsn	file "../Application/ManState.c",line 153,column 9,is_stmt,isa 0
        MOVB      ACC,#44               ; [CPU_ALU] |153| 
        ADDL      ACC,*-SP[12]          ; [CPU_ALU] |153| 
        MOVL      XAR4,ACC              ; [CPU_ALU] |153| 
        MOVB      ACC,#32               ; [CPU_ALU] |153| 
        MOV32     R0H,*+XAR4[0]         ; [CPU_FPU] |153| 
        ADDL      ACC,*-SP[12]          ; [CPU_ALU] |153| 
        MOVL      XAR4,ACC              ; [CPU_ALU] |153| 
        MOVB      AL,#1                 ; [CPU_ALU] |153| 
        MOV32     R1H,*+XAR4[0]         ; [CPU_FPU] |153| 
        MOVL      XAR4,*-SP[12]         ; [CPU_ALU] |153| 
$C$DW$328	.dwtag  DW_TAG_TI_branch
	.dwattr $C$DW$328, DW_AT_low_pc(0x00)
	.dwattr $C$DW$328, DW_AT_name("ResetProfiler")
	.dwattr $C$DW$328, DW_AT_TI_call

        LCR       #||ResetProfiler||    ; [CPU_ALU] |153| 
        ; call occurs [#||ResetProfiler||] ; [] |153| 
||$C$L62||:    
	.dwpsn	file "../Application/ManState.c",line 156,column 5,is_stmt,isa 0
        MOV       *-SP[16],#0           ; [CPU_ALU] |156| 
	.dwpsn	file "../Application/ManState.c",line 157,column 5,is_stmt,isa 0
        MOVB      ACC,#88               ; [CPU_ALU] |157| 
        ADDL      ACC,*-SP[14]          ; [CPU_ALU] |157| 
        MOVL      XAR4,ACC              ; [CPU_ALU] |157| 
        MOV       AL,*+XAR4[0]          ; [CPU_ALU] |157| 
        B         ||$C$L67||,EQ         ; [CPU_ALU] |157| 
        ; branchcc occurs ; [] |157| 
        MOVB      ACC,#96               ; [CPU_ALU] |157| 
        ADDL      ACC,*-SP[14]          ; [CPU_ALU] |157| 
        MOVL      XAR4,ACC              ; [CPU_ALU] |157| 
        MOV       AL,*+XAR4[0]          ; [CPU_ALU] |157| 
        B         ||$C$L67||,EQ         ; [CPU_ALU] |157| 
        ; branchcc occurs ; [] |157| 
	.dwpsn	file "../Application/ManState.c",line 163,column 9,is_stmt,isa 0
        MOVB      ACC,#50               ; [CPU_ALU] |163| 
        ADDL      ACC,*-SP[14]          ; [CPU_ALU] |163| 
        MOVL      XAR4,ACC              ; [CPU_ALU] |163| 
        MOVL      ACC,*+XAR4[0]         ; [CPU_ALU] |163| 
        MOVL      *-SP[10],ACC          ; [CPU_ALU] |163| 
	.dwpsn	file "../Application/ManState.c",line 165,column 9,is_stmt,isa 0
        MOVB      ACC,#55               ; [CPU_ALU] |165| 
        ADDL      ACC,*-SP[12]          ; [CPU_ALU] |165| 
        MOVL      XAR4,ACC              ; [CPU_ALU] |165| 
        MOV       AL,*+XAR4[0]          ; [CPU_ALU] |165| 
        B         ||$C$L63||,NEQ        ; [CPU_ALU] |165| 
        ; branchcc occurs ; [] |165| 
	.dwpsn	file "../Application/ManState.c",line 167,column 13,is_stmt,isa 0
        MOVB      ACC,#16               ; [CPU_ALU] |167| 
        ADDL      ACC,*-SP[14]          ; [CPU_ALU] |167| 
        MOVL      XAR4,ACC              ; [CPU_ALU] |167| 
        MOVB      ACC,#86               ; [CPU_ALU] |167| 
        ADDL      ACC,*-SP[14]          ; [CPU_ALU] |167| 
        MOVL      XAR5,ACC              ; [CPU_ALU] |167| 
        MOV32     R0H,*+XAR5[0]         ; [CPU_FPU] |167| 
$C$DW$329	.dwtag  DW_TAG_TI_branch
	.dwattr $C$DW$329, DW_AT_low_pc(0x00)
	.dwattr $C$DW$329, DW_AT_name("AdvanceProfiler")
	.dwattr $C$DW$329, DW_AT_TI_call

        LCR       #||AdvanceProfiler||  ; [CPU_ALU] |167| 
        ; call occurs [#||AdvanceProfiler||] ; [] |167| 
        MOV       *-SP[16],AL           ; [CPU_ALU] |167| 
||$C$L63||:    
	.dwpsn	file "../Application/ManState.c",line 170,column 9,is_stmt,isa 0
        MOVB      ACC,#55               ; [CPU_ALU] |170| 
        ADDL      ACC,*-SP[12]          ; [CPU_ALU] |170| 
        MOVL      XAR4,ACC              ; [CPU_ALU] |170| 
        MOV       AL,*+XAR4[0]          ; [CPU_ALU] |170| 
        CMPB      AL,#2                 ; [CPU_ALU] |170| 
        B         ||$C$L64||,NEQ        ; [CPU_ALU] |170| 
        ; branchcc occurs ; [] |170| 
	.dwpsn	file "../Application/ManState.c",line 172,column 13,is_stmt,isa 0
        MOVB      ACC,#108              ; [CPU_ALU] |172| 
        MOVL      XAR5,#||SysTimerStr|| ; [CPU_ARAU] |172| 
        ADDL      ACC,*-SP[14]          ; [CPU_ALU] |172| 
        MOVL      XAR4,ACC              ; [CPU_ALU] |172| 
$C$DW$330	.dwtag  DW_TAG_TI_branch
	.dwattr $C$DW$330, DW_AT_low_pc(0x00)
	.dwattr $C$DW$330, DW_AT_name("ResetCbitIntegrator")
	.dwattr $C$DW$330, DW_AT_TI_call

        LCR       #||ResetCbitIntegrator|| ; [CPU_ALU] |172| 
        ; call occurs [#||ResetCbitIntegrator||] ; [] |172| 
	.dwpsn	file "../Application/ManState.c",line 173,column 13,is_stmt,isa 0
        MOVL      XAR4,*-SP[14]         ; [CPU_ALU] |173| 
        MOVB      AL,#1                 ; [CPU_ALU] |173| 
        MOVIZ     R1H,#0                ; [CPU_FPU] |173| 
        MOV32     R0H,*+XAR4[0]         ; [CPU_FPU] |173| 
        MOVL      XAR4,*-SP[12]         ; [CPU_ALU] |173| 
$C$DW$331	.dwtag  DW_TAG_TI_branch
	.dwattr $C$DW$331, DW_AT_low_pc(0x00)
	.dwattr $C$DW$331, DW_AT_name("ResetProfiler")
	.dwattr $C$DW$331, DW_AT_TI_call

        LCR       #||ResetProfiler||    ; [CPU_ALU] |173| 
        ; call occurs [#||ResetProfiler||] ; [] |173| 
	.dwpsn	file "../Application/ManState.c",line 174,column 13,is_stmt,isa 0
        MOVB      XAR6,#0               ; [CPU_ALU] |174| 
        MOVB      ACC,#92               ; [CPU_ALU] |174| 
        ADDL      ACC,*-SP[14]          ; [CPU_ALU] |174| 
        MOVL      XAR4,ACC              ; [CPU_ALU] |174| 
        MOVL      *+XAR4[0],XAR6        ; [CPU_ALU] |174| 
        B         ||$C$L68||,UNC        ; [CPU_ALU] 
        ; branch occurs ; [] 
||$C$L64||:    
	.dwpsn	file "../Application/ManState.c",line 178,column 13,is_stmt,isa 0
        MOVL      XAR4,*-SP[14]         ; [CPU_ALU] |178| 
        MOVL      ACC,*+XAR4[6]         ; [CPU_ALU] |178| 
        MOVL      *-SP[8],ACC           ; [CPU_ALU] |178| 
	.dwpsn	file "../Application/ManState.c",line 179,column 13,is_stmt,isa 0
        MOV32     R1H,*-SP[10]          ; [CPU_FPU] |179| 
        MOV32     R0H,*+XAR4[0]         ; [CPU_FPU] |179| 
        SUBF32    R0H,R1H,R0H           ; [CPU_FPU] |179| 
        NOP       ; [CPU_ALU] 
        MOV32     *+XAR4[6],R0H         ; [CPU_FPU] |179| 
	.dwpsn	file "../Application/ManState.c",line 180,column 13,is_stmt,isa 0
        MOVL      XAR4,*-SP[14]         ; [CPU_ALU] |180| 
        MOV32     R1H,*-SP[8]           ; [CPU_FPU] |180| 
        MOV32     R0H,*+XAR4[6]         ; [CPU_FPU] |180| 
        SUBF32    R0H,R1H,R0H           ; [CPU_FPU] |180| 
        NOP       ; [CPU_ALU] 
        MOV32     *-SP[8],R0H           ; [CPU_FPU] |180| 
	.dwpsn	file "../Application/ManState.c",line 182,column 13,is_stmt,isa 0
        MOVIZ     R2H,#15897            ; [CPU_FPU] |182| 
        MOVIZ     R1H,#48665            ; [CPU_FPU] |182| 
        MOVXI     R2H,#39322            ; [CPU_FPU] |182| 
        MOVXI     R1H,#39322            ; [CPU_FPU] |182| 
        MOV32     R0H,*+XAR4[6]         ; [CPU_FPU] |182| 
        MINF32    R0H,R2H               ; [CPU_FPU] |182| 
        MAXF32    R0H,R1H               ; [CPU_FPU] |182| 
        MOV32     *-SP[4],R0H           ; [CPU_FPU] |182| 
	.dwpsn	file "../Application/ManState.c",line 186,column 13,is_stmt,isa 0
        MOVW      DP,#||S2M||+85        ; [CPU_ARAU] 
        TBIT      @$BLOCKED(||S2M||)+85,#8 ; [CPU_ALU] |186| 
        B         ||$C$L65||,TC         ; [CPU_ALU] |186| 
        ; branchcc occurs ; [] |186| 
	.dwpsn	file "../Application/ManState.c",line 188,column 17,is_stmt,isa 0
        MOVB      ACC,#108              ; [CPU_ALU] |188| 
        MOV32     R0H,*+XAR4[6]         ; [CPU_FPU] |188| 
        MOVL      XAR5,#||SysTimerStr|| ; [CPU_ARAU] |188| 
        ADDL      ACC,*-SP[14]          ; [CPU_ALU] |188| 
        MOVL      XAR4,ACC              ; [CPU_ALU] |188| 
$C$DW$332	.dwtag  DW_TAG_TI_branch
	.dwattr $C$DW$332, DW_AT_low_pc(0x00)
	.dwattr $C$DW$332, DW_AT_name("CbitIntegratorUpdate")
	.dwattr $C$DW$332, DW_AT_TI_call

        LCR       #||CbitIntegratorUpdate|| ; [CPU_ALU] |188| 
        ; call occurs [#||CbitIntegratorUpdate||] ; [] |188| 
        CMPB      AL,#0                 ; [CPU_ALU] |188| 
        B         ||$C$L65||,EQ         ; [CPU_ALU] |188| 
        ; branchcc occurs ; [] |188| 
	.dwpsn	file "../Application/ManState.c",line 190,column 21,is_stmt,isa 0
        MOVL      XAR4,*-SP[14]         ; [CPU_ALU] |190| 
        MOVIZ     R0H,#0                ; [CPU_FPU] |190| 
        MOV32     *+XAR4[4],R0H         ; [CPU_FPU] |190| 
	.dwpsn	file "../Application/ManState.c",line 192,column 21,is_stmt,isa 0
        MOVB      ACC,#95               ; [CPU_ALU] |192| 
        ADDL      ACC,*-SP[14]          ; [CPU_ALU] |192| 
        MOVL      XAR4,ACC              ; [CPU_ALU] |192| 
        MOV       AL,#8200              ; [CPU_ALU] |192| 
        MOV       AH,*+XAR4[0]          ; [CPU_ALU] |192| 
$C$DW$333	.dwtag  DW_TAG_TI_branch
	.dwattr $C$DW$333, DW_AT_low_pc(0x00)
	.dwattr $C$DW$333, DW_AT_name("SetManError")
	.dwattr $C$DW$333, DW_AT_TI_call

        LCR       #||SetManError||      ; [CPU_ALU] |192| 
        ; call occurs [#||SetManError||] ; [] |192| 
||$C$L65||:    
	.dwpsn	file "../Application/ManState.c",line 210,column 13,is_stmt,isa 0
        MOV32     R0H,*-SP[4]           ; [CPU_FPU] |210| 
$C$DW$334	.dwtag  DW_TAG_TI_branch
	.dwattr $C$DW$334, DW_AT_low_pc(0x00)
	.dwattr $C$DW$334, DW_AT_name("Yfabs")
	.dwattr $C$DW$334, DW_AT_TI_call

        LCR       #||Yfabs||            ; [CPU_ALU] |210| 
        ; call occurs [#||Yfabs||] ; [] |210| 
        MOV32     *-SP[6],R0H           ; [CPU_FPU] |210| 
	.dwpsn	file "../Application/ManState.c",line 213,column 13,is_stmt,isa 0
        MOVB      ACC,#90               ; [CPU_ALU] |213| 
        ADDL      ACC,*-SP[14]          ; [CPU_ALU] |213| 
        MOVL      XAR4,ACC              ; [CPU_ALU] |213| 
        MOVL      ACC,*+XAR4[0]         ; [CPU_ALU] |213| 
        B         ||$C$L66||,EQ         ; [CPU_ALU] |213| 
        ; branchcc occurs ; [] |213| 
        MOVB      ACC,#78               ; [CPU_ALU] |213| 
        ADDL      ACC,*-SP[14]          ; [CPU_ALU] |213| 
        MOVL      XAR4,ACC              ; [CPU_ALU] |213| 
        MOV32     R1H,*-SP[6]           ; [CPU_FPU] |213| 
        MOV32     R0H,*+XAR4[0]         ; [CPU_FPU] |213| 
        CMPF32    R1H,R0H               ; [CPU_FPU] |213| 
        MOVST0    ZF, NF                ; [CPU_FPU] |213| 
        B         ||$C$L66||,GEQ        ; [CPU_ALU] |213| 
        ; branchcc occurs ; [] |213| 
        MOV       AL,*-SP[16]           ; [CPU_ALU] |213| 
        B         ||$C$L66||,EQ         ; [CPU_ALU] |213| 
        ; branchcc occurs ; [] |213| 
	.dwpsn	file "../Application/ManState.c",line 215,column 17,is_stmt,isa 0
        MOVL      XAR4,*-SP[14]         ; [CPU_ALU] |215| 
        MOVIZ     R0H,#0                ; [CPU_FPU] |215| 
        MOV32     *+XAR4[4],R0H         ; [CPU_FPU] |215| 
	.dwpsn	file "../Application/ManState.c",line 216,column 17,is_stmt,isa 0
        MOVB      XAR6,#1               ; [CPU_ALU] |216| 
        MOVB      ACC,#92               ; [CPU_ALU] |216| 
        ADDL      ACC,*-SP[14]          ; [CPU_ALU] |216| 
        MOVL      XAR4,ACC              ; [CPU_ALU] |216| 
        MOVL      *+XAR4[0],XAR6        ; [CPU_ALU] |216| 
        B         ||$C$L68||,UNC        ; [CPU_ALU] 
        ; branch occurs ; [] 
||$C$L66||:    
	.dwpsn	file "../Application/ManState.c",line 220,column 17,is_stmt,isa 0
        MOVB      ACC,#128              ; [CPU_ALU] |220| 
        ADDL      ACC,*-SP[14]          ; [CPU_ALU] |220| 
        MOVL      XAR4,ACC              ; [CPU_ALU] |220| 
        MOVB      ACC,#48               ; [CPU_ALU] |220| 
        MOV32     R2H,*+XAR4[0]         ; [CPU_FPU] |220| 
        ADDL      ACC,*-SP[14]          ; [CPU_ALU] |220| 
        MOVL      XAR4,ACC              ; [CPU_ALU] |220| 
        MOVB      ACC,#10               ; [CPU_ALU] |220| 
        MOV32     R3H,*+XAR4[0]         ; [CPU_FPU] |220| 
        ADDL      ACC,*-SP[14]          ; [CPU_ALU] |220| 
        MOVL      XAR4,ACC              ; [CPU_ALU] |220| 
        MOV32     R1H,*-SP[4]           ; [CPU_FPU] |220| 
        MOVB      ACC,#10               ; [CPU_ALU] |220| 

        MOV32     R0H,*+XAR4[0]         ; [CPU_FPU] |220| 
||      MPYF32    R1H,R2H,R1H           ; [CPU_FPU] |220| 

        ADDL      ACC,*-SP[14]          ; [CPU_ALU] |220| 
        MOVL      XAR4,ACC              ; [CPU_ALU] |220| 
        ADDF32    R1H,R1H,R3H           ; [CPU_FPU] |220| 
        MOVL      XAR5,*-SP[14]         ; [CPU_ALU] |220| 
        MINF32    R1H,R0H               ; [CPU_FPU] |220| 
        MOV32     R0H,*+XAR4[0]         ; [CPU_FPU] |220| 
        NEGF32    R0H,R0H               ; [CPU_FPU] |220| 
        MAXF32    R1H,R0H               ; [CPU_FPU] |220| 
        MOV32     *+XAR5[4],R1H         ; [CPU_FPU] |220| 
	.dwpsn	file "../Application/ManState.c",line 221,column 17,is_stmt,isa 0
        MOVB      XAR6,#0               ; [CPU_ALU] |221| 
        MOVB      ACC,#92               ; [CPU_ALU] |221| 
        ADDL      ACC,*-SP[14]          ; [CPU_ALU] |221| 
        MOVL      XAR4,ACC              ; [CPU_ALU] |221| 
        MOVL      *+XAR4[0],XAR6        ; [CPU_ALU] |221| 
        B         ||$C$L68||,UNC        ; [CPU_ALU] 
        ; branch occurs ; [] 
||$C$L67||:    
	.dwpsn	file "../Application/ManState.c",line 228,column 9,is_stmt,isa 0
        MOVB      ACC,#108              ; [CPU_ALU] |228| 
        MOVL      XAR5,#||SysTimerStr|| ; [CPU_ARAU] |228| 
        ADDL      ACC,*-SP[14]          ; [CPU_ALU] |228| 
        MOVL      XAR4,ACC              ; [CPU_ALU] |228| 
$C$DW$335	.dwtag  DW_TAG_TI_branch
	.dwattr $C$DW$335, DW_AT_low_pc(0x00)
	.dwattr $C$DW$335, DW_AT_name("ResetCbitIntegrator")
	.dwattr $C$DW$335, DW_AT_TI_call

        LCR       #||ResetCbitIntegrator|| ; [CPU_ALU] |228| 
        ; call occurs [#||ResetCbitIntegrator||] ; [] |228| 
	.dwpsn	file "../Application/ManState.c",line 229,column 9,is_stmt,isa 0
        MOVL      XAR4,*-SP[14]         ; [CPU_ALU] |229| 
        MOVB      AL,#1                 ; [CPU_ALU] |229| 
        MOVIZ     R1H,#0                ; [CPU_FPU] |229| 
        MOV32     R0H,*+XAR4[0]         ; [CPU_FPU] |229| 
        MOVL      XAR4,*-SP[12]         ; [CPU_ALU] |229| 
$C$DW$336	.dwtag  DW_TAG_TI_branch
	.dwattr $C$DW$336, DW_AT_low_pc(0x00)
	.dwattr $C$DW$336, DW_AT_name("ResetProfiler")
	.dwattr $C$DW$336, DW_AT_TI_call

        LCR       #||ResetProfiler||    ; [CPU_ALU] |229| 
        ; call occurs [#||ResetProfiler||] ; [] |229| 
	.dwpsn	file "../Application/ManState.c",line 230,column 9,is_stmt,isa 0
        MOVL      XAR4,*-SP[14]         ; [CPU_ALU] |230| 
        MOVIZ     R0H,#0                ; [CPU_FPU] |230| 
        MOV32     *+XAR4[4],R0H         ; [CPU_FPU] |230| 
	.dwpsn	file "../Application/ManState.c",line 231,column 9,is_stmt,isa 0
        MOVB      XAR6,#0               ; [CPU_ALU] |231| 
        MOVB      ACC,#92               ; [CPU_ALU] |231| 
        ADDL      ACC,*-SP[14]          ; [CPU_ALU] |231| 
        MOVL      XAR4,ACC              ; [CPU_ALU] |231| 
        MOVL      *+XAR4[0],XAR6        ; [CPU_ALU] |231| 
	.dwpsn	file "../Application/ManState.c",line 234,column 1,is_stmt,isa 0
||$C$L68||:    
        SUBB      SP,#16                ; [CPU_ARAU] 
	.dwcfi	cfa_offset, -2
$C$DW$337	.dwtag  DW_TAG_TI_branch
	.dwattr $C$DW$337, DW_AT_low_pc(0x00)
	.dwattr $C$DW$337, DW_AT_TI_return

        LRETR     ; [CPU_ALU] 
        ; return occurs ; [] 
	.dwattr $C$DW$318, DW_AT_TI_end_file("../Application/ManState.c")
	.dwattr $C$DW$318, DW_AT_TI_end_line(0xea)
	.dwattr $C$DW$318, DW_AT_TI_end_column(0x01)
	.dwendentry
	.dwendtag $C$DW$318

	.sect	".text:ArmAlarm"
	.clink
	.global	||ArmAlarm||

$C$DW$338	.dwtag  DW_TAG_subprogram
	.dwattr $C$DW$338, DW_AT_name("ArmAlarm")
	.dwattr $C$DW$338, DW_AT_low_pc(||ArmAlarm||)
	.dwattr $C$DW$338, DW_AT_high_pc(0x00)
	.dwattr $C$DW$338, DW_AT_linkage_name("ArmAlarm")
	.dwattr $C$DW$338, DW_AT_external
	.dwattr $C$DW$338, DW_AT_decl_file("../Application/ManState.c")
	.dwattr $C$DW$338, DW_AT_decl_line(0xf4)
	.dwattr $C$DW$338, DW_AT_decl_column(0x06)
	.dwattr $C$DW$338, DW_AT_TI_max_frame_size(-4)
	.dwpsn	file "../Application/ManState.c",line 245,column 1,is_stmt,address ||ArmAlarm||,isa 0

	.dwfde $C$DW$CIE, ||ArmAlarm||
$C$DW$339	.dwtag  DW_TAG_formal_parameter
	.dwattr $C$DW$339, DW_AT_name("error")
	.dwattr $C$DW$339, DW_AT_type(*$C$DW$T$8)
	.dwattr $C$DW$339, DW_AT_location[DW_OP_reg0]

$C$DW$340	.dwtag  DW_TAG_formal_parameter
	.dwattr $C$DW$340, DW_AT_name("id")
	.dwattr $C$DW$340, DW_AT_type(*$C$DW$T$9)
	.dwattr $C$DW$340, DW_AT_location[DW_OP_reg1]


;***************************************************************
;* FNAME: ArmAlarm                      FR SIZE:   2           *
;*                                                             *
;* FUNCTION ENVIRONMENT                                        *
;*                                                             *
;* FUNCTION PROPERTIES                                         *
;*                            0 Parameter,  2 Auto,  0 SOE     *
;***************************************************************

||ArmAlarm||:
	.dwcfi	cfa_offset, -2
	.dwcfi	save_reg_to_mem, 26, 0
        ADDB      SP,#2                 ; [CPU_ARAU] 
	.dwcfi	cfa_offset, -4
$C$DW$341	.dwtag  DW_TAG_variable
	.dwattr $C$DW$341, DW_AT_name("error")
	.dwattr $C$DW$341, DW_AT_type(*$C$DW$T$8)
	.dwattr $C$DW$341, DW_AT_location[DW_OP_breg20 -1]

$C$DW$342	.dwtag  DW_TAG_variable
	.dwattr $C$DW$342, DW_AT_name("id")
	.dwattr $C$DW$342, DW_AT_type(*$C$DW$T$9)
	.dwattr $C$DW$342, DW_AT_location[DW_OP_breg20 -2]

        MOV       *-SP[2],AH            ; [CPU_ALU] |245| 
        MOV       *-SP[1],AL            ; [CPU_ALU] |245| 
	.dwpsn	file "../Application/ManState.c",line 246,column 5,is_stmt,isa 0
        MOVW      DP,#||ManCmd||+36     ; [CPU_ARAU] 
        MOV       @$BLOCKED(||ManCmd||)+36,AL ; [CPU_ALU] |246| 
	.dwpsn	file "../Application/ManState.c",line 247,column 5,is_stmt,isa 0
        MOV       AL,*-SP[2]            ; [CPU_ALU] |247| 
        MOV       @$BLOCKED(||ManCmd||)+37,AL ; [CPU_ALU] |247| 
	.dwpsn	file "../Application/ManState.c",line 248,column 1,is_stmt,isa 0
        SUBB      SP,#2                 ; [CPU_ARAU] 
	.dwcfi	cfa_offset, -2
$C$DW$343	.dwtag  DW_TAG_TI_branch
	.dwattr $C$DW$343, DW_AT_low_pc(0x00)
	.dwattr $C$DW$343, DW_AT_TI_return

        LRETR     ; [CPU_ALU] 
        ; return occurs ; [] 
	.dwattr $C$DW$338, DW_AT_TI_end_file("../Application/ManState.c")
	.dwattr $C$DW$338, DW_AT_TI_end_line(0xf8)
	.dwattr $C$DW$338, DW_AT_TI_end_column(0x01)
	.dwendentry
	.dwendtag $C$DW$338

	.sect	".text:NoneIsShelfConverged"
	.clink
	.global	||NoneIsShelfConverged||

$C$DW$344	.dwtag  DW_TAG_subprogram
	.dwattr $C$DW$344, DW_AT_name("NoneIsShelfConverged")
	.dwattr $C$DW$344, DW_AT_low_pc(||NoneIsShelfConverged||)
	.dwattr $C$DW$344, DW_AT_high_pc(0x00)
	.dwattr $C$DW$344, DW_AT_linkage_name("NoneIsShelfConverged")
	.dwattr $C$DW$344, DW_AT_external
	.dwattr $C$DW$344, DW_AT_type(*$C$DW$T$8)
	.dwattr $C$DW$344, DW_AT_decl_file("../Application/ManState.c")
	.dwattr $C$DW$344, DW_AT_decl_line(0xff)
	.dwattr $C$DW$344, DW_AT_decl_column(0x07)
	.dwattr $C$DW$344, DW_AT_TI_max_frame_size(-2)
	.dwpsn	file "../Application/ManState.c",line 256,column 1,is_stmt,address ||NoneIsShelfConverged||,isa 0

	.dwfde $C$DW$CIE, ||NoneIsShelfConverged||

;***************************************************************
;* FNAME: NoneIsShelfConverged          FR SIZE:   0           *
;*                                                             *
;* FUNCTION ENVIRONMENT                                        *
;*                                                             *
;* FUNCTION PROPERTIES                                         *
;*                            0 Parameter,  0 Auto,  0 SOE     *
;***************************************************************

||NoneIsShelfConverged||:
	.dwcfi	cfa_offset, -2
	.dwcfi	save_reg_to_mem, 26, 0
	.dwpsn	file "../Application/ManState.c",line 257,column 4,is_stmt,isa 0
        MOVB      AL,#0                 ; [CPU_ALU] |257| 
	.dwpsn	file "../Application/ManState.c",line 258,column 1,is_stmt,isa 0
$C$DW$345	.dwtag  DW_TAG_TI_branch
	.dwattr $C$DW$345, DW_AT_low_pc(0x00)
	.dwattr $C$DW$345, DW_AT_TI_return

        LRETR     ; [CPU_ALU] 
        ; return occurs ; [] 
	.dwattr $C$DW$344, DW_AT_TI_end_file("../Application/ManState.c")
	.dwattr $C$DW$344, DW_AT_TI_end_line(0x102)
	.dwattr $C$DW$344, DW_AT_TI_end_column(0x01)
	.dwendentry
	.dwendtag $C$DW$344

	.sect	".text:ScaraIsShelfConverged"
	.clink
	.global	||ScaraIsShelfConverged||

$C$DW$346	.dwtag  DW_TAG_subprogram
	.dwattr $C$DW$346, DW_AT_name("ScaraIsShelfConverged")
	.dwattr $C$DW$346, DW_AT_low_pc(||ScaraIsShelfConverged||)
	.dwattr $C$DW$346, DW_AT_high_pc(0x00)
	.dwattr $C$DW$346, DW_AT_linkage_name("ScaraIsShelfConverged")
	.dwattr $C$DW$346, DW_AT_external
	.dwattr $C$DW$346, DW_AT_type(*$C$DW$T$8)
	.dwattr $C$DW$346, DW_AT_decl_file("../Application/ManState.c")
	.dwattr $C$DW$346, DW_AT_decl_line(0x109)
	.dwattr $C$DW$346, DW_AT_decl_column(0x07)
	.dwattr $C$DW$346, DW_AT_TI_max_frame_size(-4)
	.dwpsn	file "../Application/ManState.c",line 266,column 1,is_stmt,address ||ScaraIsShelfConverged||,isa 0

	.dwfde $C$DW$CIE, ||ScaraIsShelfConverged||

;***************************************************************
;* FNAME: ScaraIsShelfConverged         FR SIZE:   2           *
;*                                                             *
;* FUNCTION ENVIRONMENT                                        *
;*                                                             *
;* FUNCTION PROPERTIES                                         *
;*                            2 Parameter,  0 Auto,  0 SOE     *
;***************************************************************

||ScaraIsShelfConverged||:
	.dwcfi	cfa_offset, -2
	.dwcfi	save_reg_to_mem, 26, 0
        ADDB      SP,#2                 ; [CPU_ARAU] 
	.dwcfi	cfa_offset, -4
	.dwpsn	file "../Application/ManState.c",line 267,column 5,is_stmt,isa 0
        MOVW      DP,#||ManCmd||+870    ; [CPU_ARAU] 
        MOV32     R0H,@$BLOCKED(||ManCmd||)+870 ; [CPU_FPU] |267| 
        MOVW      DP,#||DynStat12||+18  ; [CPU_ARAU] 
        MOV32     R1H,@||DynStat12||+18 ; [CPU_FPU] |267| 
        SUBF32    R0H,R1H,R0H           ; [CPU_FPU] |267| 
        MOVIZ     R1,#16323             ; [CPU_FPU] |267| 
        MOVXI     R1H,#13107            ; [CPU_FPU] |267| 
        F32TOF64  R0,R0H                ; [CPU_FPU] |267| 
        MOVIX     R1L,#16384            ; [CPU_FPU] |267| 
        ABSF64    R0,R0                 ; [CPU_FPU] |267| 
        MOVXI     R1L,#0                ; [CPU_FPU] |267| 
        CMPF64    R0,R1                 ; [CPU_FPU] |267| 
        MOVST0    ZF, NF                ; [CPU_FPU] |267| 
        B         ||$C$L69||,GT         ; [CPU_ALU] |267| 
        ; branchcc occurs ; [] |267| 
        MOVW      DP,#||ManCmd||+1008   ; [CPU_ARAU] 
        MOV32     R0H,@$BLOCKED(||ManCmd||)+1008 ; [CPU_FPU] |267| 
        MOVIZ     R3,#16323             ; [CPU_FPU] |267| 
        MOVW      DP,#||DynStat12||+88  ; [CPU_ARAU] 
        MOV32     R1H,@||DynStat12||+88 ; [CPU_FPU] |267| 
        MOVXI     R3H,#13107            ; [CPU_FPU] |267| 
        MOVIX     R3L,#16384            ; [CPU_FPU] |267| 
        SUBF32    R0H,R1H,R0H           ; [CPU_FPU] |267| 
        MOVXI     R3L,#0                ; [CPU_FPU] |267| 
        F32TOF64  R0,R0H                ; [CPU_FPU] |267| 
        ABSF64    R0,R0                 ; [CPU_FPU] |267| 
        CMPF64    R0,R3                 ; [CPU_FPU] |267| 
        MOVST0    ZF, NF                ; [CPU_FPU] |267| 
        B         ||$C$L70||,LEQ        ; [CPU_ALU] |267| 
        ; branchcc occurs ; [] |267| 
||$C$L69||:    
	.dwpsn	file "../Application/ManState.c",line 270,column 9,is_stmt,isa 0
        MOVB      AL,#0                 ; [CPU_ALU] |270| 
        B         ||$C$L71||,UNC        ; [CPU_ALU] |270| 
        ; branch occurs ; [] |270| 
||$C$L70||:    
	.dwpsn	file "../Application/ManState.c",line 272,column 5,is_stmt,isa 0
        MOVB      AL,#1                 ; [CPU_ALU] |272| 
||$C$L71||:    
	.dwpsn	file "../Application/ManState.c",line 273,column 1,is_stmt,isa 0
        SUBB      SP,#2                 ; [CPU_ARAU] 
	.dwcfi	cfa_offset, -2
$C$DW$347	.dwtag  DW_TAG_TI_branch
	.dwattr $C$DW$347, DW_AT_low_pc(0x00)
	.dwattr $C$DW$347, DW_AT_TI_return

        LRETR     ; [CPU_ALU] 
        ; return occurs ; [] 
	.dwattr $C$DW$346, DW_AT_TI_end_file("../Application/ManState.c")
	.dwattr $C$DW$346, DW_AT_TI_end_line(0x111)
	.dwattr $C$DW$346, DW_AT_TI_end_column(0x01)
	.dwendentry
	.dwendtag $C$DW$346

	.sect	".text:InitManipulator"
	.clink
	.global	||InitManipulator||

$C$DW$348	.dwtag  DW_TAG_subprogram
	.dwattr $C$DW$348, DW_AT_name("InitManipulator")
	.dwattr $C$DW$348, DW_AT_low_pc(||InitManipulator||)
	.dwattr $C$DW$348, DW_AT_high_pc(0x00)
	.dwattr $C$DW$348, DW_AT_linkage_name("InitManipulator")
	.dwattr $C$DW$348, DW_AT_external
	.dwattr $C$DW$348, DW_AT_decl_file("../Application/ManState.c")
	.dwattr $C$DW$348, DW_AT_decl_line(0x119)
	.dwattr $C$DW$348, DW_AT_decl_column(0x06)
	.dwattr $C$DW$348, DW_AT_TI_max_frame_size(-18)
	.dwpsn	file "../Application/ManState.c",line 282,column 1,is_stmt,address ||InitManipulator||,isa 0

	.dwfde $C$DW$CIE, ||InitManipulator||

;***************************************************************
;* FNAME: InitManipulator               FR SIZE:  16           *
;*                                                             *
;* FUNCTION ENVIRONMENT                                        *
;*                                                             *
;* FUNCTION PROPERTIES                                         *
;*                            0 Parameter, 15 Auto,  0 SOE     *
;***************************************************************

||InitManipulator||:
	.dwcfi	cfa_offset, -2
	.dwcfi	save_reg_to_mem, 26, 0
        ADDB      SP,#16                ; [CPU_ARAU] 
	.dwcfi	cfa_offset, -18
$C$DW$349	.dwtag  DW_TAG_variable
	.dwattr $C$DW$349, DW_AT_name("speedmax")
	.dwattr $C$DW$349, DW_AT_type(*$C$DW$T$102)
	.dwattr $C$DW$349, DW_AT_location[DW_OP_breg20 -10]

$C$DW$350	.dwtag  DW_TAG_variable
	.dwattr $C$DW$350, DW_AT_name("pNext24")
	.dwattr $C$DW$350, DW_AT_type(*$C$DW$T$236)
	.dwattr $C$DW$350, DW_AT_location[DW_OP_breg20 -12]

$C$DW$351	.dwtag  DW_TAG_variable
	.dwattr $C$DW$351, DW_AT_name("pNext12")
	.dwattr $C$DW$351, DW_AT_type(*$C$DW$T$236)
	.dwattr $C$DW$351, DW_AT_location[DW_OP_breg20 -14]

$C$DW$352	.dwtag  DW_TAG_variable
	.dwattr $C$DW$352, DW_AT_name("cnt")
	.dwattr $C$DW$352, DW_AT_type(*$C$DW$T$9)
	.dwattr $C$DW$352, DW_AT_location[DW_OP_breg20 -15]

	.dwpsn	file "../Application/ManState.c",line 289,column 11,is_stmt,isa 0
        MOV       *-SP[15],#0           ; [CPU_ALU] |289| 
        B         ||$C$L73||,UNC        ; [CPU_ALU] |289| 
        ; branch occurs ; [] |289| 
||$C$L72||:    
	.dwpsn	file "../Application/ManState.c",line 291,column 9,is_stmt,isa 0
        MOV       T,#6                  ; [CPU_ALU] |291| 
        MOVL      XAR4,#||IndividualAxCtl24|| ; [CPU_ARAU] |291| 
        MPYXU     ACC,T,*-SP[15]        ; [CPU_ALU] |291| 
        ADDL      XAR4,ACC              ; [CPU_ALU] |291| 
        MOVB      AL,#6                 ; [CPU_FPU] |291| 
$C$DW$353	.dwtag  DW_TAG_TI_branch
	.dwattr $C$DW$353, DW_AT_low_pc(0x00)
	.dwattr $C$DW$353, DW_AT_name("ClearMemRpt")
	.dwattr $C$DW$353, DW_AT_TI_call

        LCR       #||ClearMemRpt||      ; [CPU_ALU] |291| 
        ; call occurs [#||ClearMemRpt||] ; [] |291| 
	.dwpsn	file "../Application/ManState.c",line 292,column 9,is_stmt,isa 0
        MOVZ      AR4,SP                ; [CPU_ALU] |292| 
        SUBB      XAR4,#10              ; [CPU_ARAU] |292| 
        MOVZ      AR4,AR4               ; [CPU_ALU] |292| 
        CLRC      SXM                   ; [CPU_ALU] 
        MOV       ACC,*-SP[15] << 1     ; [CPU_ALU] |292| 
        ADDL      XAR4,ACC              ; [CPU_ALU] |292| 
        MOVIZ     R0H,#16051            ; [CPU_FPU] |292| 
        MOVXI     R0H,#13107            ; [CPU_FPU] |292| 
        MOV32     *+XAR4[0],R0H         ; [CPU_FPU] |292| 
	.dwpsn	file "../Application/ManState.c",line 289,column 42,is_stmt,isa 0
        INC       *-SP[15]              ; [CPU_ALU] |289| 
||$C$L73||:    
	.dwpsn	file "../Application/ManState.c",line 289,column 21,is_stmt,isa 0
        MOVW      DP,#||NUM_24V_AXES||  ; [CPU_ARAU] 
        MOV       AL,@||NUM_24V_AXES||  ; [CPU_ALU] |289| 
        CMP       AL,*-SP[15]           ; [CPU_ALU] |289| 
        B         ||$C$L72||,HI         ; [CPU_ALU] |289| 
        ; branchcc occurs ; [] |289| 
	.dwpsn	file "../Application/ManState.c",line 294,column 11,is_stmt,isa 0
        MOV       *-SP[15],#0           ; [CPU_ALU] |294| 
        B         ||$C$L75||,UNC        ; [CPU_ALU] |294| 
        ; branch occurs ; [] |294| 
||$C$L74||:    
	.dwpsn	file "../Application/ManState.c",line 296,column 9,is_stmt,isa 0
        MOV       T,#6                  ; [CPU_ALU] |296| 
        MOVL      XAR4,#||IndividualAxCtl12|| ; [CPU_ARAU] |296| 
        MPYXU     ACC,T,*-SP[15]        ; [CPU_ALU] |296| 
        ADDL      XAR4,ACC              ; [CPU_ALU] |296| 
        MOVB      AL,#6                 ; [CPU_FPU] |296| 
$C$DW$354	.dwtag  DW_TAG_TI_branch
	.dwattr $C$DW$354, DW_AT_low_pc(0x00)
	.dwattr $C$DW$354, DW_AT_name("ClearMemRpt")
	.dwattr $C$DW$354, DW_AT_TI_call

        LCR       #||ClearMemRpt||      ; [CPU_ALU] |296| 
        ; call occurs [#||ClearMemRpt||] ; [] |296| 
	.dwpsn	file "../Application/ManState.c",line 294,column 49,is_stmt,isa 0
        INC       *-SP[15]              ; [CPU_ALU] |294| 
||$C$L75||:    
	.dwpsn	file "../Application/ManState.c",line 294,column 21,is_stmt,isa 0
        MOVW      DP,#||NUM_12V_AXES_TOTAL|| ; [CPU_ARAU] 
        MOV       AL,@||NUM_12V_AXES_TOTAL|| ; [CPU_ALU] |294| 
        CMP       AL,*-SP[15]           ; [CPU_ALU] |294| 
        B         ||$C$L74||,HI         ; [CPU_ALU] |294| 
        ; branchcc occurs ; [] |294| 
	.dwpsn	file "../Application/ManState.c",line 299,column 5,is_stmt,isa 0
        B         ||$C$L79||,UNC        ; [CPU_ALU] |299| 
        ; branch occurs ; [] |299| 
||$C$L76||:    
	.dwpsn	file "../Application/ManState.c",line 304,column 9,is_stmt,isa 0
        MOVW      DP,#||ManGeo||+98     ; [CPU_ARAU] 
        MOVL      ACC,@$BLOCKED(||ManGeo||)+98 ; [CPU_ALU] |304| 
        MOVL      *-SP[10],ACC          ; [CPU_ALU] |304| 
	.dwpsn	file "../Application/ManState.c",line 305,column 9,is_stmt,isa 0
        MOVL      ACC,@$BLOCKED(||ManGeo||)+100 ; [CPU_ALU] |305| 
        MOVL      *-SP[8],ACC           ; [CPU_ALU] |305| 
	.dwpsn	file "../Application/ManState.c",line 306,column 9,is_stmt,isa 0
        MOVL      ACC,@$BLOCKED(||ManGeo||)+102 ; [CPU_ALU] |306| 
        MOVL      *-SP[6],ACC           ; [CPU_ALU] |306| 
	.dwpsn	file "../Application/ManState.c",line 307,column 9,is_stmt,isa 0
        B         ||$C$L80||,UNC        ; [CPU_ALU] |307| 
        ; branch occurs ; [] |307| 
||$C$L77||:    
	.dwpsn	file "../Application/ManState.c",line 309,column 9,is_stmt,isa 0
        MOVW      DP,#||ManGeo||+142    ; [CPU_ARAU] 
        MOVL      ACC,@$BLOCKED(||ManGeo||)+142 ; [CPU_ALU] |309| 
        MOVL      *-SP[10],ACC          ; [CPU_ALU] |309| 
	.dwpsn	file "../Application/ManState.c",line 310,column 9,is_stmt,isa 0
        B         ||$C$L80||,UNC        ; [CPU_ALU] |310| 
        ; branch occurs ; [] |310| 
||$C$L78||:    
	.dwpsn	file "../Application/ManState.c",line 312,column 9,is_stmt,isa 0
$C$DW$355	.dwtag  DW_TAG_TI_branch
	.dwattr $C$DW$355, DW_AT_low_pc(0x00)
	.dwattr $C$DW$355, DW_AT_name("SevereBugUnknownManipualtor")
	.dwattr $C$DW$355, DW_AT_TI_call

        LCR       #||SevereBugUnknownManipualtor|| ; [CPU_ALU] |312| 
        ; call occurs [#||SevereBugUnknownManipualtor||] ; [] |312| 
	.dwpsn	file "../Application/ManState.c",line 313,column 5,is_stmt,isa 0
        B         ||$C$L80||,UNC        ; [CPU_ALU] |313| 
        ; branch occurs ; [] |313| 
||$C$L79||:    
	.dwpsn	file "../Application/ManState.c",line 299,column 5,is_stmt,isa 0
        MOVW      DP,#||ManipulatorType|| ; [CPU_ARAU] 
        MOV       AL,@||ManipulatorType|| ; [CPU_ALU] |299| 
        B         ||$C$L80||,EQ         ; [CPU_ALU] |299| 
        ; branchcc occurs ; [] |299| 
        CMPB      AL,#1                 ; [CPU_ALU] |299| 
        B         ||$C$L76||,EQ         ; [CPU_ALU] |299| 
        ; branchcc occurs ; [] |299| 
        CMPB      AL,#2                 ; [CPU_ALU] |299| 
        B         ||$C$L77||,EQ         ; [CPU_ALU] |299| 
        ; branchcc occurs ; [] |299| 
        B         ||$C$L78||,UNC        ; [CPU_ALU] |299| 
        ; branch occurs ; [] |299| 
||$C$L80||:    
	.dwpsn	file "../Application/ManState.c",line 315,column 11,is_stmt,isa 0
        MOV       *-SP[15],#0           ; [CPU_ALU] |315| 
        B         ||$C$L82||,UNC        ; [CPU_ALU] |315| 
        ; branch occurs ; [] |315| 
||$C$L81||:    
	.dwpsn	file "../Application/ManState.c",line 317,column 9,is_stmt,isa 0
