;***************************************************************
;* TMS320C2000 G3 C/C++ Codegen                               PC v22.6.1.LTS *
;* Date/Time created: Wed May 15 14:57:02 2024                 *
;***************************************************************
	.compiler_opts --abi=eabi --cla_support=cla0 --float_support=fpu64 --hll_source=on --idiv_support=idiv0 --issue_remarks --mem_model:code=flat --mem_model:data=large --object_format=elf --quiet --silicon_errata_fpu1_workaround=off --silicon_version=28 --symdebug:dwarf --symdebug:dwarf_version=4 --tmu_support=tmu0 
	.asg	XAR2, FP

$C$DW$CU	.dwtag  DW_TAG_compile_unit
	.dwattr $C$DW$CU, DW_AT_name("../Application/ObjectDictionary2.c")
	.dwattr $C$DW$CU, DW_AT_producer("TI TMS320C2000 G3 C/C++ Codegen PC v22.6.1.LTS Copyright (c) 1996-2018 Texas Instruments Incorporated")
	.dwattr $C$DW$CU, DW_AT_TI_version(0x01)
	.dwattr $C$DW$CU, DW_AT_comp_dir("C:\Yahali\Nimrod\Sw3\BolshoyManipCpu2\CPU2")
$C$DW$1	.dwtag  DW_TAG_variable
	.dwattr $C$DW$1, DW_AT_name("ParTable")
	.dwattr $C$DW$1, DW_AT_linkage_name("ParTable")
	.dwattr $C$DW$1, DW_AT_type(*$C$DW$T$246)
	.dwattr $C$DW$1, DW_AT_declaration
	.dwattr $C$DW$1, DW_AT_external
	.dwattr $C$DW$1, DW_AT_decl_file("..\Application\StructDef2.h")
	.dwattr $C$DW$1, DW_AT_decl_line(0x481)
	.dwattr $C$DW$1, DW_AT_decl_column(0x29)

$C$DW$2	.dwtag  DW_TAG_variable
	.dwattr $C$DW$2, DW_AT_name("CalibPtrTable")
	.dwattr $C$DW$2, DW_AT_linkage_name("CalibPtrTable")
	.dwattr $C$DW$2, DW_AT_type(*$C$DW$T$233)
	.dwattr $C$DW$2, DW_AT_declaration
	.dwattr $C$DW$2, DW_AT_external
	.dwattr $C$DW$2, DW_AT_decl_file("..\Application\StructDef2.h")
	.dwattr $C$DW$2, DW_AT_decl_line(0x494)
	.dwattr $C$DW$2, DW_AT_decl_column(0x26)


$C$DW$3	.dwtag  DW_TAG_subprogram
	.dwattr $C$DW$3, DW_AT_name("RestoreInts")
	.dwattr $C$DW$3, DW_AT_linkage_name("RestoreInts")
	.dwattr $C$DW$3, DW_AT_declaration
	.dwattr $C$DW$3, DW_AT_external
	.dwattr $C$DW$3, DW_AT_decl_file("..\Application\SysUtils2.h")
	.dwattr $C$DW$3, DW_AT_decl_line(0x36)
	.dwattr $C$DW$3, DW_AT_decl_column(0x06)
$C$DW$4	.dwtag  DW_TAG_formal_parameter
	.dwattr $C$DW$4, DW_AT_type(*$C$DW$T$9)

	.dwendtag $C$DW$3


$C$DW$5	.dwtag  DW_TAG_subprogram
	.dwattr $C$DW$5, DW_AT_name("SetSysTimerTargetSec")
	.dwattr $C$DW$5, DW_AT_linkage_name("SetSysTimerTargetSec")
	.dwattr $C$DW$5, DW_AT_declaration
	.dwattr $C$DW$5, DW_AT_external
	.dwattr $C$DW$5, DW_AT_decl_file("..\Application\TimerArr2.h")
	.dwattr $C$DW$5, DW_AT_decl_line(0x46)
	.dwattr $C$DW$5, DW_AT_decl_column(0x06)
$C$DW$6	.dwtag  DW_TAG_formal_parameter
	.dwattr $C$DW$6, DW_AT_type(*$C$DW$T$9)

$C$DW$7	.dwtag  DW_TAG_formal_parameter
	.dwattr $C$DW$7, DW_AT_type(*$C$DW$T$16)

$C$DW$8	.dwtag  DW_TAG_formal_parameter
	.dwattr $C$DW$8, DW_AT_type(*$C$DW$T$255)

	.dwendtag $C$DW$5


$C$DW$9	.dwtag  DW_TAG_subprogram
	.dwattr $C$DW$9, DW_AT_name("KillCLA")
	.dwattr $C$DW$9, DW_AT_linkage_name("KillCLA")
	.dwattr $C$DW$9, DW_AT_declaration
	.dwattr $C$DW$9, DW_AT_external
	.dwattr $C$DW$9, DW_AT_decl_file("../Application/ObjectDictionary2.c")
	.dwattr $C$DW$9, DW_AT_decl_line(0x285)
	.dwattr $C$DW$9, DW_AT_decl_column(0x06)
	.dwendtag $C$DW$9


$C$DW$10	.dwtag  DW_TAG_subprogram
	.dwattr $C$DW$10, DW_AT_name("MemClr")
	.dwattr $C$DW$10, DW_AT_linkage_name("MemClr")
	.dwattr $C$DW$10, DW_AT_declaration
	.dwattr $C$DW$10, DW_AT_external
	.dwattr $C$DW$10, DW_AT_decl_file("..\Application\SysUtils2.h")
	.dwattr $C$DW$10, DW_AT_decl_line(0x08)
	.dwattr $C$DW$10, DW_AT_decl_column(0x06)
$C$DW$11	.dwtag  DW_TAG_formal_parameter
	.dwattr $C$DW$11, DW_AT_type(*$C$DW$T$100)

$C$DW$12	.dwtag  DW_TAG_formal_parameter
	.dwattr $C$DW$12, DW_AT_type(*$C$DW$T$9)

	.dwendtag $C$DW$10


$C$DW$13	.dwtag  DW_TAG_subprogram
	.dwattr $C$DW$13, DW_AT_name("SetManipulatorControlWord")
	.dwattr $C$DW$13, DW_AT_linkage_name("SetManipulatorControlWord")
	.dwattr $C$DW$13, DW_AT_declaration
	.dwattr $C$DW$13, DW_AT_external
	.dwattr $C$DW$13, DW_AT_decl_file("..\Application\Functions2.h")
	.dwattr $C$DW$13, DW_AT_decl_line(0xdd)
	.dwattr $C$DW$13, DW_AT_decl_column(0x06)
$C$DW$14	.dwtag  DW_TAG_formal_parameter
	.dwattr $C$DW$14, DW_AT_type(*$C$DW$T$9)

	.dwendtag $C$DW$13


$C$DW$15	.dwtag  DW_TAG_subprogram
	.dwattr $C$DW$15, DW_AT_name("SetProfilingMode")
	.dwattr $C$DW$15, DW_AT_linkage_name("SetProfilingMode")
	.dwattr $C$DW$15, DW_AT_declaration
	.dwattr $C$DW$15, DW_AT_external
	.dwattr $C$DW$15, DW_AT_decl_file("..\Application\ManState.h")
	.dwattr $C$DW$15, DW_AT_decl_line(0x1bc)
	.dwattr $C$DW$15, DW_AT_decl_column(0x06)
$C$DW$16	.dwtag  DW_TAG_formal_parameter
	.dwattr $C$DW$16, DW_AT_type(*$C$DW$T$256)

	.dwendtag $C$DW$15


$C$DW$17	.dwtag  DW_TAG_subprogram
	.dwattr $C$DW$17, DW_AT_name("ResetProfiler")
	.dwattr $C$DW$17, DW_AT_linkage_name("ResetProfiler")
	.dwattr $C$DW$17, DW_AT_declaration
	.dwattr $C$DW$17, DW_AT_external
	.dwattr $C$DW$17, DW_AT_decl_file("..\Application\TrapezeProfiler2.h")
	.dwattr $C$DW$17, DW_AT_decl_line(0x23)
	.dwattr $C$DW$17, DW_AT_decl_column(0x06)
$C$DW$18	.dwtag  DW_TAG_formal_parameter
	.dwattr $C$DW$18, DW_AT_type(*$C$DW$T$253)

$C$DW$19	.dwtag  DW_TAG_formal_parameter
	.dwattr $C$DW$19, DW_AT_type(*$C$DW$T$16)

$C$DW$20	.dwtag  DW_TAG_formal_parameter
	.dwattr $C$DW$20, DW_AT_type(*$C$DW$T$16)

$C$DW$21	.dwtag  DW_TAG_formal_parameter
	.dwattr $C$DW$21, DW_AT_type(*$C$DW$T$9)

	.dwendtag $C$DW$17


$C$DW$22	.dwtag  DW_TAG_subprogram
	.dwattr $C$DW$22, DW_AT_name("SetManipulatorIndividualRef24")
	.dwattr $C$DW$22, DW_AT_linkage_name("SetManipulatorIndividualRef24")
	.dwattr $C$DW$22, DW_AT_declaration
	.dwattr $C$DW$22, DW_AT_external
	.dwattr $C$DW$22, DW_AT_decl_file("..\Application\Functions2.h")
	.dwattr $C$DW$22, DW_AT_decl_line(0xca)
	.dwattr $C$DW$22, DW_AT_decl_column(0x06)
$C$DW$23	.dwtag  DW_TAG_formal_parameter
	.dwattr $C$DW$23, DW_AT_type(*$C$DW$T$9)

$C$DW$24	.dwtag  DW_TAG_formal_parameter
	.dwattr $C$DW$24, DW_AT_type(*$C$DW$T$16)

$C$DW$25	.dwtag  DW_TAG_formal_parameter
	.dwattr $C$DW$25, DW_AT_type(*$C$DW$T$9)

	.dwendtag $C$DW$22


$C$DW$26	.dwtag  DW_TAG_subprogram
	.dwattr $C$DW$26, DW_AT_name("SetManipulatorIndividualMon24")
	.dwattr $C$DW$26, DW_AT_linkage_name("SetManipulatorIndividualMon24")
	.dwattr $C$DW$26, DW_AT_declaration
	.dwattr $C$DW$26, DW_AT_external
	.dwattr $C$DW$26, DW_AT_decl_file("..\Application\Functions2.h")
	.dwattr $C$DW$26, DW_AT_decl_line(0xcc)
	.dwattr $C$DW$26, DW_AT_decl_column(0x06)
$C$DW$27	.dwtag  DW_TAG_formal_parameter
	.dwattr $C$DW$27, DW_AT_type(*$C$DW$T$9)

$C$DW$28	.dwtag  DW_TAG_formal_parameter
	.dwattr $C$DW$28, DW_AT_type(*$C$DW$T$8)

	.dwendtag $C$DW$26


$C$DW$29	.dwtag  DW_TAG_subprogram
	.dwattr $C$DW$29, DW_AT_name("SetManipulatorIndividualRef12")
	.dwattr $C$DW$29, DW_AT_linkage_name("SetManipulatorIndividualRef12")
	.dwattr $C$DW$29, DW_AT_declaration
	.dwattr $C$DW$29, DW_AT_external
	.dwattr $C$DW$29, DW_AT_decl_file("..\Application\Functions2.h")
	.dwattr $C$DW$29, DW_AT_decl_line(0xc9)
	.dwattr $C$DW$29, DW_AT_decl_column(0x06)
$C$DW$30	.dwtag  DW_TAG_formal_parameter
	.dwattr $C$DW$30, DW_AT_type(*$C$DW$T$9)

$C$DW$31	.dwtag  DW_TAG_formal_parameter
	.dwattr $C$DW$31, DW_AT_type(*$C$DW$T$16)

	.dwendtag $C$DW$29


$C$DW$32	.dwtag  DW_TAG_subprogram
	.dwattr $C$DW$32, DW_AT_name("SetManipulatorIndividualMon12")
	.dwattr $C$DW$32, DW_AT_linkage_name("SetManipulatorIndividualMon12")
	.dwattr $C$DW$32, DW_AT_declaration
	.dwattr $C$DW$32, DW_AT_external
	.dwattr $C$DW$32, DW_AT_decl_file("..\Application\Functions2.h")
	.dwattr $C$DW$32, DW_AT_decl_line(0xcb)
	.dwattr $C$DW$32, DW_AT_decl_column(0x06)
$C$DW$33	.dwtag  DW_TAG_formal_parameter
	.dwattr $C$DW$33, DW_AT_type(*$C$DW$T$9)

$C$DW$34	.dwtag  DW_TAG_formal_parameter
	.dwattr $C$DW$34, DW_AT_type(*$C$DW$T$8)

	.dwendtag $C$DW$32


$C$DW$35	.dwtag  DW_TAG_subprogram
	.dwattr $C$DW$35, DW_AT_name("SetHomePosition24")
	.dwattr $C$DW$35, DW_AT_linkage_name("SetHomePosition24")
	.dwattr $C$DW$35, DW_AT_declaration
	.dwattr $C$DW$35, DW_AT_external
	.dwattr $C$DW$35, DW_AT_decl_file("..\Application\Functions2.h")
	.dwattr $C$DW$35, DW_AT_decl_line(0x109)
	.dwattr $C$DW$35, DW_AT_decl_column(0x06)
$C$DW$36	.dwtag  DW_TAG_formal_parameter
	.dwattr $C$DW$36, DW_AT_type(*$C$DW$T$16)

$C$DW$37	.dwtag  DW_TAG_formal_parameter
	.dwattr $C$DW$37, DW_AT_type(*$C$DW$T$9)

	.dwendtag $C$DW$35


$C$DW$38	.dwtag  DW_TAG_subprogram
	.dwattr $C$DW$38, DW_AT_name("SetHomePosition12")
	.dwattr $C$DW$38, DW_AT_linkage_name("SetHomePosition12")
	.dwattr $C$DW$38, DW_AT_declaration
	.dwattr $C$DW$38, DW_AT_external
	.dwattr $C$DW$38, DW_AT_decl_file("..\Application\Functions2.h")
	.dwattr $C$DW$38, DW_AT_decl_line(0x10a)
	.dwattr $C$DW$38, DW_AT_decl_column(0x06)
$C$DW$39	.dwtag  DW_TAG_formal_parameter
	.dwattr $C$DW$39, DW_AT_type(*$C$DW$T$16)

$C$DW$40	.dwtag  DW_TAG_formal_parameter
	.dwattr $C$DW$40, DW_AT_type(*$C$DW$T$9)

	.dwendtag $C$DW$38


$C$DW$41	.dwtag  DW_TAG_subprogram
	.dwattr $C$DW$41, DW_AT_name("GetManipulatorProgram")
	.dwattr $C$DW$41, DW_AT_linkage_name("GetManipulatorProgram")
	.dwattr $C$DW$41, DW_AT_declaration
	.dwattr $C$DW$41, DW_AT_external
	.dwattr $C$DW$41, DW_AT_decl_file("..\Application\Functions2.h")
	.dwattr $C$DW$41, DW_AT_decl_line(0xcf)
	.dwattr $C$DW$41, DW_AT_decl_column(0x06)
$C$DW$42	.dwtag  DW_TAG_formal_parameter
	.dwattr $C$DW$42, DW_AT_type(*$C$DW$T$303)

$C$DW$43	.dwtag  DW_TAG_formal_parameter
	.dwattr $C$DW$43, DW_AT_type(*$C$DW$T$78)

$C$DW$44	.dwtag  DW_TAG_formal_parameter
	.dwattr $C$DW$44, DW_AT_type(*$C$DW$T$78)

$C$DW$45	.dwtag  DW_TAG_formal_parameter
	.dwattr $C$DW$45, DW_AT_type(*$C$DW$T$78)

$C$DW$46	.dwtag  DW_TAG_formal_parameter
	.dwattr $C$DW$46, DW_AT_type(*$C$DW$T$100)

	.dwendtag $C$DW$41


$C$DW$47	.dwtag  DW_TAG_subprogram
	.dwattr $C$DW$47, DW_AT_name("ProgramManipulator")
	.dwattr $C$DW$47, DW_AT_linkage_name("ProgramManipulator")
	.dwattr $C$DW$47, DW_AT_declaration
	.dwattr $C$DW$47, DW_AT_external
	.dwattr $C$DW$47, DW_AT_decl_file("..\Application\Functions2.h")
	.dwattr $C$DW$47, DW_AT_decl_line(0xce)
	.dwattr $C$DW$47, DW_AT_decl_column(0x06)
$C$DW$48	.dwtag  DW_TAG_formal_parameter
	.dwattr $C$DW$48, DW_AT_type(*$C$DW$T$16)

$C$DW$49	.dwtag  DW_TAG_formal_parameter
	.dwattr $C$DW$49, DW_AT_type(*$C$DW$T$16)

$C$DW$50	.dwtag  DW_TAG_formal_parameter
	.dwattr $C$DW$50, DW_AT_type(*$C$DW$T$9)

	.dwendtag $C$DW$47


$C$DW$51	.dwtag  DW_TAG_subprogram
	.dwattr $C$DW$51, DW_AT_name("SetSysTimerTarget")
	.dwattr $C$DW$51, DW_AT_linkage_name("SetSysTimerTarget")
	.dwattr $C$DW$51, DW_AT_declaration
	.dwattr $C$DW$51, DW_AT_external
	.dwattr $C$DW$51, DW_AT_decl_file("..\Application\TimerArr2.h")
	.dwattr $C$DW$51, DW_AT_decl_line(0x43)
	.dwattr $C$DW$51, DW_AT_decl_column(0x06)
$C$DW$52	.dwtag  DW_TAG_formal_parameter
	.dwattr $C$DW$52, DW_AT_type(*$C$DW$T$9)

$C$DW$53	.dwtag  DW_TAG_formal_parameter
	.dwattr $C$DW$53, DW_AT_type(*$C$DW$T$13)

$C$DW$54	.dwtag  DW_TAG_formal_parameter
	.dwattr $C$DW$54, DW_AT_type(*$C$DW$T$255)

	.dwendtag $C$DW$51


$C$DW$55	.dwtag  DW_TAG_subprogram
	.dwattr $C$DW$55, DW_AT_name("ClearMemRpt")
	.dwattr $C$DW$55, DW_AT_linkage_name("ClearMemRpt")
	.dwattr $C$DW$55, DW_AT_declaration
	.dwattr $C$DW$55, DW_AT_external
	.dwattr $C$DW$55, DW_AT_decl_file("..\Application\SysUtils2.h")
	.dwattr $C$DW$55, DW_AT_decl_line(0x27)
	.dwattr $C$DW$55, DW_AT_decl_column(0x06)
$C$DW$56	.dwtag  DW_TAG_formal_parameter
	.dwattr $C$DW$56, DW_AT_type(*$C$DW$T$100)

$C$DW$57	.dwtag  DW_TAG_formal_parameter
	.dwattr $C$DW$57, DW_AT_type(*$C$DW$T$9)

	.dwendtag $C$DW$55


$C$DW$58	.dwtag  DW_TAG_subprogram
	.dwattr $C$DW$58, DW_AT_name("ApplyManCalibration")
	.dwattr $C$DW$58, DW_AT_linkage_name("ApplyManCalibration")
	.dwattr $C$DW$58, DW_AT_declaration
	.dwattr $C$DW$58, DW_AT_external
	.dwattr $C$DW$58, DW_AT_decl_file("..\Application\Functions2.h")
	.dwattr $C$DW$58, DW_AT_decl_line(0xd7)
	.dwattr $C$DW$58, DW_AT_decl_column(0x07)
	.dwendtag $C$DW$58

$C$DW$59	.dwtag  DW_TAG_variable
	.dwattr $C$DW$59, DW_AT_name("NUM_24V_AXES")
	.dwattr $C$DW$59, DW_AT_linkage_name("NUM_24V_AXES")
	.dwattr $C$DW$59, DW_AT_type(*$C$DW$T$9)
	.dwattr $C$DW$59, DW_AT_declaration
	.dwattr $C$DW$59, DW_AT_external
	.dwattr $C$DW$59, DW_AT_decl_file("..\Application\StructDef2.h")
	.dwattr $C$DW$59, DW_AT_decl_line(0x26d)
	.dwattr $C$DW$59, DW_AT_decl_column(0x1b)

$C$DW$60	.dwtag  DW_TAG_variable
	.dwattr $C$DW$60, DW_AT_name("NUM_12V_AXES_TOTAL")
	.dwattr $C$DW$60, DW_AT_linkage_name("NUM_12V_AXES_TOTAL")
	.dwattr $C$DW$60, DW_AT_type(*$C$DW$T$9)
	.dwattr $C$DW$60, DW_AT_declaration
	.dwattr $C$DW$60, DW_AT_external
	.dwattr $C$DW$60, DW_AT_decl_file("..\Application\StructDef2.h")
	.dwattr $C$DW$60, DW_AT_decl_line(0x271)
	.dwattr $C$DW$60, DW_AT_decl_column(0x1b)

$C$DW$61	.dwtag  DW_TAG_variable
	.dwattr $C$DW$61, DW_AT_name("N_ParTable")
	.dwattr $C$DW$61, DW_AT_linkage_name("N_ParTable")
	.dwattr $C$DW$61, DW_AT_type(*$C$DW$T$345)
	.dwattr $C$DW$61, DW_AT_declaration
	.dwattr $C$DW$61, DW_AT_external
	.dwattr $C$DW$61, DW_AT_decl_file("..\Application\StructDef2.h")
	.dwattr $C$DW$61, DW_AT_decl_line(0x489)
	.dwattr $C$DW$61, DW_AT_decl_column(0x21)

$C$DW$62	.dwtag  DW_TAG_variable
	.dwattr $C$DW$62, DW_AT_name("N_CALIB_RECS")
	.dwattr $C$DW$62, DW_AT_linkage_name("N_CALIB_RECS")
	.dwattr $C$DW$62, DW_AT_type(*$C$DW$T$345)
	.dwattr $C$DW$62, DW_AT_declaration
	.dwattr $C$DW$62, DW_AT_external
	.dwattr $C$DW$62, DW_AT_decl_file("..\Application\StructDef2.h")
	.dwattr $C$DW$62, DW_AT_decl_line(0x495)
	.dwattr $C$DW$62, DW_AT_decl_column(0x21)

$C$DW$63	.dwtag  DW_TAG_variable
	.dwattr $C$DW$63, DW_AT_name("ManipulatorType")
	.dwattr $C$DW$63, DW_AT_linkage_name("ManipulatorType")
	.dwattr $C$DW$63, DW_AT_type(*$C$DW$T$9)
	.dwattr $C$DW$63, DW_AT_declaration
	.dwattr $C$DW$63, DW_AT_external
	.dwattr $C$DW$63, DW_AT_decl_file("..\Application\StructDef2.h")
	.dwattr $C$DW$63, DW_AT_decl_line(0x503)
	.dwattr $C$DW$63, DW_AT_decl_column(0x1b)

$C$DW$64	.dwtag  DW_TAG_variable
	.dwattr $C$DW$64, DW_AT_name("OverRideSwitches")
	.dwattr $C$DW$64, DW_AT_linkage_name("OverRideSwitches")
	.dwattr $C$DW$64, DW_AT_type(*$C$DW$T$8)
	.dwattr $C$DW$64, DW_AT_declaration
	.dwattr $C$DW$64, DW_AT_external
	.dwattr $C$DW$64, DW_AT_decl_file("..\Application\StructDef2.h")
	.dwattr $C$DW$64, DW_AT_decl_line(0x515)
	.dwattr $C$DW$64, DW_AT_decl_column(0x12)

	.global	||SizeofObjDict||
	.sect	".const"
	.align	1
	.elfsym	||SizeofObjDict||,SYM_SIZE(1),SYM_BLOCKED(1)
||SizeofObjDict||:
	.bits		0x1b,16
			; SizeofObjDict @ 0

$C$DW$65	.dwtag  DW_TAG_variable
	.dwattr $C$DW$65, DW_AT_name("SizeofObjDict")
	.dwattr $C$DW$65, DW_AT_linkage_name("SizeofObjDict")
	.dwattr $C$DW$65, DW_AT_location[DW_OP_addr ||SizeofObjDict||]
	.dwattr $C$DW$65, DW_AT_type(*$C$DW$T$345)
	.dwattr $C$DW$65, DW_AT_external
	.dwattr $C$DW$65, DW_AT_decl_file("../Application/ObjectDictionary2.c")
	.dwattr $C$DW$65, DW_AT_decl_line(0x70)
	.dwattr $C$DW$65, DW_AT_decl_column(0x16)

	.global	||nGetCanNetDataPtr||
	.sect	".const"
	.align	1
	.elfsym	||nGetCanNetDataPtr||,SYM_SIZE(1),SYM_BLOCKED(1)
||nGetCanNetDataPtr||:
	.bits		0x7,16
			; nGetCanNetDataPtr @ 0

$C$DW$66	.dwtag  DW_TAG_variable
	.dwattr $C$DW$66, DW_AT_name("nGetCanNetDataPtr")
	.dwattr $C$DW$66, DW_AT_linkage_name("nGetCanNetDataPtr")
	.dwattr $C$DW$66, DW_AT_location[DW_OP_addr ||nGetCanNetDataPtr||]
	.dwattr $C$DW$66, DW_AT_type(*$C$DW$T$345)
	.dwattr $C$DW$66, DW_AT_external
	.dwattr $C$DW$66, DW_AT_decl_file("../Application/ObjectDictionary2.c")
	.dwattr $C$DW$66, DW_AT_decl_line(0x735)
	.dwattr $C$DW$66, DW_AT_decl_column(0x16)


$C$DW$67	.dwtag  DW_TAG_subprogram
	.dwattr $C$DW$67, DW_AT_name("isNan")
	.dwattr $C$DW$67, DW_AT_linkage_name("isNan")
	.dwattr $C$DW$67, DW_AT_type(*$C$DW$T$8)
	.dwattr $C$DW$67, DW_AT_declaration
	.dwattr $C$DW$67, DW_AT_external
	.dwattr $C$DW$67, DW_AT_decl_file("..\Application\SysUtils2.h")
	.dwattr $C$DW$67, DW_AT_decl_line(0x1f)
	.dwattr $C$DW$67, DW_AT_decl_column(0x07)
$C$DW$68	.dwtag  DW_TAG_formal_parameter
	.dwattr $C$DW$68, DW_AT_type(*$C$DW$T$78)

	.dwendtag $C$DW$67


$C$DW$69	.dwtag  DW_TAG_subprogram
	.dwattr $C$DW$69, DW_AT_name("BlockInts")
	.dwattr $C$DW$69, DW_AT_linkage_name("BlockInts")
	.dwattr $C$DW$69, DW_AT_type(*$C$DW$T$9)
	.dwattr $C$DW$69, DW_AT_declaration
	.dwattr $C$DW$69, DW_AT_external
	.dwattr $C$DW$69, DW_AT_decl_file("..\Application\SysUtils2.h")
	.dwattr $C$DW$69, DW_AT_decl_line(0x35)
	.dwattr $C$DW$69, DW_AT_decl_column(0x10)
	.dwendtag $C$DW$69


$C$DW$70	.dwtag  DW_TAG_subprogram
	.dwattr $C$DW$70, DW_AT_name("IsSysTimerElapse")
	.dwattr $C$DW$70, DW_AT_linkage_name("IsSysTimerElapse")
	.dwattr $C$DW$70, DW_AT_type(*$C$DW$T$9)
	.dwattr $C$DW$70, DW_AT_declaration
	.dwattr $C$DW$70, DW_AT_external
	.dwattr $C$DW$70, DW_AT_decl_file("..\Application\TimerArr2.h")
	.dwattr $C$DW$70, DW_AT_decl_line(0x54)
	.dwattr $C$DW$70, DW_AT_decl_column(0x10)
$C$DW$71	.dwtag  DW_TAG_formal_parameter
	.dwattr $C$DW$71, DW_AT_type(*$C$DW$T$9)

$C$DW$72	.dwtag  DW_TAG_formal_parameter
	.dwattr $C$DW$72, DW_AT_type(*$C$DW$T$255)

	.dwendtag $C$DW$70


$C$DW$73	.dwtag  DW_TAG_subprogram
	.dwattr $C$DW$73, DW_AT_name("PrepFlash4Burn")
	.dwattr $C$DW$73, DW_AT_linkage_name("PrepFlash4Burn")
	.dwattr $C$DW$73, DW_AT_type(*$C$DW$T$8)
	.dwattr $C$DW$73, DW_AT_declaration
	.dwattr $C$DW$73, DW_AT_external
	.dwattr $C$DW$73, DW_AT_decl_file("..\Application\Functions2.h")
	.dwattr $C$DW$73, DW_AT_decl_line(0x67)
	.dwattr $C$DW$73, DW_AT_decl_column(0x07)
	.dwendtag $C$DW$73


$C$DW$74	.dwtag  DW_TAG_subprogram
	.dwattr $C$DW$74, DW_AT_name("EraseSector")
	.dwattr $C$DW$74, DW_AT_linkage_name("EraseSector")
	.dwattr $C$DW$74, DW_AT_type(*$C$DW$T$8)
	.dwattr $C$DW$74, DW_AT_declaration
	.dwattr $C$DW$74, DW_AT_external
	.dwattr $C$DW$74, DW_AT_decl_file("..\Application\Functions2.h")
	.dwattr $C$DW$74, DW_AT_decl_line(0x65)
	.dwattr $C$DW$74, DW_AT_decl_column(0x07)
$C$DW$75	.dwtag  DW_TAG_formal_parameter
	.dwattr $C$DW$75, DW_AT_type(*$C$DW$T$13)

$C$DW$76	.dwtag  DW_TAG_formal_parameter
	.dwattr $C$DW$76, DW_AT_type(*$C$DW$T$13)

	.dwendtag $C$DW$74


$C$DW$77	.dwtag  DW_TAG_subprogram
	.dwattr $C$DW$77, DW_AT_name("SendSdoExpeditDloadLong")
	.dwattr $C$DW$77, DW_AT_linkage_name("SendSdoExpeditDloadLong")
	.dwattr $C$DW$77, DW_AT_type(*$C$DW$T$8)
	.dwattr $C$DW$77, DW_AT_declaration
	.dwattr $C$DW$77, DW_AT_external
	.dwattr $C$DW$77, DW_AT_decl_file("..\Application\CanResponser2.h")
	.dwattr $C$DW$77, DW_AT_decl_line(0x62)
	.dwattr $C$DW$77, DW_AT_decl_column(0x07)
$C$DW$78	.dwtag  DW_TAG_formal_parameter
	.dwattr $C$DW$78, DW_AT_type(*$C$DW$T$123)

	.dwendtag $C$DW$77


$C$DW$79	.dwtag  DW_TAG_subprogram
	.dwattr $C$DW$79, DW_AT_name("ApplySuck")
	.dwattr $C$DW$79, DW_AT_linkage_name("ApplySuck")
	.dwattr $C$DW$79, DW_AT_type(*$C$DW$T$8)
	.dwattr $C$DW$79, DW_AT_declaration
	.dwattr $C$DW$79, DW_AT_external
	.dwattr $C$DW$79, DW_AT_decl_file("../Application/ObjectDictionary2.c")
	.dwattr $C$DW$79, DW_AT_decl_line(0x49)
	.dwattr $C$DW$79, DW_AT_decl_column(0x07)
	.dwendtag $C$DW$79


$C$DW$80	.dwtag  DW_TAG_subprogram
	.dwattr $C$DW$80, DW_AT_name("WaitTimerElapse")
	.dwattr $C$DW$80, DW_AT_linkage_name("WaitTimerElapse")
	.dwattr $C$DW$80, DW_AT_type(*$C$DW$T$8)
	.dwattr $C$DW$80, DW_AT_declaration
	.dwattr $C$DW$80, DW_AT_external
	.dwattr $C$DW$80, DW_AT_decl_file("..\Application\TimerArr2.h")
	.dwattr $C$DW$80, DW_AT_decl_line(0x57)
	.dwattr $C$DW$80, DW_AT_decl_column(0x07)
$C$DW$81	.dwtag  DW_TAG_formal_parameter
	.dwattr $C$DW$81, DW_AT_type(*$C$DW$T$9)

$C$DW$82	.dwtag  DW_TAG_formal_parameter
	.dwattr $C$DW$82, DW_AT_type(*$C$DW$T$13)

$C$DW$83	.dwtag  DW_TAG_formal_parameter
	.dwattr $C$DW$83, DW_AT_type(*$C$DW$T$255)

	.dwendtag $C$DW$80


$C$DW$84	.dwtag  DW_TAG_subprogram
	.dwattr $C$DW$84, DW_AT_name("ConstructWriteSyncMsgSingleItem")
	.dwattr $C$DW$84, DW_AT_linkage_name("ConstructWriteSyncMsgSingleItem")
	.dwattr $C$DW$84, DW_AT_type(*$C$DW$T$8)
	.dwattr $C$DW$84, DW_AT_declaration
	.dwattr $C$DW$84, DW_AT_external
	.dwattr $C$DW$84, DW_AT_decl_file("..\Application\Dynamixel.h")
	.dwattr $C$DW$84, DW_AT_decl_line(0x108)
	.dwattr $C$DW$84, DW_AT_decl_column(0x07)
$C$DW$85	.dwtag  DW_TAG_formal_parameter
	.dwattr $C$DW$85, DW_AT_type(*$C$DW$T$241)

$C$DW$86	.dwtag  DW_TAG_formal_parameter
	.dwattr $C$DW$86, DW_AT_type(*$C$DW$T$9)

$C$DW$87	.dwtag  DW_TAG_formal_parameter
	.dwattr $C$DW$87, DW_AT_type(*$C$DW$T$8)

$C$DW$88	.dwtag  DW_TAG_formal_parameter
	.dwattr $C$DW$88, DW_AT_type(*$C$DW$T$9)

$C$DW$89	.dwtag  DW_TAG_formal_parameter
	.dwattr $C$DW$89, DW_AT_type(*$C$DW$T$100)

$C$DW$90	.dwtag  DW_TAG_formal_parameter
	.dwattr $C$DW$90, DW_AT_type(*$C$DW$T$319)

$C$DW$91	.dwtag  DW_TAG_formal_parameter
	.dwattr $C$DW$91, DW_AT_type(*$C$DW$T$9)

	.dwendtag $C$DW$84


$C$DW$92	.dwtag  DW_TAG_subprogram
	.dwattr $C$DW$92, DW_AT_name("DynamixelTx")
	.dwattr $C$DW$92, DW_AT_linkage_name("DynamixelTx")
	.dwattr $C$DW$92, DW_AT_type(*$C$DW$T$8)
	.dwattr $C$DW$92, DW_AT_declaration
	.dwattr $C$DW$92, DW_AT_external
	.dwattr $C$DW$92, DW_AT_decl_file("..\Application\Dynamixel.h")
	.dwattr $C$DW$92, DW_AT_decl_line(0x10b)
	.dwattr $C$DW$92, DW_AT_decl_column(0x07)
$C$DW$93	.dwtag  DW_TAG_formal_parameter
	.dwattr $C$DW$93, DW_AT_type(*$C$DW$T$242)

$C$DW$94	.dwtag  DW_TAG_formal_parameter
	.dwattr $C$DW$94, DW_AT_type(*$C$DW$T$241)

	.dwendtag $C$DW$92


$C$DW$95	.dwtag  DW_TAG_subprogram
	.dwattr $C$DW$95, DW_AT_name("ConstructReadSyncMsg")
	.dwattr $C$DW$95, DW_AT_linkage_name("ConstructReadSyncMsg")
	.dwattr $C$DW$95, DW_AT_type(*$C$DW$T$8)
	.dwattr $C$DW$95, DW_AT_declaration
	.dwattr $C$DW$95, DW_AT_external
	.dwattr $C$DW$95, DW_AT_decl_file("..\Application\Dynamixel.h")
	.dwattr $C$DW$95, DW_AT_decl_line(0xfd)
	.dwattr $C$DW$95, DW_AT_decl_column(0x07)
$C$DW$96	.dwtag  DW_TAG_formal_parameter
	.dwattr $C$DW$96, DW_AT_type(*$C$DW$T$241)

$C$DW$97	.dwtag  DW_TAG_formal_parameter
	.dwattr $C$DW$97, DW_AT_type(*$C$DW$T$9)

$C$DW$98	.dwtag  DW_TAG_formal_parameter
	.dwattr $C$DW$98, DW_AT_type(*$C$DW$T$8)

$C$DW$99	.dwtag  DW_TAG_formal_parameter
	.dwattr $C$DW$99, DW_AT_type(*$C$DW$T$9)

$C$DW$100	.dwtag  DW_TAG_formal_parameter
	.dwattr $C$DW$100, DW_AT_type(*$C$DW$T$100)

$C$DW$101	.dwtag  DW_TAG_formal_parameter
	.dwattr $C$DW$101, DW_AT_type(*$C$DW$T$9)

	.dwendtag $C$DW$95


$C$DW$102	.dwtag  DW_TAG_subprogram
	.dwattr $C$DW$102, DW_AT_name("SFInstructionRead")
	.dwattr $C$DW$102, DW_AT_linkage_name("SFInstructionRead")
	.dwattr $C$DW$102, DW_AT_type(*$C$DW$T$8)
	.dwattr $C$DW$102, DW_AT_declaration
	.dwattr $C$DW$102, DW_AT_external
	.dwattr $C$DW$102, DW_AT_decl_file("..\Application\Functions2.h")
	.dwattr $C$DW$102, DW_AT_decl_line(0x115)
	.dwattr $C$DW$102, DW_AT_decl_column(0x07)
$C$DW$103	.dwtag  DW_TAG_formal_parameter
	.dwattr $C$DW$103, DW_AT_type(*$C$DW$T$13)

$C$DW$104	.dwtag  DW_TAG_formal_parameter
	.dwattr $C$DW$104, DW_AT_type(*$C$DW$T$9)

$C$DW$105	.dwtag  DW_TAG_formal_parameter
	.dwattr $C$DW$105, DW_AT_type(*$C$DW$T$100)

	.dwendtag $C$DW$102


$C$DW$106	.dwtag  DW_TAG_subprogram
	.dwattr $C$DW$106, DW_AT_name("IsInRange")
	.dwattr $C$DW$106, DW_AT_linkage_name("IsInRange")
	.dwattr $C$DW$106, DW_AT_type(*$C$DW$T$8)
	.dwattr $C$DW$106, DW_AT_declaration
	.dwattr $C$DW$106, DW_AT_external
	.dwattr $C$DW$106, DW_AT_decl_file("..\Application\SysUtils2.h")
	.dwattr $C$DW$106, DW_AT_decl_line(0x1d)
	.dwattr $C$DW$106, DW_AT_decl_column(0x07)
$C$DW$107	.dwtag  DW_TAG_formal_parameter
	.dwattr $C$DW$107, DW_AT_type(*$C$DW$T$78)

$C$DW$108	.dwtag  DW_TAG_formal_parameter
	.dwattr $C$DW$108, DW_AT_type(*$C$DW$T$16)

$C$DW$109	.dwtag  DW_TAG_formal_parameter
	.dwattr $C$DW$109, DW_AT_type(*$C$DW$T$16)

	.dwendtag $C$DW$106


$C$DW$110	.dwtag  DW_TAG_subprogram
	.dwattr $C$DW$110, DW_AT_name("SFSectorErase")
	.dwattr $C$DW$110, DW_AT_linkage_name("SFSectorErase")
	.dwattr $C$DW$110, DW_AT_type(*$C$DW$T$8)
	.dwattr $C$DW$110, DW_AT_declaration
	.dwattr $C$DW$110, DW_AT_external
	.dwattr $C$DW$110, DW_AT_decl_file("..\Application\Functions2.h")
	.dwattr $C$DW$110, DW_AT_decl_line(0x116)
	.dwattr $C$DW$110, DW_AT_decl_column(0x07)
$C$DW$111	.dwtag  DW_TAG_formal_parameter
	.dwattr $C$DW$111, DW_AT_type(*$C$DW$T$13)

	.dwendtag $C$DW$110


$C$DW$112	.dwtag  DW_TAG_subprogram
	.dwattr $C$DW$112, DW_AT_name("SFInstructionWriteBuf")
	.dwattr $C$DW$112, DW_AT_linkage_name("SFInstructionWriteBuf")
	.dwattr $C$DW$112, DW_AT_type(*$C$DW$T$8)
	.dwattr $C$DW$112, DW_AT_declaration
	.dwattr $C$DW$112, DW_AT_external
	.dwattr $C$DW$112, DW_AT_decl_file("..\Application\Functions2.h")
	.dwattr $C$DW$112, DW_AT_decl_line(0x114)
	.dwattr $C$DW$112, DW_AT_decl_column(0x07)
$C$DW$113	.dwtag  DW_TAG_formal_parameter
	.dwattr $C$DW$113, DW_AT_type(*$C$DW$T$13)

$C$DW$114	.dwtag  DW_TAG_formal_parameter
	.dwattr $C$DW$114, DW_AT_type(*$C$DW$T$9)

$C$DW$115	.dwtag  DW_TAG_formal_parameter
	.dwattr $C$DW$115, DW_AT_type(*$C$DW$T$100)

	.dwendtag $C$DW$112

$C$DW$116	.dwtag  DW_TAG_variable
	.dwattr $C$DW$116, DW_AT_name("PBit")
	.dwattr $C$DW$116, DW_AT_linkage_name("PBit")
	.dwattr $C$DW$116, DW_AT_type(*$C$DW$T$129)
	.dwattr $C$DW$116, DW_AT_declaration
	.dwattr $C$DW$116, DW_AT_external
	.dwattr $C$DW$116, DW_AT_decl_file("..\Application\StructDef2.h")
	.dwattr $C$DW$116, DW_AT_decl_line(0x247)
	.dwattr $C$DW$116, DW_AT_decl_column(0x19)

$C$DW$117	.dwtag  DW_TAG_variable
	.dwattr $C$DW$117, DW_AT_name("FlashCalibPD")
	.dwattr $C$DW$117, DW_AT_linkage_name("FlashCalibPD")
	.dwattr $C$DW$117, DW_AT_type(*$C$DW$T$13)
	.dwattr $C$DW$117, DW_AT_declaration
	.dwattr $C$DW$117, DW_AT_external
	.dwattr $C$DW$117, DW_AT_decl_file("..\Application\StructDef2.h")
	.dwattr $C$DW$117, DW_AT_decl_line(0x446)
	.dwattr $C$DW$117, DW_AT_decl_column(0x1a)

	.global	||GetCanNetDataPtrNothing||
	.sect	".const"
	.align	2
	.elfsym	||GetCanNetDataPtrNothing||,SYM_SIZE(2),SYM_BLOCKED(1)
||GetCanNetDataPtrNothing||:
	.xfloat	$strtod("0x0p+0")		; GetCanNetDataPtrNothing @ 0

$C$DW$118	.dwtag  DW_TAG_variable
	.dwattr $C$DW$118, DW_AT_name("GetCanNetDataPtrNothing")
	.dwattr $C$DW$118, DW_AT_linkage_name("GetCanNetDataPtrNothing")
	.dwattr $C$DW$118, DW_AT_location[DW_OP_addr ||GetCanNetDataPtrNothing||]
	.dwattr $C$DW$118, DW_AT_type(*$C$DW$T$382)
	.dwattr $C$DW$118, DW_AT_external
	.dwattr $C$DW$118, DW_AT_decl_file("../Application/ObjectDictionary2.c")
	.dwattr $C$DW$118, DW_AT_decl_line(0x729)
	.dwattr $C$DW$118, DW_AT_decl_column(0x0d)


$C$DW$119	.dwtag  DW_TAG_subprogram
	.dwattr $C$DW$119, DW_AT_name("SendSdo2PD")
	.dwattr $C$DW$119, DW_AT_linkage_name("SendSdo2PD")
	.dwattr $C$DW$119, DW_AT_type(*$C$DW$T$13)
	.dwattr $C$DW$119, DW_AT_declaration
	.dwattr $C$DW$119, DW_AT_external
	.dwattr $C$DW$119, DW_AT_decl_file("..\Application\Functions2.h")
	.dwattr $C$DW$119, DW_AT_decl_line(0x13c)
	.dwattr $C$DW$119, DW_AT_decl_column(0x0f)
$C$DW$120	.dwtag  DW_TAG_formal_parameter
	.dwattr $C$DW$120, DW_AT_type(*$C$DW$T$9)

$C$DW$121	.dwtag  DW_TAG_formal_parameter
	.dwattr $C$DW$121, DW_AT_type(*$C$DW$T$9)

$C$DW$122	.dwtag  DW_TAG_formal_parameter
	.dwattr $C$DW$122, DW_AT_type(*$C$DW$T$319)

$C$DW$123	.dwtag  DW_TAG_formal_parameter
	.dwattr $C$DW$123, DW_AT_type(*$C$DW$T$9)

	.dwendtag $C$DW$119


$C$DW$124	.dwtag  DW_TAG_subprogram
	.dwattr $C$DW$124, DW_AT_name("GetSdoFromPD")
	.dwattr $C$DW$124, DW_AT_linkage_name("GetSdoFromPD")
	.dwattr $C$DW$124, DW_AT_type(*$C$DW$T$13)
	.dwattr $C$DW$124, DW_AT_declaration
	.dwattr $C$DW$124, DW_AT_external
	.dwattr $C$DW$124, DW_AT_decl_file("..\Application\Functions2.h")
	.dwattr $C$DW$124, DW_AT_decl_line(0x143)
	.dwattr $C$DW$124, DW_AT_decl_column(0x0f)
$C$DW$125	.dwtag  DW_TAG_formal_parameter
	.dwattr $C$DW$125, DW_AT_type(*$C$DW$T$9)

$C$DW$126	.dwtag  DW_TAG_formal_parameter
	.dwattr $C$DW$126, DW_AT_type(*$C$DW$T$9)

$C$DW$127	.dwtag  DW_TAG_formal_parameter
	.dwattr $C$DW$127, DW_AT_type(*$C$DW$T$319)

$C$DW$128	.dwtag  DW_TAG_formal_parameter
	.dwattr $C$DW$128, DW_AT_type(*$C$DW$T$100)

	.dwendtag $C$DW$124


$C$DW$129	.dwtag  DW_TAG_subprogram
	.dwattr $C$DW$129, DW_AT_name("SendSdo2Slave")
	.dwattr $C$DW$129, DW_AT_linkage_name("SendSdo2Slave")
	.dwattr $C$DW$129, DW_AT_type(*$C$DW$T$13)
	.dwattr $C$DW$129, DW_AT_declaration
	.dwattr $C$DW$129, DW_AT_external
	.dwattr $C$DW$129, DW_AT_decl_file("..\Application\Functions2.h")
	.dwattr $C$DW$129, DW_AT_decl_line(0x13b)
	.dwattr $C$DW$129, DW_AT_decl_column(0x0f)
$C$DW$130	.dwtag  DW_TAG_formal_parameter
	.dwattr $C$DW$130, DW_AT_type(*$C$DW$T$9)

$C$DW$131	.dwtag  DW_TAG_formal_parameter
	.dwattr $C$DW$131, DW_AT_type(*$C$DW$T$9)

$C$DW$132	.dwtag  DW_TAG_formal_parameter
	.dwattr $C$DW$132, DW_AT_type(*$C$DW$T$319)

$C$DW$133	.dwtag  DW_TAG_formal_parameter
	.dwattr $C$DW$133, DW_AT_type(*$C$DW$T$9)

$C$DW$134	.dwtag  DW_TAG_formal_parameter
	.dwattr $C$DW$134, DW_AT_type(*$C$DW$T$9)

	.dwendtag $C$DW$129


$C$DW$135	.dwtag  DW_TAG_subprogram
	.dwattr $C$DW$135, DW_AT_name("GetDxlPayload")
	.dwattr $C$DW$135, DW_AT_linkage_name("GetDxlPayload")
	.dwattr $C$DW$135, DW_AT_type(*$C$DW$T$13)
	.dwattr $C$DW$135, DW_AT_declaration
	.dwattr $C$DW$135, DW_AT_external
	.dwattr $C$DW$135, DW_AT_decl_file("..\Application\Dynamixel.h")
	.dwattr $C$DW$135, DW_AT_decl_line(0xf9)
	.dwattr $C$DW$135, DW_AT_decl_column(0x10)
$C$DW$136	.dwtag  DW_TAG_formal_parameter
	.dwattr $C$DW$136, DW_AT_type(*$C$DW$T$9)

$C$DW$137	.dwtag  DW_TAG_formal_parameter
	.dwattr $C$DW$137, DW_AT_type(*$C$DW$T$100)

$C$DW$138	.dwtag  DW_TAG_formal_parameter
	.dwattr $C$DW$138, DW_AT_type(*$C$DW$T$242)

$C$DW$139	.dwtag  DW_TAG_formal_parameter
	.dwattr $C$DW$139, DW_AT_type(*$C$DW$T$143)

	.dwendtag $C$DW$135


$C$DW$140	.dwtag  DW_TAG_subprogram
	.dwattr $C$DW$140, DW_AT_name("SetRecorder")
	.dwattr $C$DW$140, DW_AT_linkage_name("SetRecorder")
	.dwattr $C$DW$140, DW_AT_type(*$C$DW$T$13)
	.dwattr $C$DW$140, DW_AT_declaration
	.dwattr $C$DW$140, DW_AT_external
	.dwattr $C$DW$140, DW_AT_decl_file("..\Application\..\SharedH\Recorder2.h")
	.dwattr $C$DW$140, DW_AT_decl_line(0x1a)
	.dwattr $C$DW$140, DW_AT_decl_column(0x10)
$C$DW$141	.dwtag  DW_TAG_formal_parameter
	.dwattr $C$DW$141, DW_AT_type(*$C$DW$T$123)

$C$DW$142	.dwtag  DW_TAG_formal_parameter
	.dwattr $C$DW$142, DW_AT_type(*$C$DW$T$9)

	.dwendtag $C$DW$140


$C$DW$143	.dwtag  DW_TAG_subprogram
	.dwattr $C$DW$143, DW_AT_name("GetRecorder")
	.dwattr $C$DW$143, DW_AT_linkage_name("GetRecorder")
	.dwattr $C$DW$143, DW_AT_type(*$C$DW$T$13)
	.dwattr $C$DW$143, DW_AT_declaration
	.dwattr $C$DW$143, DW_AT_external
	.dwattr $C$DW$143, DW_AT_decl_file("..\Application\..\SharedH\Recorder2.h")
	.dwattr $C$DW$143, DW_AT_decl_line(0x1b)
	.dwattr $C$DW$143, DW_AT_decl_column(0x10)
$C$DW$144	.dwtag  DW_TAG_formal_parameter
	.dwattr $C$DW$144, DW_AT_type(*$C$DW$T$123)

$C$DW$145	.dwtag  DW_TAG_formal_parameter
	.dwattr $C$DW$145, DW_AT_type(*$C$DW$T$100)

	.dwendtag $C$DW$143


$C$DW$146	.dwtag  DW_TAG_subprogram
	.dwattr $C$DW$146, DW_AT_name("NoSuchSetObject")
	.dwattr $C$DW$146, DW_AT_linkage_name("NoSuchSetObject")
	.dwattr $C$DW$146, DW_AT_type(*$C$DW$T$13)
	.dwattr $C$DW$146, DW_AT_declaration
	.dwattr $C$DW$146, DW_AT_external
	.dwattr $C$DW$146, DW_AT_decl_file("..\Application\Functions2.h")
	.dwattr $C$DW$146, DW_AT_decl_line(0xeb)
	.dwattr $C$DW$146, DW_AT_decl_column(0x10)
$C$DW$147	.dwtag  DW_TAG_formal_parameter
	.dwattr $C$DW$147, DW_AT_type(*$C$DW$T$123)

$C$DW$148	.dwtag  DW_TAG_formal_parameter
	.dwattr $C$DW$148, DW_AT_type(*$C$DW$T$9)

	.dwendtag $C$DW$146


$C$DW$149	.dwtag  DW_TAG_subprogram
	.dwattr $C$DW$149, DW_AT_name("GetSignalFlags")
	.dwattr $C$DW$149, DW_AT_linkage_name("GetSignalFlags")
	.dwattr $C$DW$149, DW_AT_type(*$C$DW$T$13)
	.dwattr $C$DW$149, DW_AT_declaration
	.dwattr $C$DW$149, DW_AT_external
	.dwattr $C$DW$149, DW_AT_decl_file("..\Application\..\SharedH\Recorder2.h")
	.dwattr $C$DW$149, DW_AT_decl_line(0x1e)
	.dwattr $C$DW$149, DW_AT_decl_column(0x10)
$C$DW$150	.dwtag  DW_TAG_formal_parameter
	.dwattr $C$DW$150, DW_AT_type(*$C$DW$T$123)

$C$DW$151	.dwtag  DW_TAG_formal_parameter
	.dwattr $C$DW$151, DW_AT_type(*$C$DW$T$100)

	.dwendtag $C$DW$149


$C$DW$152	.dwtag  DW_TAG_subprogram
	.dwattr $C$DW$152, DW_AT_name("SetSignal")
	.dwattr $C$DW$152, DW_AT_linkage_name("SetSignal")
	.dwattr $C$DW$152, DW_AT_type(*$C$DW$T$13)
	.dwattr $C$DW$152, DW_AT_declaration
	.dwattr $C$DW$152, DW_AT_external
	.dwattr $C$DW$152, DW_AT_decl_file("..\Application\..\SharedH\Recorder2.h")
	.dwattr $C$DW$152, DW_AT_decl_line(0x1d)
	.dwattr $C$DW$152, DW_AT_decl_column(0x10)
$C$DW$153	.dwtag  DW_TAG_formal_parameter
	.dwattr $C$DW$153, DW_AT_type(*$C$DW$T$123)

$C$DW$154	.dwtag  DW_TAG_formal_parameter
	.dwattr $C$DW$154, DW_AT_type(*$C$DW$T$9)

	.dwendtag $C$DW$152


$C$DW$155	.dwtag  DW_TAG_subprogram
	.dwattr $C$DW$155, DW_AT_name("GetSignal")
	.dwattr $C$DW$155, DW_AT_linkage_name("GetSignal")
	.dwattr $C$DW$155, DW_AT_type(*$C$DW$T$13)
	.dwattr $C$DW$155, DW_AT_declaration
	.dwattr $C$DW$155, DW_AT_external
	.dwattr $C$DW$155, DW_AT_decl_file("..\Application\..\SharedH\Recorder2.h")
	.dwattr $C$DW$155, DW_AT_decl_line(0x1f)
	.dwattr $C$DW$155, DW_AT_decl_column(0x10)
$C$DW$156	.dwtag  DW_TAG_formal_parameter
	.dwattr $C$DW$156, DW_AT_type(*$C$DW$T$123)

$C$DW$157	.dwtag  DW_TAG_formal_parameter
	.dwattr $C$DW$157, DW_AT_type(*$C$DW$T$100)

	.dwendtag $C$DW$155


$C$DW$158	.dwtag  DW_TAG_subprogram
	.dwattr $C$DW$158, DW_AT_name("NoSuchGetObject")
	.dwattr $C$DW$158, DW_AT_linkage_name("NoSuchGetObject")
	.dwattr $C$DW$158, DW_AT_type(*$C$DW$T$13)
	.dwattr $C$DW$158, DW_AT_declaration
	.dwattr $C$DW$158, DW_AT_external
	.dwattr $C$DW$158, DW_AT_decl_file("..\Application\Functions2.h")
	.dwattr $C$DW$158, DW_AT_decl_line(0xea)
	.dwattr $C$DW$158, DW_AT_decl_column(0x10)
$C$DW$159	.dwtag  DW_TAG_formal_parameter
	.dwattr $C$DW$159, DW_AT_type(*$C$DW$T$123)

$C$DW$160	.dwtag  DW_TAG_formal_parameter
	.dwattr $C$DW$160, DW_AT_type(*$C$DW$T$100)

	.dwendtag $C$DW$158

$C$DW$161	.dwtag  DW_TAG_variable
	.dwattr $C$DW$161, DW_AT_name("ManualManCmd")
	.dwattr $C$DW$161, DW_AT_linkage_name("ManualManCmd")
	.dwattr $C$DW$161, DW_AT_type(*$C$DW$T$118)
	.dwattr $C$DW$161, DW_AT_declaration
	.dwattr $C$DW$161, DW_AT_external
	.dwattr $C$DW$161, DW_AT_decl_file("..\Application\ManState.h")
	.dwattr $C$DW$161, DW_AT_decl_line(0x1ae)
	.dwattr $C$DW$161, DW_AT_decl_column(0x25)

$C$DW$162	.dwtag  DW_TAG_variable
	.dwattr $C$DW$162, DW_AT_name("PdSlaveObjectMap")
	.dwattr $C$DW$162, DW_AT_linkage_name("PdSlaveObjectMap")
	.dwattr $C$DW$162, DW_AT_type(*$C$DW$T$347)
	.dwattr $C$DW$162, DW_AT_declaration
	.dwattr $C$DW$162, DW_AT_external
	.dwattr $C$DW$162, DW_AT_decl_file("..\Application\StructDef2.h")
	.dwattr $C$DW$162, DW_AT_decl_line(0x524)
	.dwattr $C$DW$162, DW_AT_decl_column(0x1b)

$C$DW$163	.dwtag  DW_TAG_variable
	.dwattr $C$DW$163, DW_AT_name("FlashProgPD")
	.dwattr $C$DW$163, DW_AT_linkage_name("FlashProgPD")
	.dwattr $C$DW$163, DW_AT_type(*$C$DW$T$108)
	.dwattr $C$DW$163, DW_AT_declaration
	.dwattr $C$DW$163, DW_AT_external
	.dwattr $C$DW$163, DW_AT_decl_file("..\Application\StructDef2.h")
	.dwattr $C$DW$163, DW_AT_decl_line(0x263)
	.dwattr $C$DW$163, DW_AT_decl_column(0x1e)

$C$DW$164	.dwtag  DW_TAG_variable
	.dwattr $C$DW$164, DW_AT_name("UnreachableLog")
	.dwattr $C$DW$164, DW_AT_linkage_name("UnreachableLog")
	.dwattr $C$DW$164, DW_AT_type(*$C$DW$T$155)
	.dwattr $C$DW$164, DW_AT_declaration
	.dwattr $C$DW$164, DW_AT_external
	.dwattr $C$DW$164, DW_AT_decl_file("..\Application\ManState.h")
	.dwattr $C$DW$164, DW_AT_decl_line(0x14f)
	.dwattr $C$DW$164, DW_AT_decl_column(0x28)

	.global	||GetCanNetDataPtr||
	.sect	".const:GetCanNetDataPtr"
	.align	2
	.elfsym	||GetCanNetDataPtr||,SYM_SIZE(16)
||GetCanNetDataPtr||:
	.bits	||GetCanNetDataPtrNothing||,32		; GetCanNetDataPtr[0] @ 0
	.bits	||SysState|| + 670,32		; GetCanNetDataPtr[1] @ 32
	.bits	||SysState|| + 474,32		; GetCanNetDataPtr[2] @ 64
	.bits	||SysState|| + 866,32		; GetCanNetDataPtr[3] @ 96
	.bits	||SysState|| + 718,32		; GetCanNetDataPtr[4] @ 128
	.bits	||SysState|| + 522,32		; GetCanNetDataPtr[5] @ 160
	.bits	||SysState|| + 914,32		; GetCanNetDataPtr[6] @ 192
	.bits	||GetCanNetDataPtrNothing||,32		; GetCanNetDataPtr[7] @ 224

$C$DW$165	.dwtag  DW_TAG_variable
	.dwattr $C$DW$165, DW_AT_name("GetCanNetDataPtr")
	.dwattr $C$DW$165, DW_AT_linkage_name("GetCanNetDataPtr")
	.dwattr $C$DW$165, DW_AT_location[DW_OP_addr ||GetCanNetDataPtr||]
	.dwattr $C$DW$165, DW_AT_type(*$C$DW$T$379)
	.dwattr $C$DW$165, DW_AT_external
	.dwattr $C$DW$165, DW_AT_decl_file("../Application/ObjectDictionary2.c")
	.dwattr $C$DW$165, DW_AT_decl_line(0x72a)
	.dwattr $C$DW$165, DW_AT_decl_column(0x0e)

	.global	||D24TxCom||
	.bss	||D24TxCom||,16,1,1
$C$DW$166	.dwtag  DW_TAG_variable
	.dwattr $C$DW$166, DW_AT_name("D24TxCom")
	.dwattr $C$DW$166, DW_AT_linkage_name("D24TxCom")
	.dwattr $C$DW$166, DW_AT_location[DW_OP_addr ||D24TxCom||]
	.dwattr $C$DW$166, DW_AT_type(*$C$DW$T$99)
	.dwattr $C$DW$166, DW_AT_external
	.dwattr $C$DW$166, DW_AT_decl_file("../Application/ObjectDictionary2.c")
	.dwattr $C$DW$166, DW_AT_decl_line(0x7aa)
	.dwattr $C$DW$166, DW_AT_decl_column(0x12)

	.global	||D12TxCom||
	.bss	||D12TxCom||,16,1,1
$C$DW$167	.dwtag  DW_TAG_variable
	.dwattr $C$DW$167, DW_AT_name("D12TxCom")
	.dwattr $C$DW$167, DW_AT_linkage_name("D12TxCom")
	.dwattr $C$DW$167, DW_AT_location[DW_OP_addr ||D12TxCom||]
	.dwattr $C$DW$167, DW_AT_type(*$C$DW$T$99)
	.dwattr $C$DW$167, DW_AT_external
	.dwattr $C$DW$167, DW_AT_decl_file("../Application/ObjectDictionary2.c")
	.dwattr $C$DW$167, DW_AT_decl_line(0x7ab)
	.dwattr $C$DW$167, DW_AT_decl_column(0x12)

$C$DW$168	.dwtag  DW_TAG_variable
	.dwattr $C$DW$168, DW_AT_name("IndividualAxCtl24")
	.dwattr $C$DW$168, DW_AT_linkage_name("IndividualAxCtl24")
	.dwattr $C$DW$168, DW_AT_type(*$C$DW$T$249)
	.dwattr $C$DW$168, DW_AT_declaration
	.dwattr $C$DW$168, DW_AT_external
	.dwattr $C$DW$168, DW_AT_decl_file("..\Application\ManState.h")
	.dwattr $C$DW$168, DW_AT_decl_line(0x1b7)
	.dwattr $C$DW$168, DW_AT_decl_column(0x28)

$C$DW$169	.dwtag  DW_TAG_variable
	.dwattr $C$DW$169, DW_AT_name("IndividualAxCtl12")
	.dwattr $C$DW$169, DW_AT_linkage_name("IndividualAxCtl12")
	.dwattr $C$DW$169, DW_AT_type(*$C$DW$T$249)
	.dwattr $C$DW$169, DW_AT_declaration
	.dwattr $C$DW$169, DW_AT_external
	.dwattr $C$DW$169, DW_AT_decl_file("..\Application\ManState.h")
	.dwattr $C$DW$169, DW_AT_decl_line(0x1b8)
	.dwattr $C$DW$169, DW_AT_decl_column(0x28)

$C$DW$170	.dwtag  DW_TAG_variable
	.dwattr $C$DW$170, DW_AT_name("GpioDataRegs")
	.dwattr $C$DW$170, DW_AT_linkage_name("GpioDataRegs")
	.dwattr $C$DW$170, DW_AT_type(*$C$DW$T$275)
	.dwattr $C$DW$170, DW_AT_declaration
	.dwattr $C$DW$170, DW_AT_external
	.dwattr $C$DW$170, DW_AT_decl_file("..\Application\..\Drivers\..\F2838x_utils\f2838x_gpio.h")
	.dwattr $C$DW$170, DW_AT_decl_line(0xf29)
	.dwattr $C$DW$170, DW_AT_decl_column(0x27)

$C$DW$171	.dwtag  DW_TAG_variable
	.dwattr $C$DW$171, DW_AT_name("ManCalibArr")
	.dwattr $C$DW$171, DW_AT_linkage_name("ManCalibArr")
	.dwattr $C$DW$171, DW_AT_type(*$C$DW$T$89)
	.dwattr $C$DW$171, DW_AT_declaration
	.dwattr $C$DW$171, DW_AT_external
	.dwattr $C$DW$171, DW_AT_decl_file("..\Application\StructDef2.h")
	.dwattr $C$DW$171, DW_AT_decl_line(0x449)
	.dwattr $C$DW$171, DW_AT_decl_column(0x1a)

$C$DW$172	.dwtag  DW_TAG_variable
	.dwattr $C$DW$172, DW_AT_name("ManCalibTmp")
	.dwattr $C$DW$172, DW_AT_linkage_name("ManCalibTmp")
	.dwattr $C$DW$172, DW_AT_type(*$C$DW$T$89)
	.dwattr $C$DW$172, DW_AT_declaration
	.dwattr $C$DW$172, DW_AT_external
	.dwattr $C$DW$172, DW_AT_decl_file("..\Application\StructDef2.h")
	.dwattr $C$DW$172, DW_AT_decl_line(0x532)
	.dwattr $C$DW$172, DW_AT_decl_column(0x1a)

	.global	||FlashReadStr||
	.bss	||FlashReadStr||,116,1,1
$C$DW$173	.dwtag  DW_TAG_variable
	.dwattr $C$DW$173, DW_AT_name("FlashReadStr")
	.dwattr $C$DW$173, DW_AT_linkage_name("FlashReadStr")
	.dwattr $C$DW$173, DW_AT_location[DW_OP_addr ||FlashReadStr||]
	.dwattr $C$DW$173, DW_AT_type(*$C$DW$T$89)
	.dwattr $C$DW$173, DW_AT_external
	.dwattr $C$DW$173, DW_AT_decl_file("../Application/ObjectDictionary2.c")
	.dwattr $C$DW$173, DW_AT_decl_line(0x8ea)
	.dwattr $C$DW$173, DW_AT_decl_column(0x0f)

$C$DW$174	.dwtag  DW_TAG_variable
	.dwattr $C$DW$174, DW_AT_name("ManipCalibProg")
	.dwattr $C$DW$174, DW_AT_linkage_name("ManipCalibProg")
	.dwattr $C$DW$174, DW_AT_type(*$C$DW$T$90)
	.dwattr $C$DW$174, DW_AT_declaration
	.dwattr $C$DW$174, DW_AT_external
	.dwattr $C$DW$174, DW_AT_decl_file("..\Application\StructDef2.h")
	.dwattr $C$DW$174, DW_AT_decl_line(0x42d)
	.dwattr $C$DW$174, DW_AT_decl_column(0x1e)

$C$DW$175	.dwtag  DW_TAG_variable
	.dwattr $C$DW$175, DW_AT_name("IPC_Instance")
	.dwattr $C$DW$175, DW_AT_linkage_name("IPC_Instance")
	.dwattr $C$DW$175, DW_AT_type(*$C$DW$T$227)
	.dwattr $C$DW$175, DW_AT_declaration
	.dwattr $C$DW$175, DW_AT_external
	.dwattr $C$DW$175, DW_AT_decl_file("..\Application\..\Drivers\..\F2838x_driverlib\driverlib\ipc.h")
	.dwattr $C$DW$175, DW_AT_decl_line(0x130)
	.dwattr $C$DW$175, DW_AT_decl_column(0x1d)

	.global	||ObjDictionaryItem||
	.sect	".const:ObjDictionaryItem"
	.align	2
	.elfsym	||ObjDictionaryItem||,SYM_SIZE(162)
||ObjDictionaryItem||:
	.bits		0x2000,16
			; ObjDictionaryItem[0].Index @ 0
	.bits		0x2,16
			; ObjDictionaryItem[0].bytelen @ 16
	.bits	||SetRecorder||,32		; ObjDictionaryItem[0].SetFunc @ 32
	.bits	||GetRecorder||,32		; ObjDictionaryItem[0].GetFunc @ 64
	.bits		0x2001,16
			; ObjDictionaryItem[1].Index @ 96
	.bits		0x2,16
			; ObjDictionaryItem[1].bytelen @ 112
	.bits	||NoSuchSetObject||,32		; ObjDictionaryItem[1].SetFunc @ 128
	.bits	||GetSignalFlags||,32		; ObjDictionaryItem[1].GetFunc @ 160
	.bits		0x2002,16
			; ObjDictionaryItem[2].Index @ 192
	.bits		0x2,16
			; ObjDictionaryItem[2].bytelen @ 208
	.bits	||SetSignal||,32		; ObjDictionaryItem[2].SetFunc @ 224
	.bits	||GetSignal||,32		; ObjDictionaryItem[2].GetFunc @ 256
	.bits		0x2003,16
			; ObjDictionaryItem[3].Index @ 288
	.bits		0x2,16
			; ObjDictionaryItem[3].bytelen @ 304
	.bits	||SetInfineon||,32		; ObjDictionaryItem[3].SetFunc @ 320
	.bits	||NoSuchGetObject||,32		; ObjDictionaryItem[3].GetFunc @ 352
	.bits		0x2004,16
			; ObjDictionaryItem[4].Index @ 384
	.bits		0x2,16
			; ObjDictionaryItem[4].bytelen @ 400
	.bits	||SetPsControl||,32		; ObjDictionaryItem[4].SetFunc @ 416
	.bits	||NoSuchGetObject||,32		; ObjDictionaryItem[4].GetFunc @ 448
	.bits		0x2005,16
			; ObjDictionaryItem[5].Index @ 480
	.bits		0x2,16
			; ObjDictionaryItem[5].bytelen @ 496
	.bits	||SetGpio||,32		; ObjDictionaryItem[5].SetFunc @ 512
	.bits	||GetGpio||,32		; ObjDictionaryItem[5].GetFunc @ 544
	.bits		0x2100,16
			; ObjDictionaryItem[6].Index @ 576
	.bits		0x2,16
			; ObjDictionaryItem[6].bytelen @ 592
	.bits	||SetDynamixelP24||,32		; ObjDictionaryItem[6].SetFunc @ 608
	.bits	||GetDynamixelP24||,32		; ObjDictionaryItem[6].GetFunc @ 640
	.bits		0x2101,16
			; ObjDictionaryItem[7].Index @ 672
	.bits		0x2,16
			; ObjDictionaryItem[7].bytelen @ 688
	.bits	||SetDynamixelP12||,32		; ObjDictionaryItem[7].SetFunc @ 704
	.bits	||GetDynamixelP12||,32		; ObjDictionaryItem[7].GetFunc @ 736
	.bits		0x2102,16
			; ObjDictionaryItem[8].Index @ 768
	.bits		0x2,16
			; ObjDictionaryItem[8].bytelen @ 784
	.bits	||SetGenTest||,32		; ObjDictionaryItem[8].SetFunc @ 800
	.bits	||GetGenTest||,32		; ObjDictionaryItem[8].GetFunc @ 832
	.bits		0x2103,16
			; ObjDictionaryItem[9].Index @ 864
	.bits		0x4,16
			; ObjDictionaryItem[9].bytelen @ 880
	.bits	||SetDxlManual||,32		; ObjDictionaryItem[9].SetFunc @ 896
	.bits	||GetDxlManual||,32		; ObjDictionaryItem[9].GetFunc @ 928
	.bits		0x2104,16
			; ObjDictionaryItem[10].Index @ 960
	.bits		0x4,16
			; ObjDictionaryItem[10].bytelen @ 976
	.bits	||NoSuchSetObject||,32		; ObjDictionaryItem[10].SetFunc @ 992
	.bits	||GetCanNetData||,32		; ObjDictionaryItem[10].GetFunc @ 1024
	.bits		0x2204,16
			; ObjDictionaryItem[11].Index @ 1056
	.bits		0x2,16
			; ObjDictionaryItem[11].bytelen @ 1072
	.bits	||NoSuchSetObject||,32		; ObjDictionaryItem[11].SetFunc @ 1088
	.bits	||PdGetSensor||,32		; ObjDictionaryItem[11].GetFunc @ 1120
	.bits		0x2208,16
			; ObjDictionaryItem[12].Index @ 1152
	.bits		0x2,16
			; ObjDictionaryItem[12].bytelen @ 1168
	.bits	||SetFloatParPD||,32		; ObjDictionaryItem[12].SetFunc @ 1184
	.bits	||GetFloatParPD||,32		; ObjDictionaryItem[12].GetFunc @ 1216
	.bits		0x2209,16
			; ObjDictionaryItem[13].Index @ 1248
	.bits		0x2,16
			; ObjDictionaryItem[13].bytelen @ 1264
	.bits	||OnManualManCmd||,32		; ObjDictionaryItem[13].SetFunc @ 1280
	.bits	||NoSuchGetObject||,32		; ObjDictionaryItem[13].GetFunc @ 1312
	.bits		0x220b,16
			; ObjDictionaryItem[14].Index @ 1344
	.bits		0x2,16
			; ObjDictionaryItem[14].bytelen @ 1360
	.bits	||NoSuchSetObject||,32		; ObjDictionaryItem[14].SetFunc @ 1376
	.bits	||GetExceptStat||,32		; ObjDictionaryItem[14].GetFunc @ 1408
	.bits		0x220c,16
			; ObjDictionaryItem[15].Index @ 1440
	.bits		0x4,16
			; ObjDictionaryItem[15].bytelen @ 1456
	.bits	||SetFloatPar2PD||,32		; ObjDictionaryItem[15].SetFunc @ 1472
	.bits	||GetFloatPar2PD||,32		; ObjDictionaryItem[15].GetFunc @ 1504
	.bits		0x2220,16
			; ObjDictionaryItem[16].Index @ 1536
	.bits		0x2,16
			; ObjDictionaryItem[16].bytelen @ 1552
	.bits	||SetMiscTest||,32		; ObjDictionaryItem[16].SetFunc @ 1568
	.bits	||NoSuchGetObject||,32		; ObjDictionaryItem[16].GetFunc @ 1600
	.bits		0x2221,16
			; ObjDictionaryItem[17].Index @ 1632
	.bits		0x2,16
			; ObjDictionaryItem[17].bytelen @ 1648
	.bits	||SetServoTest||,32		; ObjDictionaryItem[17].SetFunc @ 1664
	.bits	||GetServoTest||,32		; ObjDictionaryItem[17].GetFunc @ 1696
	.bits		0x2301,16
			; ObjDictionaryItem[18].Index @ 1728
	.bits		0x4,16
			; ObjDictionaryItem[18].bytelen @ 1744
	.bits	||SetFwCmd||,32		; ObjDictionaryItem[18].SetFunc @ 1760
	.bits	||GetFwCmdPD||,32		; ObjDictionaryItem[18].GetFunc @ 1792
	.bits		0x2303,16
			; ObjDictionaryItem[19].Index @ 1824
	.bits		0x4,16
			; ObjDictionaryItem[19].bytelen @ 1840
	.bits	||SetManipCalibCmd||,32		; ObjDictionaryItem[19].SetFunc @ 1856
	.bits	||GetManipCalibCmd||,32		; ObjDictionaryItem[19].GetFunc @ 1888
	.bits		0x24ff,16
			; ObjDictionaryItem[20].Index @ 1920
	.bits		0x4,16
			; ObjDictionaryItem[20].bytelen @ 1936
	.bits	||SetPDCmdDef||,32		; ObjDictionaryItem[20].SetFunc @ 1952
	.bits	||NoSuchGetObject||,32		; ObjDictionaryItem[20].GetFunc @ 1984
	.bits		0x2500,16
			; ObjDictionaryItem[21].Index @ 2016
	.bits		0x4,16
			; ObjDictionaryItem[21].bytelen @ 2032
	.bits	||SetPDCommand1||,32		; ObjDictionaryItem[21].SetFunc @ 2048
	.bits	||GetPdCmd1||,32		; ObjDictionaryItem[21].GetFunc @ 2080
	.bits		0x2501,16
			; ObjDictionaryItem[22].Index @ 2112
	.bits		0x4,16
			; ObjDictionaryItem[22].bytelen @ 2128
	.bits	||SetPDCommand2||,32		; ObjDictionaryItem[22].SetFunc @ 2144
	.bits	||GetPdCmd2||,32		; ObjDictionaryItem[22].GetFunc @ 2176
	.bits		0x2502,16
			; ObjDictionaryItem[23].Index @ 2208
	.bits		0x4,16
			; ObjDictionaryItem[23].bytelen @ 2224
	.bits	||SetPDCommand3||,32		; ObjDictionaryItem[23].SetFunc @ 2240
	.bits	||GetPdCmd3||,32		; ObjDictionaryItem[23].GetFunc @ 2272
	.bits		0x2503,16
			; ObjDictionaryItem[24].Index @ 2304
	.bits		0x4,16
			; ObjDictionaryItem[24].bytelen @ 2320
	.bits	||SetPDCommand4||,32		; ObjDictionaryItem[24].SetFunc @ 2336
	.bits	||GetPdCmd4||,32		; ObjDictionaryItem[24].GetFunc @ 2368
	.bits		0x2504,16
			; ObjDictionaryItem[25].Index @ 2400
	.bits		0x4,16
			; ObjDictionaryItem[25].bytelen @ 2416
	.bits	||SetPDCommand5||,32		; ObjDictionaryItem[25].SetFunc @ 2432
	.bits	||GetPdCmd5||,32		; ObjDictionaryItem[25].GetFunc @ 2464
	.bits		0xfff,16
			; ObjDictionaryItem[26].Index @ 2496
	.bits		0x4,16
			; ObjDictionaryItem[26].bytelen @ 2512
	.bits	||NoSuchSetObject||,32		; ObjDictionaryItem[26].SetFunc @ 2528
	.bits		0,32
			; ObjDictionaryItem[26].GetFunc @ 2560

$C$DW$176	.dwtag  DW_TAG_variable
	.dwattr $C$DW$176, DW_AT_name("ObjDictionaryItem")
	.dwattr $C$DW$176, DW_AT_linkage_name("ObjDictionaryItem")
	.dwattr $C$DW$176, DW_AT_location[DW_OP_addr ||ObjDictionaryItem||]
	.dwattr $C$DW$176, DW_AT_type(*$C$DW$T$252)
	.dwattr $C$DW$176, DW_AT_external
	.dwattr $C$DW$176, DW_AT_decl_file("../Application/ObjectDictionary2.c")
	.dwattr $C$DW$176, DW_AT_decl_line(0x50)
	.dwattr $C$DW$176, DW_AT_decl_column(0x21)

$C$DW$177	.dwtag  DW_TAG_variable
	.dwattr $C$DW$177, DW_AT_name("ManGeo")
	.dwattr $C$DW$177, DW_AT_linkage_name("ManGeo")
	.dwattr $C$DW$177, DW_AT_type(*$C$DW$T$114)
	.dwattr $C$DW$177, DW_AT_declaration
	.dwattr $C$DW$177, DW_AT_external
	.dwattr $C$DW$177, DW_AT_decl_file("..\Application\ManState.h")
	.dwattr $C$DW$177, DW_AT_decl_line(0x1a4)
	.dwattr $C$DW$177, DW_AT_decl_column(0x1f)

$C$DW$178	.dwtag  DW_TAG_variable
	.dwattr $C$DW$178, DW_AT_name("DynStat24")
	.dwattr $C$DW$178, DW_AT_linkage_name("DynStat24")
	.dwattr $C$DW$178, DW_AT_type(*$C$DW$T$243)
	.dwattr $C$DW$178, DW_AT_declaration
	.dwattr $C$DW$178, DW_AT_external
	.dwattr $C$DW$178, DW_AT_decl_file("..\Application\Dynamixel.h")
	.dwattr $C$DW$178, DW_AT_decl_line(0xf6)
	.dwattr $C$DW$178, DW_AT_decl_column(0x25)

$C$DW$179	.dwtag  DW_TAG_variable
	.dwattr $C$DW$179, DW_AT_name("DynStat12")
	.dwattr $C$DW$179, DW_AT_linkage_name("DynStat12")
	.dwattr $C$DW$179, DW_AT_type(*$C$DW$T$243)
	.dwattr $C$DW$179, DW_AT_declaration
	.dwattr $C$DW$179, DW_AT_external
	.dwattr $C$DW$179, DW_AT_decl_file("..\Application\Dynamixel.h")
	.dwattr $C$DW$179, DW_AT_decl_line(0xf7)
	.dwattr $C$DW$179, DW_AT_decl_column(0x25)

$C$DW$180	.dwtag  DW_TAG_variable
	.dwattr $C$DW$180, DW_AT_name("Dynamixel24")
	.dwattr $C$DW$180, DW_AT_linkage_name("Dynamixel24")
	.dwattr $C$DW$180, DW_AT_type(*$C$DW$T$105)
	.dwattr $C$DW$180, DW_AT_declaration
	.dwattr $C$DW$180, DW_AT_external
	.dwattr $C$DW$180, DW_AT_decl_file("..\Application\Dynamixel.h")
	.dwattr $C$DW$180, DW_AT_decl_line(0x93)
	.dwattr $C$DW$180, DW_AT_decl_column(0x26)

$C$DW$181	.dwtag  DW_TAG_variable
	.dwattr $C$DW$181, DW_AT_name("Dynamixel12")
	.dwattr $C$DW$181, DW_AT_linkage_name("Dynamixel12")
	.dwattr $C$DW$181, DW_AT_type(*$C$DW$T$105)
	.dwattr $C$DW$181, DW_AT_declaration
	.dwattr $C$DW$181, DW_AT_external
	.dwattr $C$DW$181, DW_AT_decl_file("..\Application\Dynamixel.h")
	.dwattr $C$DW$181, DW_AT_decl_line(0x94)
	.dwattr $C$DW$181, DW_AT_decl_column(0x26)

$C$DW$182	.dwtag  DW_TAG_variable
	.dwattr $C$DW$182, DW_AT_name("SysTimerStr")
	.dwattr $C$DW$182, DW_AT_linkage_name("SysTimerStr")
	.dwattr $C$DW$182, DW_AT_type(*$C$DW$T$154)
	.dwattr $C$DW$182, DW_AT_declaration
	.dwattr $C$DW$182, DW_AT_external
	.dwattr $C$DW$182, DW_AT_decl_file("..\Application\StructDef2.h")
	.dwattr $C$DW$182, DW_AT_decl_line(0x4ae)
	.dwattr $C$DW$182, DW_AT_decl_column(0x20)

$C$DW$183	.dwtag  DW_TAG_variable
	.dwattr $C$DW$183, DW_AT_name("S2M")
	.dwattr $C$DW$183, DW_AT_linkage_name("S2M")
	.dwattr $C$DW$183, DW_AT_type(*$C$DW$T$218)
	.dwattr $C$DW$183, DW_AT_declaration
	.dwattr $C$DW$183, DW_AT_external
	.dwattr $C$DW$183, DW_AT_decl_file("..\Application\StructDef2.h")
	.dwattr $C$DW$183, DW_AT_decl_line(0x23a)
	.dwattr $C$DW$183, DW_AT_decl_column(0x23)

$C$DW$184	.dwtag  DW_TAG_variable
	.dwattr $C$DW$184, DW_AT_name("SysState")
	.dwattr $C$DW$184, DW_AT_linkage_name("SysState")
	.dwattr $C$DW$184, DW_AT_type(*$C$DW$T$152)
	.dwattr $C$DW$184, DW_AT_declaration
	.dwattr $C$DW$184, DW_AT_external
	.dwattr $C$DW$184, DW_AT_decl_file("..\Application\StructDef2.h")
	.dwattr $C$DW$184, DW_AT_decl_line(0x403)
	.dwattr $C$DW$184, DW_AT_decl_column(0x1d)

$C$DW$185	.dwtag  DW_TAG_variable
	.dwattr $C$DW$185, DW_AT_name("ManCmd")
	.dwattr $C$DW$185, DW_AT_linkage_name("ManCmd")
	.dwattr $C$DW$185, DW_AT_type(*$C$DW$T$112)
	.dwattr $C$DW$185, DW_AT_declaration
	.dwattr $C$DW$185, DW_AT_external
	.dwattr $C$DW$185, DW_AT_decl_file("..\Application\ManState.h")
	.dwattr $C$DW$185, DW_AT_decl_line(0x139)
	.dwattr $C$DW$185, DW_AT_decl_column(0x1f)

	.sblock	".bss"
	.sblock	".const"
;	C:\ti\ccs1260\ccs\tools\compiler\ti-cgt-c2000_22.6.1.LTS\bin\acia2000.exe -@C:\\Users\\yahal\\AppData\\Local\\Temp\\{1C21B1CD-E3BA-431B-A411-91FAC4AE6BC4} 
	.sect	".text:Flash_RelinquishPumpSemaphore"
	.clink
	.global	||Flash_RelinquishPumpSemaphore||

$C$DW$186	.dwtag  DW_TAG_subprogram
	.dwattr $C$DW$186, DW_AT_name("Flash_RelinquishPumpSemaphore")
	.dwattr $C$DW$186, DW_AT_low_pc(||Flash_RelinquishPumpSemaphore||)
	.dwattr $C$DW$186, DW_AT_high_pc(0x00)
	.dwattr $C$DW$186, DW_AT_linkage_name("Flash_RelinquishPumpSemaphore")
	.dwattr $C$DW$186, DW_AT_external
	.dwattr $C$DW$186, DW_AT_decl_file("..\Application\..\Drivers\..\F2838x_driverlib\driverlib\flash.h")
	.dwattr $C$DW$186, DW_AT_decl_line(0x61f)
	.dwattr $C$DW$186, DW_AT_decl_column(0x0d)
	.dwattr $C$DW$186, DW_AT_TI_max_frame_size(-2)
	.dwpsn	file "..\Application\..\Drivers\..\F2838x_driverlib\driverlib\flash.h",line 1568,column 1,is_stmt,address ||Flash_RelinquishPumpSemaphore||,isa 0

	.dwfde $C$DW$CIE, ||Flash_RelinquishPumpSemaphore||

;***************************************************************
;* FNAME: Flash_RelinquishPumpSemaphore FR SIZE:   0           *
;*                                                             *
;* FUNCTION ENVIRONMENT                                        *
;*                                                             *
;* FUNCTION PROPERTIES                                         *
;*                            0 Parameter,  0 Auto,  0 SOE     *
;***************************************************************

||Flash_RelinquishPumpSemaphore||:
	.dwcfi	cfa_offset, -2
	.dwcfi	save_reg_to_mem, 26, 0
	.dwpsn	file "..\Application\..\Drivers\..\F2838x_driverlib\driverlib\flash.h",line 1569,column 5,is_stmt,isa 0
 EALLOW
	.dwpsn	file "..\Application\..\Drivers\..\F2838x_driverlib\driverlib\flash.h",line 1570,column 5,is_stmt,isa 0
        MOVW      DP,#||IPC_Instance||+66 ; [CPU_ARAU] 
        MOVL      XAR4,@||IPC_Instance||+66 ; [CPU_ALU] |1570| 
        MOVB      AL,#0                 ; [CPU_ALU] |1570| 
        MOV       AH,#23130             ; [CPU_ALU] |1570| 
        MOVL      *+XAR4[4],ACC         ; [CPU_ALU] |1570| 
	.dwpsn	file "..\Application\..\Drivers\..\F2838x_driverlib\driverlib\flash.h",line 1571,column 5,is_stmt,isa 0
 EDIS
	.dwpsn	file "..\Application\..\Drivers\..\F2838x_driverlib\driverlib\flash.h",line 1572,column 1,is_stmt,isa 0
        SPM       #0                    ; [CPU_ALU] 
$C$DW$187	.dwtag  DW_TAG_TI_branch
	.dwattr $C$DW$187, DW_AT_low_pc(0x00)
	.dwattr $C$DW$187, DW_AT_TI_return

        LRETR     ; [CPU_ALU] 
        ; return occurs ; [] 
	.dwattr $C$DW$186, DW_AT_TI_end_file("..\Application\..\Drivers\..\F2838x_driverlib\driverlib\flash.h")
	.dwattr $C$DW$186, DW_AT_TI_end_line(0x624)
	.dwattr $C$DW$186, DW_AT_TI_end_column(0x01)
	.dwendentry
	.dwendtag $C$DW$186

	.sect	".text:GetSemaphore"
	.clink
	.global	||GetSemaphore||

$C$DW$188	.dwtag  DW_TAG_subprogram
	.dwattr $C$DW$188, DW_AT_name("GetSemaphore")
	.dwattr $C$DW$188, DW_AT_low_pc(||GetSemaphore||)
	.dwattr $C$DW$188, DW_AT_high_pc(0x00)
	.dwattr $C$DW$188, DW_AT_linkage_name("GetSemaphore")
	.dwattr $C$DW$188, DW_AT_external
	.dwattr $C$DW$188, DW_AT_type(*$C$DW$T$13)
	.dwattr $C$DW$188, DW_AT_decl_file("..\Application\..\Drivers\..\F2838x_driverlib\driverlib\flash.h")
	.dwattr $C$DW$188, DW_AT_decl_line(0x627)
	.dwattr $C$DW$188, DW_AT_decl_column(0x0f)
	.dwattr $C$DW$188, DW_AT_TI_max_frame_size(-2)
	.dwpsn	file "..\Application\..\Drivers\..\F2838x_driverlib\driverlib\flash.h",line 1576,column 1,is_stmt,address ||GetSemaphore||,isa 0

	.dwfde $C$DW$CIE, ||GetSemaphore||

;***************************************************************
;* FNAME: GetSemaphore                  FR SIZE:   0           *
;*                                                             *
;* FUNCTION ENVIRONMENT                                        *
;*                                                             *
;* FUNCTION PROPERTIES                                         *
;*                            0 Parameter,  0 Auto,  0 SOE     *
;***************************************************************

||GetSemaphore||:
	.dwcfi	cfa_offset, -2
	.dwcfi	save_reg_to_mem, 26, 0
	.dwpsn	file "..\Application\..\Drivers\..\F2838x_driverlib\driverlib\flash.h",line 1577,column 5,is_stmt,isa 0
        MOVW      DP,#||IPC_Instance||+66 ; [CPU_ARAU] 
        MOVL      XAR4,@||IPC_Instance||+66 ; [CPU_ALU] |1577| 
        MOVL      ACC,*+XAR4[4]         ; [CPU_ALU] |1577| 
	.dwpsn	file "..\Application\..\Drivers\..\F2838x_driverlib\driverlib\flash.h",line 1578,column 1,is_stmt,isa 0
$C$DW$189	.dwtag  DW_TAG_TI_branch
	.dwattr $C$DW$189, DW_AT_low_pc(0x00)
	.dwattr $C$DW$189, DW_AT_TI_return

        LRETR     ; [CPU_ALU] 
        ; return occurs ; [] 
	.dwattr $C$DW$188, DW_AT_TI_end_file("..\Application\..\Drivers\..\F2838x_driverlib\driverlib\flash.h")
	.dwattr $C$DW$188, DW_AT_TI_end_line(0x62a)
	.dwattr $C$DW$188, DW_AT_TI_end_column(0x01)
	.dwendentry
	.dwendtag $C$DW$188

	.sect	".text:EnableRs485Tx_2"
	.clink
	.global	||EnableRs485Tx_2||

$C$DW$190	.dwtag  DW_TAG_subprogram
	.dwattr $C$DW$190, DW_AT_name("EnableRs485Tx_2")
	.dwattr $C$DW$190, DW_AT_low_pc(||EnableRs485Tx_2||)
	.dwattr $C$DW$190, DW_AT_high_pc(0x00)
	.dwattr $C$DW$190, DW_AT_linkage_name("EnableRs485Tx_2")
	.dwattr $C$DW$190, DW_AT_external
	.dwattr $C$DW$190, DW_AT_decl_file("..\Application\Dynamixel.h")
	.dwattr $C$DW$190, DW_AT_decl_line(0xe2)
	.dwattr $C$DW$190, DW_AT_decl_column(0x0d)
	.dwattr $C$DW$190, DW_AT_TI_max_frame_size(-2)
	.dwpsn	file "..\Application\Dynamixel.h",line 227,column 1,is_stmt,address ||EnableRs485Tx_2||,isa 0

	.dwfde $C$DW$CIE, ||EnableRs485Tx_2||

;***************************************************************
;* FNAME: EnableRs485Tx_2               FR SIZE:   0           *
;*                                                             *
;* FUNCTION ENVIRONMENT                                        *
;*                                                             *
;* FUNCTION PROPERTIES                                         *
;*                            0 Parameter,  0 Auto,  0 SOE     *
;***************************************************************

||EnableRs485Tx_2||:
	.dwcfi	cfa_offset, -2
	.dwcfi	save_reg_to_mem, 26, 0
	.dwpsn	file "..\Application\Dynamixel.h",line 228,column 5,is_stmt,isa 0
        MOVW      DP,#||GpioDataRegs||+34 ; [CPU_ARAU] 
        OR        @$BLOCKED(||GpioDataRegs||)+34,#0x8000 ; [CPU_ALU] |228| 
	.dwpsn	file "..\Application\Dynamixel.h",line 229,column 1,is_stmt,isa 0
$C$DW$191	.dwtag  DW_TAG_TI_branch
	.dwattr $C$DW$191, DW_AT_low_pc(0x00)
	.dwattr $C$DW$191, DW_AT_TI_return

        LRETR     ; [CPU_ALU] 
        ; return occurs ; [] 
	.dwattr $C$DW$190, DW_AT_TI_end_file("..\Application\Dynamixel.h")
	.dwattr $C$DW$190, DW_AT_TI_end_line(0xe5)
	.dwattr $C$DW$190, DW_AT_TI_end_column(0x01)
	.dwendentry
	.dwendtag $C$DW$190

	.sect	".text:DisableRs485Tx_2"
	.clink
	.global	||DisableRs485Tx_2||

$C$DW$192	.dwtag  DW_TAG_subprogram
	.dwattr $C$DW$192, DW_AT_name("DisableRs485Tx_2")
	.dwattr $C$DW$192, DW_AT_low_pc(||DisableRs485Tx_2||)
	.dwattr $C$DW$192, DW_AT_high_pc(0x00)
	.dwattr $C$DW$192, DW_AT_linkage_name("DisableRs485Tx_2")
	.dwattr $C$DW$192, DW_AT_external
	.dwattr $C$DW$192, DW_AT_decl_file("..\Application\Dynamixel.h")
	.dwattr $C$DW$192, DW_AT_decl_line(0xe6)
	.dwattr $C$DW$192, DW_AT_decl_column(0x0d)
	.dwattr $C$DW$192, DW_AT_TI_max_frame_size(-2)
	.dwpsn	file "..\Application\Dynamixel.h",line 231,column 1,is_stmt,address ||DisableRs485Tx_2||,isa 0

	.dwfde $C$DW$CIE, ||DisableRs485Tx_2||

;***************************************************************
;* FNAME: DisableRs485Tx_2              FR SIZE:   0           *
;*                                                             *
;* FUNCTION ENVIRONMENT                                        *
;*                                                             *
;* FUNCTION PROPERTIES                                         *
;*                            0 Parameter,  0 Auto,  0 SOE     *
;***************************************************************

||DisableRs485Tx_2||:
	.dwcfi	cfa_offset, -2
	.dwcfi	save_reg_to_mem, 26, 0
	.dwpsn	file "..\Application\Dynamixel.h",line 232,column 5,is_stmt,isa 0
        MOVW      DP,#||GpioDataRegs||+36 ; [CPU_ARAU] 
        OR        @$BLOCKED(||GpioDataRegs||)+36,#0x8000 ; [CPU_ALU] |232| 
	.dwpsn	file "..\Application\Dynamixel.h",line 233,column 1,is_stmt,isa 0
$C$DW$193	.dwtag  DW_TAG_TI_branch
	.dwattr $C$DW$193, DW_AT_low_pc(0x00)
	.dwattr $C$DW$193, DW_AT_TI_return

        LRETR     ; [CPU_ALU] 
        ; return occurs ; [] 
	.dwattr $C$DW$192, DW_AT_TI_end_file("..\Application\Dynamixel.h")
	.dwattr $C$DW$192, DW_AT_TI_end_line(0xe9)
	.dwattr $C$DW$192, DW_AT_TI_end_column(0x01)
	.dwendentry
	.dwendtag $C$DW$192

	.sect	".text:EnableRs485Tx_1"
	.clink
	.global	||EnableRs485Tx_1||

$C$DW$194	.dwtag  DW_TAG_subprogram
	.dwattr $C$DW$194, DW_AT_name("EnableRs485Tx_1")
	.dwattr $C$DW$194, DW_AT_low_pc(||EnableRs485Tx_1||)
	.dwattr $C$DW$194, DW_AT_high_pc(0x00)
	.dwattr $C$DW$194, DW_AT_linkage_name("EnableRs485Tx_1")
	.dwattr $C$DW$194, DW_AT_external
	.dwattr $C$DW$194, DW_AT_decl_file("..\Application\Dynamixel.h")
	.dwattr $C$DW$194, DW_AT_decl_line(0xeb)
	.dwattr $C$DW$194, DW_AT_decl_column(0x0d)
	.dwattr $C$DW$194, DW_AT_TI_max_frame_size(-2)
	.dwpsn	file "..\Application\Dynamixel.h",line 236,column 1,is_stmt,address ||EnableRs485Tx_1||,isa 0

	.dwfde $C$DW$CIE, ||EnableRs485Tx_1||

;***************************************************************
;* FNAME: EnableRs485Tx_1               FR SIZE:   0           *
;*                                                             *
;* FUNCTION ENVIRONMENT                                        *
;*                                                             *
;* FUNCTION PROPERTIES                                         *
;*                            0 Parameter,  0 Auto,  0 SOE     *
;***************************************************************

||EnableRs485Tx_1||:
	.dwcfi	cfa_offset, -2
	.dwcfi	save_reg_to_mem, 26, 0
	.dwpsn	file "..\Application\Dynamixel.h",line 237,column 5,is_stmt,isa 0
        MOVW      DP,#||GpioDataRegs||+35 ; [CPU_ARAU] 
        OR        @$BLOCKED(||GpioDataRegs||)+35,#0x0001 ; [CPU_ALU] |237| 
	.dwpsn	file "..\Application\Dynamixel.h",line 238,column 1,is_stmt,isa 0
$C$DW$195	.dwtag  DW_TAG_TI_branch
	.dwattr $C$DW$195, DW_AT_low_pc(0x00)
	.dwattr $C$DW$195, DW_AT_TI_return

        LRETR     ; [CPU_ALU] 
        ; return occurs ; [] 
	.dwattr $C$DW$194, DW_AT_TI_end_file("..\Application\Dynamixel.h")
	.dwattr $C$DW$194, DW_AT_TI_end_line(0xee)
	.dwattr $C$DW$194, DW_AT_TI_end_column(0x01)
	.dwendentry
	.dwendtag $C$DW$194

	.sect	".text:DisableRs485Tx_1"
	.clink
	.global	||DisableRs485Tx_1||

$C$DW$196	.dwtag  DW_TAG_subprogram
	.dwattr $C$DW$196, DW_AT_name("DisableRs485Tx_1")
	.dwattr $C$DW$196, DW_AT_low_pc(||DisableRs485Tx_1||)
	.dwattr $C$DW$196, DW_AT_high_pc(0x00)
	.dwattr $C$DW$196, DW_AT_linkage_name("DisableRs485Tx_1")
	.dwattr $C$DW$196, DW_AT_external
	.dwattr $C$DW$196, DW_AT_decl_file("..\Application\Dynamixel.h")
	.dwattr $C$DW$196, DW_AT_decl_line(0xef)
	.dwattr $C$DW$196, DW_AT_decl_column(0x0d)
	.dwattr $C$DW$196, DW_AT_TI_max_frame_size(-2)
	.dwpsn	file "..\Application\Dynamixel.h",line 240,column 1,is_stmt,address ||DisableRs485Tx_1||,isa 0

	.dwfde $C$DW$CIE, ||DisableRs485Tx_1||

;***************************************************************
;* FNAME: DisableRs485Tx_1              FR SIZE:   0           *
;*                                                             *
;* FUNCTION ENVIRONMENT                                        *
;*                                                             *
;* FUNCTION PROPERTIES                                         *
;*                            0 Parameter,  0 Auto,  0 SOE     *
;***************************************************************

||DisableRs485Tx_1||:
	.dwcfi	cfa_offset, -2
	.dwcfi	save_reg_to_mem, 26, 0
	.dwpsn	file "..\Application\Dynamixel.h",line 241,column 5,is_stmt,isa 0
        MOVW      DP,#||GpioDataRegs||+37 ; [CPU_ARAU] 
        OR        @$BLOCKED(||GpioDataRegs||)+37,#0x0001 ; [CPU_ALU] |241| 
	.dwpsn	file "..\Application\Dynamixel.h",line 242,column 1,is_stmt,isa 0
$C$DW$197	.dwtag  DW_TAG_TI_branch
	.dwattr $C$DW$197, DW_AT_low_pc(0x00)
	.dwattr $C$DW$197, DW_AT_TI_return

        LRETR     ; [CPU_ALU] 
        ; return occurs ; [] 
	.dwattr $C$DW$196, DW_AT_TI_end_file("..\Application\Dynamixel.h")
	.dwattr $C$DW$196, DW_AT_TI_end_line(0xf2)
	.dwattr $C$DW$196, DW_AT_TI_end_column(0x01)
	.dwendentry
	.dwendtag $C$DW$196

	.sect	".text:IsSpeedCmdZero"
	.clink
	.global	||IsSpeedCmdZero||

$C$DW$198	.dwtag  DW_TAG_subprogram
	.dwattr $C$DW$198, DW_AT_name("IsSpeedCmdZero")
	.dwattr $C$DW$198, DW_AT_low_pc(||IsSpeedCmdZero||)
	.dwattr $C$DW$198, DW_AT_high_pc(0x00)
	.dwattr $C$DW$198, DW_AT_linkage_name("IsSpeedCmdZero")
	.dwattr $C$DW$198, DW_AT_external
	.dwattr $C$DW$198, DW_AT_type(*$C$DW$T$8)
	.dwattr $C$DW$198, DW_AT_decl_file("..\Application\..\..\BHAxes\BhAxes.h")
	.dwattr $C$DW$198, DW_AT_decl_line(0x15e)
	.dwattr $C$DW$198, DW_AT_decl_column(0x07)
	.dwattr $C$DW$198, DW_AT_TI_max_frame_size(-6)
	.dwpsn	file "..\Application\..\..\BHAxes\BhAxes.h",line 351,column 1,is_stmt,address ||IsSpeedCmdZero||,isa 0

	.dwfde $C$DW$CIE, ||IsSpeedCmdZero||
$C$DW$199	.dwtag  DW_TAG_formal_parameter
	.dwattr $C$DW$199, DW_AT_name("pAxis")
	.dwattr $C$DW$199, DW_AT_type(*$C$DW$T$237)
	.dwattr $C$DW$199, DW_AT_location[DW_OP_reg12]


;***************************************************************
;* FNAME: IsSpeedCmdZero                FR SIZE:   4           *
;*                                                             *
;* FUNCTION ENVIRONMENT                                        *
;*                                                             *
;* FUNCTION PROPERTIES                                         *
;*                            2 Parameter,  2 Auto,  0 SOE     *
;***************************************************************

||IsSpeedCmdZero||:
	.dwcfi	cfa_offset, -2
	.dwcfi	save_reg_to_mem, 26, 0
        ADDB      SP,#4                 ; [CPU_ARAU] 
	.dwcfi	cfa_offset, -6
$C$DW$200	.dwtag  DW_TAG_variable
	.dwattr $C$DW$200, DW_AT_name("pAxis")
	.dwattr $C$DW$200, DW_AT_type(*$C$DW$T$237)
	.dwattr $C$DW$200, DW_AT_location[DW_OP_breg20 -4]

        MOVL      *-SP[4],XAR4          ; [CPU_ALU] |351| 
	.dwpsn	file "..\Application\..\..\BHAxes\BhAxes.h",line 352,column 5,is_stmt,isa 0
        MOVB      ACC,#90               ; [CPU_ALU] |352| 
        ADDL      ACC,*-SP[4]           ; [CPU_ALU] |352| 
        MOVL      XAR4,ACC              ; [CPU_ALU] |352| 
        MOV32     R0H,*+XAR4[0]         ; [CPU_FPU] |352| 
        CMPF32    R0H,#0                ; [CPU_FPU] |352| 
        MOVST0    ZF, NF                ; [CPU_FPU] |352| 
        B         ||$C$L1||,EQ          ; [CPU_ALU] |352| 
        ; branchcc occurs ; [] |352| 
        MOVB      AL,#0                 ; [CPU_ALU] |352| 
        B         ||$C$L2||,UNC         ; [CPU_ALU] |352| 
        ; branch occurs ; [] |352| 
||$C$L1||:    
        MOVB      AL,#1                 ; [CPU_ALU] |352| 
||$C$L2||:    
	.dwpsn	file "..\Application\..\..\BHAxes\BhAxes.h",line 353,column 1,is_stmt,isa 0
        SUBB      SP,#4                 ; [CPU_ARAU] 
	.dwcfi	cfa_offset, -2
$C$DW$201	.dwtag  DW_TAG_TI_branch
	.dwattr $C$DW$201, DW_AT_low_pc(0x00)
	.dwattr $C$DW$201, DW_AT_TI_return

        LRETR     ; [CPU_ALU] 
        ; return occurs ; [] 
	.dwattr $C$DW$198, DW_AT_TI_end_file("..\Application\..\..\BHAxes\BhAxes.h")
	.dwattr $C$DW$198, DW_AT_TI_end_line(0x161)
	.dwattr $C$DW$198, DW_AT_TI_end_column(0x01)
	.dwendentry
	.dwendtag $C$DW$198

	.sect	".text:ResetAxisFaults"
	.clink
	.global	||ResetAxisFaults||

$C$DW$202	.dwtag  DW_TAG_subprogram
	.dwattr $C$DW$202, DW_AT_name("ResetAxisFaults")
	.dwattr $C$DW$202, DW_AT_low_pc(||ResetAxisFaults||)
	.dwattr $C$DW$202, DW_AT_high_pc(0x00)
	.dwattr $C$DW$202, DW_AT_linkage_name("ResetAxisFaults")
	.dwattr $C$DW$202, DW_AT_external
	.dwattr $C$DW$202, DW_AT_decl_file("..\Application\..\..\BHAxes\BhAxes.h")
	.dwattr $C$DW$202, DW_AT_decl_line(0x164)
	.dwattr $C$DW$202, DW_AT_decl_column(0x06)
	.dwattr $C$DW$202, DW_AT_TI_max_frame_size(-4)
	.dwpsn	file "..\Application\..\..\BHAxes\BhAxes.h",line 357,column 1,is_stmt,address ||ResetAxisFaults||,isa 0

	.dwfde $C$DW$CIE, ||ResetAxisFaults||
$C$DW$203	.dwtag  DW_TAG_formal_parameter
	.dwattr $C$DW$203, DW_AT_name("pAxis")
	.dwattr $C$DW$203, DW_AT_type(*$C$DW$T$237)
	.dwattr $C$DW$203, DW_AT_location[DW_OP_reg12]


;***************************************************************
;* FNAME: ResetAxisFaults               FR SIZE:   2           *
;*                                                             *
;* FUNCTION ENVIRONMENT                                        *
;*                                                             *
;* FUNCTION PROPERTIES                                         *
;*                            0 Parameter,  2 Auto,  0 SOE     *
;***************************************************************

||ResetAxisFaults||:
	.dwcfi	cfa_offset, -2
	.dwcfi	save_reg_to_mem, 26, 0
        ADDB      SP,#2                 ; [CPU_ARAU] 
	.dwcfi	cfa_offset, -4
$C$DW$204	.dwtag  DW_TAG_variable
	.dwattr $C$DW$204, DW_AT_name("pAxis")
	.dwattr $C$DW$204, DW_AT_type(*$C$DW$T$237)
	.dwattr $C$DW$204, DW_AT_location[DW_OP_breg20 -2]

        MOVL      *-SP[2],XAR4          ; [CPU_ALU] |357| 
	.dwpsn	file "..\Application\..\..\BHAxes\BhAxes.h",line 358,column 5,is_stmt,isa 0
        MOVB      ACC,#82               ; [CPU_ALU] |358| 
        ADDL      ACC,*-SP[2]           ; [CPU_ALU] |358| 
        MOVL      XAR4,ACC              ; [CPU_ALU] |358| 
        OR        *+XAR4[0],#0x0002     ; [CPU_ALU] |358| 
	.dwpsn	file "..\Application\..\..\BHAxes\BhAxes.h",line 359,column 1,is_stmt,isa 0
        SUBB      SP,#2                 ; [CPU_ARAU] 
	.dwcfi	cfa_offset, -2
$C$DW$205	.dwtag  DW_TAG_TI_branch
	.dwattr $C$DW$205, DW_AT_low_pc(0x00)
	.dwattr $C$DW$205, DW_AT_TI_return

        LRETR     ; [CPU_ALU] 
        ; return occurs ; [] 
	.dwattr $C$DW$202, DW_AT_TI_end_file("..\Application\..\..\BHAxes\BhAxes.h")
	.dwattr $C$DW$202, DW_AT_TI_end_line(0x167)
	.dwattr $C$DW$202, DW_AT_TI_end_column(0x01)
	.dwendentry
	.dwendtag $C$DW$202

	.sect	".text:SetPosCmd2PosFeedback"
	.clink
	.global	||SetPosCmd2PosFeedback||

$C$DW$206	.dwtag  DW_TAG_subprogram
	.dwattr $C$DW$206, DW_AT_name("SetPosCmd2PosFeedback")
	.dwattr $C$DW$206, DW_AT_low_pc(||SetPosCmd2PosFeedback||)
	.dwattr $C$DW$206, DW_AT_high_pc(0x00)
	.dwattr $C$DW$206, DW_AT_linkage_name("SetPosCmd2PosFeedback")
	.dwattr $C$DW$206, DW_AT_external
	.dwattr $C$DW$206, DW_AT_decl_file("..\Application\..\..\BHAxes\BhAxes.h")
	.dwattr $C$DW$206, DW_AT_decl_line(0x16e)
	.dwattr $C$DW$206, DW_AT_decl_column(0x06)
	.dwattr $C$DW$206, DW_AT_TI_max_frame_size(-4)
	.dwpsn	file "..\Application\..\..\BHAxes\BhAxes.h",line 367,column 1,is_stmt,address ||SetPosCmd2PosFeedback||,isa 0

	.dwfde $C$DW$CIE, ||SetPosCmd2PosFeedback||
$C$DW$207	.dwtag  DW_TAG_formal_parameter
	.dwattr $C$DW$207, DW_AT_name("pAxis")
	.dwattr $C$DW$207, DW_AT_type(*$C$DW$T$237)
	.dwattr $C$DW$207, DW_AT_location[DW_OP_reg12]


;***************************************************************
;* FNAME: SetPosCmd2PosFeedback         FR SIZE:   2           *
;*                                                             *
;* FUNCTION ENVIRONMENT                                        *
;*                                                             *
;* FUNCTION PROPERTIES                                         *
;*                            0 Parameter,  2 Auto,  0 SOE     *
;***************************************************************

||SetPosCmd2PosFeedback||:
	.dwcfi	cfa_offset, -2
	.dwcfi	save_reg_to_mem, 26, 0
        ADDB      SP,#2                 ; [CPU_ARAU] 
	.dwcfi	cfa_offset, -4
$C$DW$208	.dwtag  DW_TAG_variable
	.dwattr $C$DW$208, DW_AT_name("pAxis")
	.dwattr $C$DW$208, DW_AT_type(*$C$DW$T$237)
	.dwattr $C$DW$208, DW_AT_location[DW_OP_breg20 -2]

        MOVL      *-SP[2],XAR4          ; [CPU_ALU] |367| 
	.dwpsn	file "..\Application\..\..\BHAxes\BhAxes.h",line 368,column 5,is_stmt,isa 0
        MOVB      ACC,#86               ; [CPU_ALU] |368| 
        ADDL      ACC,*-SP[2]           ; [CPU_ALU] |368| 
        MOVL      XAR4,ACC              ; [CPU_ALU] |368| 
        MOVL      XAR6,*+XAR4[0]        ; [CPU_ALU] |368| 
        MOVB      ACC,#92               ; [CPU_ALU] |368| 
        ADDL      ACC,*-SP[2]           ; [CPU_ALU] |368| 
        MOVL      XAR4,ACC              ; [CPU_ALU] |368| 
        MOVL      *+XAR4[0],XAR6        ; [CPU_ALU] |368| 
	.dwpsn	file "..\Application\..\..\BHAxes\BhAxes.h",line 369,column 1,is_stmt,isa 0
        SUBB      SP,#2                 ; [CPU_ARAU] 
	.dwcfi	cfa_offset, -2
$C$DW$209	.dwtag  DW_TAG_TI_branch
	.dwattr $C$DW$209, DW_AT_low_pc(0x00)
	.dwattr $C$DW$209, DW_AT_TI_return

        LRETR     ; [CPU_ALU] 
        ; return occurs ; [] 
	.dwattr $C$DW$206, DW_AT_TI_end_file("..\Application\..\..\BHAxes\BhAxes.h")
	.dwattr $C$DW$206, DW_AT_TI_end_line(0x171)
	.dwattr $C$DW$206, DW_AT_TI_end_column(0x01)
	.dwendentry
	.dwendtag $C$DW$206

	.sect	".text:SetWheelSpeedCmd"
	.clink
	.global	||SetWheelSpeedCmd||

$C$DW$210	.dwtag  DW_TAG_subprogram
	.dwattr $C$DW$210, DW_AT_name("SetWheelSpeedCmd")
	.dwattr $C$DW$210, DW_AT_low_pc(||SetWheelSpeedCmd||)
	.dwattr $C$DW$210, DW_AT_high_pc(0x00)
	.dwattr $C$DW$210, DW_AT_linkage_name("SetWheelSpeedCmd")
	.dwattr $C$DW$210, DW_AT_external
	.dwattr $C$DW$210, DW_AT_decl_file("..\Application\..\..\BHAxes\BhAxes.h")
	.dwattr $C$DW$210, DW_AT_decl_line(0x177)
	.dwattr $C$DW$210, DW_AT_decl_column(0x06)
	.dwattr $C$DW$210, DW_AT_TI_max_frame_size(-8)
	.dwpsn	file "..\Application\..\..\BHAxes\BhAxes.h",line 376,column 1,is_stmt,address ||SetWheelSpeedCmd||,isa 0

	.dwfde $C$DW$CIE, ||SetWheelSpeedCmd||
$C$DW$211	.dwtag  DW_TAG_formal_parameter
	.dwattr $C$DW$211, DW_AT_name("pAxis")
	.dwattr $C$DW$211, DW_AT_type(*$C$DW$T$237)
	.dwattr $C$DW$211, DW_AT_location[DW_OP_reg12]

$C$DW$212	.dwtag  DW_TAG_formal_parameter
	.dwattr $C$DW$212, DW_AT_name("v")
	.dwattr $C$DW$212, DW_AT_type(*$C$DW$T$16)
	.dwattr $C$DW$212, DW_AT_location[DW_OP_regx 0x2b]

$C$DW$213	.dwtag  DW_TAG_formal_parameter
	.dwattr $C$DW$213, DW_AT_name("DriveFac")
	.dwattr $C$DW$213, DW_AT_type(*$C$DW$T$16)
	.dwattr $C$DW$213, DW_AT_location[DW_OP_regx 0x2f]


;***************************************************************
;* FNAME: SetWheelSpeedCmd              FR SIZE:   6           *
;*                                                             *
;* FUNCTION ENVIRONMENT                                        *
;*                                                             *
;* FUNCTION PROPERTIES                                         *
;*                            0 Parameter,  6 Auto,  0 SOE     *
;***************************************************************

||SetWheelSpeedCmd||:
	.dwcfi	cfa_offset, -2
	.dwcfi	save_reg_to_mem, 26, 0
        ADDB      SP,#6                 ; [CPU_ARAU] 
	.dwcfi	cfa_offset, -8
$C$DW$214	.dwtag  DW_TAG_variable
	.dwattr $C$DW$214, DW_AT_name("pAxis")
	.dwattr $C$DW$214, DW_AT_type(*$C$DW$T$237)
	.dwattr $C$DW$214, DW_AT_location[DW_OP_breg20 -2]

$C$DW$215	.dwtag  DW_TAG_variable
	.dwattr $C$DW$215, DW_AT_name("v")
	.dwattr $C$DW$215, DW_AT_type(*$C$DW$T$16)
	.dwattr $C$DW$215, DW_AT_location[DW_OP_breg20 -4]

$C$DW$216	.dwtag  DW_TAG_variable
	.dwattr $C$DW$216, DW_AT_name("DriveFac")
	.dwattr $C$DW$216, DW_AT_type(*$C$DW$T$16)
	.dwattr $C$DW$216, DW_AT_location[DW_OP_breg20 -6]

        MOV32     *-SP[6],R1H           ; [CPU_FPU] |376| 
        MOV32     *-SP[4],R0H           ; [CPU_FPU] |376| 
        MOVL      *-SP[2],XAR4          ; [CPU_ALU] |376| 
	.dwpsn	file "..\Application\..\..\BHAxes\BhAxes.h",line 377,column 5,is_stmt,isa 0
        MOVB      ACC,#90               ; [CPU_ALU] |377| 
        MPYF32    R0H,R1H,R0H           ; [CPU_FPU] |377| 
        ADDL      ACC,*-SP[2]           ; [CPU_ALU] |377| 
        MOVL      XAR4,ACC              ; [CPU_ALU] |377| 
        MOV32     *+XAR4[0],R0H         ; [CPU_FPU] |377| 
	.dwpsn	file "..\Application\..\..\BHAxes\BhAxes.h",line 378,column 1,is_stmt,isa 0
        SUBB      SP,#6                 ; [CPU_ARAU] 
	.dwcfi	cfa_offset, -2
$C$DW$217	.dwtag  DW_TAG_TI_branch
	.dwattr $C$DW$217, DW_AT_low_pc(0x00)
	.dwattr $C$DW$217, DW_AT_TI_return

        LRETR     ; [CPU_ALU] 
        ; return occurs ; [] 
	.dwattr $C$DW$210, DW_AT_TI_end_file("..\Application\..\..\BHAxes\BhAxes.h")
	.dwattr $C$DW$210, DW_AT_TI_end_line(0x17a)
	.dwattr $C$DW$210, DW_AT_TI_end_column(0x01)
	.dwendentry
	.dwendtag $C$DW$210

	.sect	".text:CanAxisIsPosition"
	.clink
	.global	||CanAxisIsPosition||

$C$DW$218	.dwtag  DW_TAG_subprogram
	.dwattr $C$DW$218, DW_AT_name("CanAxisIsPosition")
	.dwattr $C$DW$218, DW_AT_low_pc(||CanAxisIsPosition||)
	.dwattr $C$DW$218, DW_AT_high_pc(0x00)
	.dwattr $C$DW$218, DW_AT_linkage_name("CanAxisIsPosition")
	.dwattr $C$DW$218, DW_AT_external
	.dwattr $C$DW$218, DW_AT_type(*$C$DW$T$8)
	.dwattr $C$DW$218, DW_AT_decl_file("..\Application\..\..\BHAxes\BhAxes.h")
	.dwattr $C$DW$218, DW_AT_decl_line(0x17e)
	.dwattr $C$DW$218, DW_AT_decl_column(0x01)
	.dwattr $C$DW$218, DW_AT_TI_max_frame_size(-4)
	.dwpsn	file "..\Application\..\..\BHAxes\BhAxes.h",line 383,column 1,is_stmt,address ||CanAxisIsPosition||,isa 0

	.dwfde $C$DW$CIE, ||CanAxisIsPosition||
$C$DW$219	.dwtag  DW_TAG_formal_parameter
	.dwattr $C$DW$219, DW_AT_name("pAxis")
	.dwattr $C$DW$219, DW_AT_type(*$C$DW$T$237)
	.dwattr $C$DW$219, DW_AT_location[DW_OP_reg12]


;***************************************************************
;* FNAME: CanAxisIsPosition             FR SIZE:   2           *
;*                                                             *
;* FUNCTION ENVIRONMENT                                        *
;*                                                             *
;* FUNCTION PROPERTIES                                         *
;*                            0 Parameter,  2 Auto,  0 SOE     *
;***************************************************************

||CanAxisIsPosition||:
	.dwcfi	cfa_offset, -2
	.dwcfi	save_reg_to_mem, 26, 0
        ADDB      SP,#2                 ; [CPU_ARAU] 
	.dwcfi	cfa_offset, -4
$C$DW$220	.dwtag  DW_TAG_variable
	.dwattr $C$DW$220, DW_AT_name("pAxis")
	.dwattr $C$DW$220, DW_AT_type(*$C$DW$T$237)
	.dwattr $C$DW$220, DW_AT_location[DW_OP_breg20 -2]

        MOVL      *-SP[2],XAR4          ; [CPU_ALU] |383| 
	.dwpsn	file "..\Application\..\..\BHAxes\BhAxes.h",line 384,column 5,is_stmt,isa 0
        MOVB      ACC,#158              ; [CPU_ALU] |384| 
        ADDL      ACC,*-SP[2]           ; [CPU_ALU] |384| 
        MOVL      XAR4,ACC              ; [CPU_ALU] |384| 
        MOVB      AL,#0                 ; [CPU_ALU] |384| 
        MOV       AH,*+XAR4[0]          ; [CPU_ALU] |384| 
        CMPB      AH,#4                 ; [CPU_ALU] |384| 
        B         ||$C$L3||,LO          ; [CPU_ALU] |384| 
        ; branchcc occurs ; [] |384| 
        MOVB      AL,#1                 ; [CPU_ALU] |384| 
||$C$L3||:    
	.dwpsn	file "..\Application\..\..\BHAxes\BhAxes.h",line 385,column 1,is_stmt,isa 0
        SUBB      SP,#2                 ; [CPU_ARAU] 
	.dwcfi	cfa_offset, -2
$C$DW$221	.dwtag  DW_TAG_TI_branch
	.dwattr $C$DW$221, DW_AT_low_pc(0x00)
	.dwattr $C$DW$221, DW_AT_TI_return

        LRETR     ; [CPU_ALU] 
        ; return occurs ; [] 
	.dwattr $C$DW$218, DW_AT_TI_end_file("..\Application\..\..\BHAxes\BhAxes.h")
	.dwattr $C$DW$218, DW_AT_TI_end_line(0x181)
	.dwattr $C$DW$218, DW_AT_TI_end_column(0x01)
	.dwendentry
	.dwendtag $C$DW$218

	.sect	".text:IsMotorOn"
	.clink
	.global	||IsMotorOn||

$C$DW$222	.dwtag  DW_TAG_subprogram
	.dwattr $C$DW$222, DW_AT_name("IsMotorOn")
	.dwattr $C$DW$222, DW_AT_low_pc(||IsMotorOn||)
	.dwattr $C$DW$222, DW_AT_high_pc(0x00)
	.dwattr $C$DW$222, DW_AT_linkage_name("IsMotorOn")
	.dwattr $C$DW$222, DW_AT_external
	.dwattr $C$DW$222, DW_AT_type(*$C$DW$T$9)
	.dwattr $C$DW$222, DW_AT_decl_file("..\Application\..\..\BHAxes\BhAxes.h")
	.dwattr $C$DW$222, DW_AT_decl_line(0x185)
	.dwattr $C$DW$222, DW_AT_decl_column(0x10)
	.dwattr $C$DW$222, DW_AT_TI_max_frame_size(-4)
	.dwpsn	file "..\Application\..\..\BHAxes\BhAxes.h",line 390,column 1,is_stmt,address ||IsMotorOn||,isa 0

	.dwfde $C$DW$CIE, ||IsMotorOn||
$C$DW$223	.dwtag  DW_TAG_formal_parameter
	.dwattr $C$DW$223, DW_AT_name("pAxis")
	.dwattr $C$DW$223, DW_AT_type(*$C$DW$T$237)
	.dwattr $C$DW$223, DW_AT_location[DW_OP_reg12]


;***************************************************************
;* FNAME: IsMotorOn                     FR SIZE:   2           *
;*                                                             *
;* FUNCTION ENVIRONMENT                                        *
;*                                                             *
;* FUNCTION PROPERTIES                                         *
;*                            0 Parameter,  2 Auto,  0 SOE     *
;***************************************************************

||IsMotorOn||:
	.dwcfi	cfa_offset, -2
	.dwcfi	save_reg_to_mem, 26, 0
        ADDB      SP,#2                 ; [CPU_ARAU] 
	.dwcfi	cfa_offset, -4
$C$DW$224	.dwtag  DW_TAG_variable
	.dwattr $C$DW$224, DW_AT_name("pAxis")
	.dwattr $C$DW$224, DW_AT_type(*$C$DW$T$237)
	.dwattr $C$DW$224, DW_AT_location[DW_OP_breg20 -2]

        MOVL      *-SP[2],XAR4          ; [CPU_ALU] |390| 
	.dwpsn	file "..\Application\..\..\BHAxes\BhAxes.h",line 391,column 5,is_stmt,isa 0
        MOVB      ACC,#142              ; [CPU_ALU] |391| 
        ADDL      ACC,*-SP[2]           ; [CPU_ALU] |391| 
        MOVL      XAR4,ACC              ; [CPU_ALU] |391| 
        MOV       AL,*+XAR4[0]          ; [CPU_ALU] |391| 
        MOVL      XAR4,*-SP[2]          ; [CPU_ALU] |391| 
        ANDB      AL,#0x01              ; [CPU_ALU] |391| 
        MOV       T,AL                  ; [CPU_ALU] |391| 
        MPY       ACC,T,*+XAR4[4]       ; [CPU_ALU] |391| 
	.dwpsn	file "..\Application\..\..\BHAxes\BhAxes.h",line 392,column 1,is_stmt,isa 0
        SUBB      SP,#2                 ; [CPU_ARAU] 
	.dwcfi	cfa_offset, -2
$C$DW$225	.dwtag  DW_TAG_TI_branch
	.dwattr $C$DW$225, DW_AT_low_pc(0x00)
	.dwattr $C$DW$225, DW_AT_TI_return

        LRETR     ; [CPU_ALU] 
        ; return occurs ; [] 
	.dwattr $C$DW$222, DW_AT_TI_end_file("..\Application\..\..\BHAxes\BhAxes.h")
	.dwattr $C$DW$222, DW_AT_TI_end_line(0x188)
	.dwattr $C$DW$222, DW_AT_TI_end_column(0x01)
	.dwendentry
	.dwendtag $C$DW$222

	.sect	".text:SetCanAxisPosTarget"
	.clink
	.global	||SetCanAxisPosTarget||

$C$DW$226	.dwtag  DW_TAG_subprogram
	.dwattr $C$DW$226, DW_AT_name("SetCanAxisPosTarget")
	.dwattr $C$DW$226, DW_AT_low_pc(||SetCanAxisPosTarget||)
	.dwattr $C$DW$226, DW_AT_high_pc(0x00)
	.dwattr $C$DW$226, DW_AT_linkage_name("SetCanAxisPosTarget")
	.dwattr $C$DW$226, DW_AT_external
	.dwattr $C$DW$226, DW_AT_decl_file("..\Application\..\..\BHAxes\BhAxes.h")
	.dwattr $C$DW$226, DW_AT_decl_line(0x18b)
	.dwattr $C$DW$226, DW_AT_decl_column(0x06)
	.dwattr $C$DW$226, DW_AT_TI_max_frame_size(-6)
	.dwpsn	file "..\Application\..\..\BHAxes\BhAxes.h",line 396,column 1,is_stmt,address ||SetCanAxisPosTarget||,isa 0

	.dwfde $C$DW$CIE, ||SetCanAxisPosTarget||
$C$DW$227	.dwtag  DW_TAG_formal_parameter
	.dwattr $C$DW$227, DW_AT_name("pAxis")
	.dwattr $C$DW$227, DW_AT_type(*$C$DW$T$237)
	.dwattr $C$DW$227, DW_AT_location[DW_OP_reg12]

$C$DW$228	.dwtag  DW_TAG_formal_parameter
	.dwattr $C$DW$228, DW_AT_name("value")
	.dwattr $C$DW$228, DW_AT_type(*$C$DW$T$16)
	.dwattr $C$DW$228, DW_AT_location[DW_OP_regx 0x2b]


;***************************************************************
;* FNAME: SetCanAxisPosTarget           FR SIZE:   4           *
;*                                                             *
;* FUNCTION ENVIRONMENT                                        *
;*                                                             *
;* FUNCTION PROPERTIES                                         *
;*                            0 Parameter,  4 Auto,  0 SOE     *
;***************************************************************

||SetCanAxisPosTarget||:
	.dwcfi	cfa_offset, -2
	.dwcfi	save_reg_to_mem, 26, 0
        ADDB      SP,#4                 ; [CPU_ARAU] 
	.dwcfi	cfa_offset, -6
$C$DW$229	.dwtag  DW_TAG_variable
	.dwattr $C$DW$229, DW_AT_name("pAxis")
	.dwattr $C$DW$229, DW_AT_type(*$C$DW$T$237)
	.dwattr $C$DW$229, DW_AT_location[DW_OP_breg20 -2]

$C$DW$230	.dwtag  DW_TAG_variable
	.dwattr $C$DW$230, DW_AT_name("value")
	.dwattr $C$DW$230, DW_AT_type(*$C$DW$T$16)
	.dwattr $C$DW$230, DW_AT_location[DW_OP_breg20 -4]

        MOV32     *-SP[4],R0H           ; [CPU_FPU] |396| 
        MOVL      *-SP[2],XAR4          ; [CPU_ALU] |396| 
	.dwpsn	file "..\Application\..\..\BHAxes\BhAxes.h",line 397,column 5,is_stmt,isa 0
        MOVL      XAR6,*-SP[4]          ; [CPU_ALU] |397| 
        MOVB      ACC,#92               ; [CPU_ALU] |397| 
        ADDL      ACC,*-SP[2]           ; [CPU_ALU] |397| 
        MOVL      XAR4,ACC              ; [CPU_ALU] |397| 
        MOVL      *+XAR4[0],XAR6        ; [CPU_ALU] |397| 
	.dwpsn	file "..\Application\..\..\BHAxes\BhAxes.h",line 398,column 1,is_stmt,isa 0
        SUBB      SP,#4                 ; [CPU_ARAU] 
	.dwcfi	cfa_offset, -2
$C$DW$231	.dwtag  DW_TAG_TI_branch
	.dwattr $C$DW$231, DW_AT_low_pc(0x00)
	.dwattr $C$DW$231, DW_AT_TI_return

        LRETR     ; [CPU_ALU] 
        ; return occurs ; [] 
	.dwattr $C$DW$226, DW_AT_TI_end_file("..\Application\..\..\BHAxes\BhAxes.h")
	.dwattr $C$DW$226, DW_AT_TI_end_line(0x18e)
	.dwattr $C$DW$226, DW_AT_TI_end_column(0x01)
	.dwendentry
	.dwendtag $C$DW$226

	.sect	".text:GetCanAxisPosTarget"
	.clink
	.global	||GetCanAxisPosTarget||

$C$DW$232	.dwtag  DW_TAG_subprogram
	.dwattr $C$DW$232, DW_AT_name("GetCanAxisPosTarget")
	.dwattr $C$DW$232, DW_AT_low_pc(||GetCanAxisPosTarget||)
	.dwattr $C$DW$232, DW_AT_high_pc(0x00)
	.dwattr $C$DW$232, DW_AT_linkage_name("GetCanAxisPosTarget")
	.dwattr $C$DW$232, DW_AT_external
	.dwattr $C$DW$232, DW_AT_type(*$C$DW$T$16)
	.dwattr $C$DW$232, DW_AT_decl_file("..\Application\..\..\BHAxes\BhAxes.h")
	.dwattr $C$DW$232, DW_AT_decl_line(0x191)
	.dwattr $C$DW$232, DW_AT_decl_column(0x07)
	.dwattr $C$DW$232, DW_AT_TI_max_frame_size(-4)
	.dwpsn	file "..\Application\..\..\BHAxes\BhAxes.h",line 402,column 1,is_stmt,address ||GetCanAxisPosTarget||,isa 0

	.dwfde $C$DW$CIE, ||GetCanAxisPosTarget||
$C$DW$233	.dwtag  DW_TAG_formal_parameter
	.dwattr $C$DW$233, DW_AT_name("pAxis")
	.dwattr $C$DW$233, DW_AT_type(*$C$DW$T$237)
	.dwattr $C$DW$233, DW_AT_location[DW_OP_reg12]


;***************************************************************
;* FNAME: GetCanAxisPosTarget           FR SIZE:   2           *
;*                                                             *
;* FUNCTION ENVIRONMENT                                        *
;*                                                             *
;* FUNCTION PROPERTIES                                         *
;*                            0 Parameter,  2 Auto,  0 SOE     *
;***************************************************************

||GetCanAxisPosTarget||:
	.dwcfi	cfa_offset, -2
	.dwcfi	save_reg_to_mem, 26, 0
        ADDB      SP,#2                 ; [CPU_ARAU] 
	.dwcfi	cfa_offset, -4
$C$DW$234	.dwtag  DW_TAG_variable
	.dwattr $C$DW$234, DW_AT_name("pAxis")
	.dwattr $C$DW$234, DW_AT_type(*$C$DW$T$237)
	.dwattr $C$DW$234, DW_AT_location[DW_OP_breg20 -2]

        MOVL      *-SP[2],XAR4          ; [CPU_ALU] |402| 
	.dwpsn	file "..\Application\..\..\BHAxes\BhAxes.h",line 403,column 5,is_stmt,isa 0
        MOVB      ACC,#92               ; [CPU_ALU] |403| 
        ADDL      ACC,*-SP[2]           ; [CPU_ALU] |403| 
        MOVL      XAR4,ACC              ; [CPU_ALU] |403| 
        MOV32     R0H,*+XAR4[0]         ; [CPU_FPU] |403| 
	.dwpsn	file "..\Application\..\..\BHAxes\BhAxes.h",line 404,column 1,is_stmt,isa 0
        SUBB      SP,#2                 ; [CPU_ARAU] 
	.dwcfi	cfa_offset, -2
$C$DW$235	.dwtag  DW_TAG_TI_branch
	.dwattr $C$DW$235, DW_AT_low_pc(0x00)
	.dwattr $C$DW$235, DW_AT_TI_return

        LRETR     ; [CPU_ALU] 
        ; return occurs ; [] 
	.dwattr $C$DW$232, DW_AT_TI_end_file("..\Application\..\..\BHAxes\BhAxes.h")
	.dwattr $C$DW$232, DW_AT_TI_end_line(0x194)
	.dwattr $C$DW$232, DW_AT_TI_end_column(0x01)
	.dwendentry
	.dwendtag $C$DW$232

	.sect	".text:IsAtFault"
	.clink
	.global	||IsAtFault||

$C$DW$236	.dwtag  DW_TAG_subprogram
	.dwattr $C$DW$236, DW_AT_name("IsAtFault")
	.dwattr $C$DW$236, DW_AT_low_pc(||IsAtFault||)
	.dwattr $C$DW$236, DW_AT_high_pc(0x00)
	.dwattr $C$DW$236, DW_AT_linkage_name("IsAtFault")
	.dwattr $C$DW$236, DW_AT_external
	.dwattr $C$DW$236, DW_AT_type(*$C$DW$T$9)
	.dwattr $C$DW$236, DW_AT_decl_file("..\Application\..\..\BHAxes\BhAxes.h")
	.dwattr $C$DW$236, DW_AT_decl_line(0x197)
	.dwattr $C$DW$236, DW_AT_decl_column(0x10)
	.dwattr $C$DW$236, DW_AT_TI_max_frame_size(-4)
	.dwpsn	file "..\Application\..\..\BHAxes\BhAxes.h",line 408,column 1,is_stmt,address ||IsAtFault||,isa 0

	.dwfde $C$DW$CIE, ||IsAtFault||
$C$DW$237	.dwtag  DW_TAG_formal_parameter
	.dwattr $C$DW$237, DW_AT_name("pAxis")
	.dwattr $C$DW$237, DW_AT_type(*$C$DW$T$237)
	.dwattr $C$DW$237, DW_AT_location[DW_OP_reg12]


;***************************************************************
;* FNAME: IsAtFault                     FR SIZE:   2           *
;*                                                             *
;* FUNCTION ENVIRONMENT                                        *
;*                                                             *
;* FUNCTION PROPERTIES                                         *
;*                            0 Parameter,  2 Auto,  0 SOE     *
;***************************************************************

||IsAtFault||:
	.dwcfi	cfa_offset, -2
	.dwcfi	save_reg_to_mem, 26, 0
        ADDB      SP,#2                 ; [CPU_ARAU] 
	.dwcfi	cfa_offset, -4
$C$DW$238	.dwtag  DW_TAG_variable
	.dwattr $C$DW$238, DW_AT_name("pAxis")
	.dwattr $C$DW$238, DW_AT_type(*$C$DW$T$237)
	.dwattr $C$DW$238, DW_AT_location[DW_OP_breg20 -2]

        MOVL      *-SP[2],XAR4          ; [CPU_ALU] |408| 
	.dwpsn	file "..\Application\..\..\BHAxes\BhAxes.h",line 409,column 5,is_stmt,isa 0
        MOVB      ACC,#142              ; [CPU_ALU] |409| 
        ADDL      ACC,*-SP[2]           ; [CPU_ALU] |409| 
        MOVL      XAR4,ACC              ; [CPU_ALU] |409| 
        TBIT      *+XAR4[0],#5          ; [CPU_ALU] |409| 
        B         ||$C$L4||,NTC         ; [CPU_ALU] |409| 
        ; branchcc occurs ; [] |409| 
        MOVB      AL,#1                 ; [CPU_ALU] |409| 
        B         ||$C$L5||,UNC         ; [CPU_ALU] |409| 
        ; branch occurs ; [] |409| 
||$C$L4||:    
        MOVB      AL,#0                 ; [CPU_ALU] |409| 
||$C$L5||:    
	.dwpsn	file "..\Application\..\..\BHAxes\BhAxes.h",line 410,column 1,is_stmt,isa 0
        SUBB      SP,#2                 ; [CPU_ARAU] 
	.dwcfi	cfa_offset, -2
$C$DW$239	.dwtag  DW_TAG_TI_branch
	.dwattr $C$DW$239, DW_AT_low_pc(0x00)
	.dwattr $C$DW$239, DW_AT_TI_return

        LRETR     ; [CPU_ALU] 
        ; return occurs ; [] 
	.dwattr $C$DW$236, DW_AT_TI_end_file("..\Application\..\..\BHAxes\BhAxes.h")
	.dwattr $C$DW$236, DW_AT_TI_end_line(0x19a)
	.dwattr $C$DW$236, DW_AT_TI_end_column(0x01)
	.dwendentry
	.dwendtag $C$DW$236

	.sect	".text:IsFaultFree"
	.clink
	.global	||IsFaultFree||

$C$DW$240	.dwtag  DW_TAG_subprogram
	.dwattr $C$DW$240, DW_AT_name("IsFaultFree")
	.dwattr $C$DW$240, DW_AT_low_pc(||IsFaultFree||)
	.dwattr $C$DW$240, DW_AT_high_pc(0x00)
	.dwattr $C$DW$240, DW_AT_linkage_name("IsFaultFree")
	.dwattr $C$DW$240, DW_AT_external
	.dwattr $C$DW$240, DW_AT_type(*$C$DW$T$9)
	.dwattr $C$DW$240, DW_AT_decl_file("..\Application\..\..\BHAxes\BhAxes.h")
	.dwattr $C$DW$240, DW_AT_decl_line(0x19d)
	.dwattr $C$DW$240, DW_AT_decl_column(0x10)
	.dwattr $C$DW$240, DW_AT_TI_max_frame_size(-4)
	.dwpsn	file "..\Application\..\..\BHAxes\BhAxes.h",line 414,column 1,is_stmt,address ||IsFaultFree||,isa 0

	.dwfde $C$DW$CIE, ||IsFaultFree||
$C$DW$241	.dwtag  DW_TAG_formal_parameter
	.dwattr $C$DW$241, DW_AT_name("pAxis")
	.dwattr $C$DW$241, DW_AT_type(*$C$DW$T$237)
	.dwattr $C$DW$241, DW_AT_location[DW_OP_reg12]


;***************************************************************
;* FNAME: IsFaultFree                   FR SIZE:   2           *
;*                                                             *
;* FUNCTION ENVIRONMENT                                        *
;*                                                             *
;* FUNCTION PROPERTIES                                         *
;*                            0 Parameter,  2 Auto,  0 SOE     *
;***************************************************************

||IsFaultFree||:
	.dwcfi	cfa_offset, -2
	.dwcfi	save_reg_to_mem, 26, 0
        ADDB      SP,#2                 ; [CPU_ARAU] 
	.dwcfi	cfa_offset, -4
$C$DW$242	.dwtag  DW_TAG_variable
	.dwattr $C$DW$242, DW_AT_name("pAxis")
	.dwattr $C$DW$242, DW_AT_type(*$C$DW$T$237)
	.dwattr $C$DW$242, DW_AT_location[DW_OP_breg20 -2]

        MOVL      *-SP[2],XAR4          ; [CPU_ALU] |414| 
	.dwpsn	file "..\Application\..\..\BHAxes\BhAxes.h",line 415,column 5,is_stmt,isa 0
        MOVB      ACC,#142              ; [CPU_ALU] |415| 
        ADDL      ACC,*-SP[2]           ; [CPU_ALU] |415| 
        MOVL      XAR4,ACC              ; [CPU_ALU] |415| 
        AND       AL,*+XAR4[0],#0x0020  ; [CPU_ALU] |415| 
        MOVL      XAR4,*-SP[2]          ; [CPU_ALU] |415| 
        LSR       AL,5                  ; [CPU_ALU] |415| 
        MOV       T,AL                  ; [CPU_ALU] |415| 
        MPY       ACC,T,*+XAR4[4]       ; [CPU_ALU] |415| 
        CMPB      AL,#0                 ; [CPU_ALU] |415| 
        B         ||$C$L6||,EQ          ; [CPU_ALU] |415| 
        ; branchcc occurs ; [] |415| 
        MOVB      AL,#0                 ; [CPU_ALU] |415| 
        B         ||$C$L7||,UNC         ; [CPU_ALU] |415| 
        ; branch occurs ; [] |415| 
||$C$L6||:    
        MOVB      AL,#1                 ; [CPU_ALU] |415| 
||$C$L7||:    
	.dwpsn	file "..\Application\..\..\BHAxes\BhAxes.h",line 416,column 1,is_stmt,isa 0
        SUBB      SP,#2                 ; [CPU_ARAU] 
	.dwcfi	cfa_offset, -2
$C$DW$243	.dwtag  DW_TAG_TI_branch
	.dwattr $C$DW$243, DW_AT_low_pc(0x00)
	.dwattr $C$DW$243, DW_AT_TI_return

        LRETR     ; [CPU_ALU] 
        ; return occurs ; [] 
	.dwattr $C$DW$240, DW_AT_TI_end_file("..\Application\..\..\BHAxes\BhAxes.h")
	.dwattr $C$DW$240, DW_AT_TI_end_line(0x1a0)
	.dwattr $C$DW$240, DW_AT_TI_end_column(0x01)
	.dwendentry
	.dwendtag $C$DW$240

	.sect	".text:__isfinite"
	.clink
	.global	||__isfinite||

$C$DW$244	.dwtag  DW_TAG_subprogram
	.dwattr $C$DW$244, DW_AT_name("__isfinite")
	.dwattr $C$DW$244, DW_AT_low_pc(||__isfinite||)
	.dwattr $C$DW$244, DW_AT_high_pc(0x00)
	.dwattr $C$DW$244, DW_AT_linkage_name("__isfinite")
	.dwattr $C$DW$244, DW_AT_external
	.dwattr $C$DW$244, DW_AT_type(*$C$DW$T$10)
	.dwattr $C$DW$244, DW_AT_decl_file("C:/ti/ccs1260/ccs/tools/compiler/ti-cgt-c2000_22.6.1.LTS/include/_defs.h")
	.dwattr $C$DW$244, DW_AT_decl_line(0x14e)
	.dwattr $C$DW$244, DW_AT_decl_column(0x18)
	.dwattr $C$DW$244, DW_AT_TI_max_frame_size(-6)
	.dwpsn	file "C:/ti/ccs1260/ccs/tools/compiler/ti-cgt-c2000_22.6.1.LTS/include/_defs.h",line 335,column 1,is_stmt,address ||__isfinite||,isa 0

	.dwfde $C$DW$CIE, ||__isfinite||
$C$DW$245	.dwtag  DW_TAG_formal_parameter
	.dwattr $C$DW$245, DW_AT_name("d")
	.dwattr $C$DW$245, DW_AT_type(*$C$DW$T$17)
	.dwattr $C$DW$245, DW_AT_location[DW_OP_regx 0x29]


;***************************************************************
;* FNAME: __isfinite                    FR SIZE:   4           *
;*                                                             *
;* FUNCTION ENVIRONMENT                                        *
;*                                                             *
;* FUNCTION PROPERTIES                                         *
;*                            0 Parameter,  4 Auto,  0 SOE     *
;***************************************************************

||__isfinite||:
	.dwcfi	cfa_offset, -2
	.dwcfi	save_reg_to_mem, 26, 0
        ADDB      SP,#4                 ; [CPU_ARAU] 
	.dwcfi	cfa_offset, -6
$C$DW$246	.dwtag  DW_TAG_variable
	.dwattr $C$DW$246, DW_AT_name("d")
	.dwattr $C$DW$246, DW_AT_type(*$C$DW$T$17)
	.dwattr $C$DW$246, DW_AT_location[DW_OP_breg20 -4]

        MOV32     *-SP[4],R0L           ; [CPU_FPU] |335| 
        MOV32     *-SP[2],R0H           ; [CPU_FPU] |335| 
	.dwpsn	file "C:/ti/ccs1260/ccs/tools/compiler/ti-cgt-c2000_22.6.1.LTS/include/_defs.h",line 335,column 3,is_stmt,isa 0
        MOV       T,#48                 ; [CPU_ALU] |335| 
        MOV32     P,R0L                 ; [CPU_FPU] |335| 
        MOVB      XAR6,#0               ; [CPU_ALU] |335| 
        MOVB      XAR7,#0               ; [CPU_ALU] |335| 
        MOV32     ACC,R0H               ; [CPU_FPU] |335| 
        LSR64     ACC:P,T               ; [CPU_ALU] |335| 
        MOV       PH,#0                 ; [CPU_ALU] |335| 
        AND       PL,#0x7ff0            ; [CPU_ALU] |335| 
        MOV       ACC,#32752            ; [CPU_ALU] |335| 
        CMPL      ACC,P                 ; [CPU_ALU] |335| 
        B         ||$C$L8||,NEQ         ; [CPU_ALU] |335| 
        ; branchcc occurs ; [] |335| 
        MOVB      XAR7,#1               ; [CPU_ALU] |335| 
||$C$L8||:    
        MOV       AH,AR7                ; [CPU_ALU] 
        B         ||$C$L9||,NEQ         ; [CPU_ALU] |335| 
        ; branchcc occurs ; [] |335| 
        MOVB      XAR6,#1               ; [CPU_ALU] |335| 
||$C$L9||:    
        MOV       AL,AR6                ; [CPU_ALU] |335| 
	.dwpsn	file "C:/ti/ccs1260/ccs/tools/compiler/ti-cgt-c2000_22.6.1.LTS/include/_defs.h",line 335,column 46,is_stmt,isa 0
        SUBB      SP,#4                 ; [CPU_ARAU] 
	.dwcfi	cfa_offset, -2
$C$DW$247	.dwtag  DW_TAG_TI_branch
	.dwattr $C$DW$247, DW_AT_low_pc(0x00)
	.dwattr $C$DW$247, DW_AT_TI_return

        LRETR     ; [CPU_ALU] 
        ; return occurs ; [] 
	.dwattr $C$DW$244, DW_AT_TI_end_file("C:/ti/ccs1260/ccs/tools/compiler/ti-cgt-c2000_22.6.1.LTS/include/_defs.h")
	.dwattr $C$DW$244, DW_AT_TI_end_line(0x14f)
	.dwattr $C$DW$244, DW_AT_TI_end_column(0x2e)
	.dwendentry
	.dwendtag $C$DW$244

	.sect	".text:__isfinitef"
	.clink
	.global	||__isfinitef||

$C$DW$248	.dwtag  DW_TAG_subprogram
	.dwattr $C$DW$248, DW_AT_name("__isfinitef")
	.dwattr $C$DW$248, DW_AT_low_pc(||__isfinitef||)
	.dwattr $C$DW$248, DW_AT_high_pc(0x00)
	.dwattr $C$DW$248, DW_AT_linkage_name("__isfinitef")
	.dwattr $C$DW$248, DW_AT_external
	.dwattr $C$DW$248, DW_AT_type(*$C$DW$T$10)
	.dwattr $C$DW$248, DW_AT_decl_file("C:/ti/ccs1260/ccs/tools/compiler/ti-cgt-c2000_22.6.1.LTS/include/_defs.h")
	.dwattr $C$DW$248, DW_AT_decl_line(0x150)
	.dwattr $C$DW$248, DW_AT_decl_column(0x18)
	.dwattr $C$DW$248, DW_AT_TI_max_frame_size(-4)
	.dwpsn	file "C:/ti/ccs1260/ccs/tools/compiler/ti-cgt-c2000_22.6.1.LTS/include/_defs.h",line 337,column 1,is_stmt,address ||__isfinitef||,isa 0

	.dwfde $C$DW$CIE, ||__isfinitef||
$C$DW$249	.dwtag  DW_TAG_formal_parameter
	.dwattr $C$DW$249, DW_AT_name("f")
	.dwattr $C$DW$249, DW_AT_type(*$C$DW$T$16)
	.dwattr $C$DW$249, DW_AT_location[DW_OP_regx 0x2b]


;***************************************************************
;* FNAME: __isfinitef                   FR SIZE:   2           *
;*                                                             *
;* FUNCTION ENVIRONMENT                                        *
;*                                                             *
;* FUNCTION PROPERTIES                                         *
;*                            0 Parameter,  2 Auto,  0 SOE     *
;***************************************************************

||__isfinitef||:
	.dwcfi	cfa_offset, -2
	.dwcfi	save_reg_to_mem, 26, 0
        ADDB      SP,#2                 ; [CPU_ARAU] 
	.dwcfi	cfa_offset, -4
$C$DW$250	.dwtag  DW_TAG_variable
	.dwattr $C$DW$250, DW_AT_name("f")
	.dwattr $C$DW$250, DW_AT_type(*$C$DW$T$16)
	.dwattr $C$DW$250, DW_AT_location[DW_OP_breg20 -2]

        MOV32     *-SP[2],R0H           ; [CPU_FPU] |337| 
	.dwpsn	file "C:/ti/ccs1260/ccs/tools/compiler/ti-cgt-c2000_22.6.1.LTS/include/_defs.h",line 337,column 3,is_stmt,isa 0
        MOVL      ACC,*-SP[2]           ; [CPU_ALU] |337| 
        MOV       PH,#0                 ; [CPU_ALU] |337| 
        AND       AH,#0x7f80            ; [CPU_ALU] |337| 
        MOVB      XAR6,#0               ; [CPU_ALU] |337| 
        MOVB      XAR7,#0               ; [CPU_ALU] |337| 
        MOV       PL,AH                 ; [CPU_ALU] |337| 
        MOV       ACC,#32640            ; [CPU_ALU] |337| 
        CMPL      ACC,P                 ; [CPU_ALU] |337| 
        B         ||$C$L10||,NEQ        ; [CPU_ALU] |337| 
        ; branchcc occurs ; [] |337| 
        MOVB      XAR7,#1               ; [CPU_ALU] |337| 
||$C$L10||:    
        MOV       AH,AR7                ; [CPU_ALU] 
        B         ||$C$L11||,NEQ        ; [CPU_ALU] |337| 
        ; branchcc occurs ; [] |337| 
        MOVB      XAR6,#1               ; [CPU_ALU] |337| 
||$C$L11||:    
        MOV       AL,AR6                ; [CPU_ALU] |337| 
	.dwpsn	file "C:/ti/ccs1260/ccs/tools/compiler/ti-cgt-c2000_22.6.1.LTS/include/_defs.h",line 337,column 45,is_stmt,isa 0
        SUBB      SP,#2                 ; [CPU_ARAU] 
	.dwcfi	cfa_offset, -2
$C$DW$251	.dwtag  DW_TAG_TI_branch
	.dwattr $C$DW$251, DW_AT_low_pc(0x00)
	.dwattr $C$DW$251, DW_AT_TI_return

        LRETR     ; [CPU_ALU] 
        ; return occurs ; [] 
	.dwattr $C$DW$248, DW_AT_TI_end_file("C:/ti/ccs1260/ccs/tools/compiler/ti-cgt-c2000_22.6.1.LTS/include/_defs.h")
	.dwattr $C$DW$248, DW_AT_TI_end_line(0x151)
	.dwattr $C$DW$248, DW_AT_TI_end_column(0x2d)
	.dwendentry
	.dwendtag $C$DW$248

	.sect	".text:__isfinitel"
	.clink
	.global	||__isfinitel||

$C$DW$252	.dwtag  DW_TAG_subprogram
	.dwattr $C$DW$252, DW_AT_name("__isfinitel")
	.dwattr $C$DW$252, DW_AT_low_pc(||__isfinitel||)
	.dwattr $C$DW$252, DW_AT_high_pc(0x00)
	.dwattr $C$DW$252, DW_AT_linkage_name("__isfinitel")
	.dwattr $C$DW$252, DW_AT_external
	.dwattr $C$DW$252, DW_AT_type(*$C$DW$T$10)
	.dwattr $C$DW$252, DW_AT_decl_file("C:/ti/ccs1260/ccs/tools/compiler/ti-cgt-c2000_22.6.1.LTS/include/_defs.h")
	.dwattr $C$DW$252, DW_AT_decl_line(0x152)
	.dwattr $C$DW$252, DW_AT_decl_column(0x18)
	.dwattr $C$DW$252, DW_AT_TI_max_frame_size(-6)
	.dwpsn	file "C:/ti/ccs1260/ccs/tools/compiler/ti-cgt-c2000_22.6.1.LTS/include/_defs.h",line 339,column 1,is_stmt,address ||__isfinitel||,isa 0

	.dwfde $C$DW$CIE, ||__isfinitel||
$C$DW$253	.dwtag  DW_TAG_formal_parameter
	.dwattr $C$DW$253, DW_AT_name("e")
	.dwattr $C$DW$253, DW_AT_type(*$C$DW$T$18)
	.dwattr $C$DW$253, DW_AT_location[DW_OP_regx 0x29]


;***************************************************************
;* FNAME: __isfinitel                   FR SIZE:   4           *
;*                                                             *
;* FUNCTION ENVIRONMENT                                        *
;*                                                             *
;* FUNCTION PROPERTIES                                         *
;*                            0 Parameter,  4 Auto,  0 SOE     *
;***************************************************************

||__isfinitel||:
	.dwcfi	cfa_offset, -2
	.dwcfi	save_reg_to_mem, 26, 0
        ADDB      SP,#4                 ; [CPU_ARAU] 
	.dwcfi	cfa_offset, -6
$C$DW$254	.dwtag  DW_TAG_variable
	.dwattr $C$DW$254, DW_AT_name("e")
	.dwattr $C$DW$254, DW_AT_type(*$C$DW$T$18)
	.dwattr $C$DW$254, DW_AT_location[DW_OP_breg20 -4]

        MOV32     *-SP[4],R0L           ; [CPU_FPU] |339| 
        MOV32     *-SP[2],R0H           ; [CPU_FPU] |339| 
	.dwpsn	file "C:/ti/ccs1260/ccs/tools/compiler/ti-cgt-c2000_22.6.1.LTS/include/_defs.h",line 339,column 3,is_stmt,isa 0
        MOV       T,#48                 ; [CPU_ALU] |339| 
        MOV32     P,R0L                 ; [CPU_FPU] |339| 
        MOVB      XAR6,#0               ; [CPU_ALU] |339| 
        MOVB      XAR7,#0               ; [CPU_ALU] |339| 
        MOV32     ACC,R0H               ; [CPU_FPU] |339| 
        LSR64     ACC:P,T               ; [CPU_ALU] |339| 
        MOV       PH,#0                 ; [CPU_ALU] |339| 
        AND       PL,#0x7ff0            ; [CPU_ALU] |339| 
        MOV       ACC,#32752            ; [CPU_ALU] |339| 
        CMPL      ACC,P                 ; [CPU_ALU] |339| 
        B         ||$C$L12||,NEQ        ; [CPU_ALU] |339| 
        ; branchcc occurs ; [] |339| 
        MOVB      XAR7,#1               ; [CPU_ALU] |339| 
||$C$L12||:    
        MOV       AH,AR7                ; [CPU_ALU] 
        B         ||$C$L13||,NEQ        ; [CPU_ALU] |339| 
        ; branchcc occurs ; [] |339| 
        MOVB      XAR6,#1               ; [CPU_ALU] |339| 
||$C$L13||:    
        MOV       AL,AR6                ; [CPU_ALU] |339| 
	.dwpsn	file "C:/ti/ccs1260/ccs/tools/compiler/ti-cgt-c2000_22.6.1.LTS/include/_defs.h",line 339,column 47,is_stmt,isa 0
        SUBB      SP,#4                 ; [CPU_ARAU] 
	.dwcfi	cfa_offset, -2
$C$DW$255	.dwtag  DW_TAG_TI_branch
	.dwattr $C$DW$255, DW_AT_low_pc(0x00)
	.dwattr $C$DW$255, DW_AT_TI_return

        LRETR     ; [CPU_ALU] 
        ; return occurs ; [] 
	.dwattr $C$DW$252, DW_AT_TI_end_file("C:/ti/ccs1260/ccs/tools/compiler/ti-cgt-c2000_22.6.1.LTS/include/_defs.h")
	.dwattr $C$DW$252, DW_AT_TI_end_line(0x153)
	.dwattr $C$DW$252, DW_AT_TI_end_column(0x2f)
	.dwendentry
	.dwendtag $C$DW$252

	.sect	".text:__isnan"
	.clink
	.global	||__isnan||

$C$DW$256	.dwtag  DW_TAG_subprogram
	.dwattr $C$DW$256, DW_AT_name("__isnan")
	.dwattr $C$DW$256, DW_AT_low_pc(||__isnan||)
	.dwattr $C$DW$256, DW_AT_high_pc(0x00)
	.dwattr $C$DW$256, DW_AT_linkage_name("__isnan")
	.dwattr $C$DW$256, DW_AT_external
	.dwattr $C$DW$256, DW_AT_type(*$C$DW$T$10)
	.dwattr $C$DW$256, DW_AT_decl_file("C:/ti/ccs1260/ccs/tools/compiler/ti-cgt-c2000_22.6.1.LTS/include/_defs.h")
	.dwattr $C$DW$256, DW_AT_decl_line(0x155)
	.dwattr $C$DW$256, DW_AT_decl_column(0x18)
	.dwattr $C$DW$256, DW_AT_TI_max_frame_size(-10)
	.dwpsn	file "C:/ti/ccs1260/ccs/tools/compiler/ti-cgt-c2000_22.6.1.LTS/include/_defs.h",line 342,column 1,is_stmt,address ||__isnan||,isa 0

	.dwfde $C$DW$CIE, ||__isnan||
$C$DW$257	.dwtag  DW_TAG_formal_parameter
	.dwattr $C$DW$257, DW_AT_name("d")
	.dwattr $C$DW$257, DW_AT_type(*$C$DW$T$17)
	.dwattr $C$DW$257, DW_AT_location[DW_OP_regx 0x29]


;***************************************************************
;* FNAME: __isnan                       FR SIZE:   8           *
;*                                                             *
;* FUNCTION ENVIRONMENT                                        *
;*                                                             *
;* FUNCTION PROPERTIES                                         *
;*                            4 Parameter,  4 Auto,  0 SOE     *
;***************************************************************

||__isnan||:
	.dwcfi	cfa_offset, -2
	.dwcfi	save_reg_to_mem, 26, 0
        ADDB      SP,#8                 ; [CPU_ARAU] 
	.dwcfi	cfa_offset, -10
$C$DW$258	.dwtag  DW_TAG_variable
	.dwattr $C$DW$258, DW_AT_name("d")
	.dwattr $C$DW$258, DW_AT_type(*$C$DW$T$17)
	.dwattr $C$DW$258, DW_AT_location[DW_OP_breg20 -8]

        MOV32     *-SP[8],R0L           ; [CPU_FPU] |342| 
        MOV32     *-SP[6],R0H           ; [CPU_FPU] |342| 
	.dwpsn	file "C:/ti/ccs1260/ccs/tools/compiler/ti-cgt-c2000_22.6.1.LTS/include/_defs.h",line 342,column 3,is_stmt,isa 0
        MOV       T,#48                 ; [CPU_ALU] |342| 
        MOV32     P,R0L                 ; [CPU_FPU] |342| 
        MOV32     ACC,R0H               ; [CPU_FPU] |342| 
        LSR64     ACC:P,T               ; [CPU_ALU] |342| 
        AND       PL,#0x7ff0            ; [CPU_ALU] |342| 
        MOVZ      AR6,PL                ; [CPU_ALU] |342| 
        MOV       ACC,#32752            ; [CPU_ALU] |342| 
        MOVB      XAR4,#0               ; [CPU_ALU] |342| 
        CMPL      ACC,XAR6              ; [CPU_ALU] |342| 
        B         ||$C$L15||,NEQ        ; [CPU_ALU] |342| 
        ; branchcc occurs ; [] |342| 
        MOVB      ACC,#0                ; [CPU_ALU] |342| 
        MOVL      *-SP[4],ACC           ; [CPU_ALU] |342| 
        MOV       *-SP[2],#0            ; [CPU_ALU] |342| 
        MOV       *-SP[1],#0            ; [CPU_ALU] |342| 
        MOV32     R0H,*-SP[6]           ; [CPU_FPU] |342| 
        MOV32     R0L,*-SP[8]           ; [CPU_FPU] |342| 
        NOP       ; [CPU_ALU] 
        MOV32     P,R0L                 ; [CPU_FPU] |342| 
        AND       PL,#65535             ; [CPU_ALU] |342| 
        AND       PH,#65535             ; [CPU_ALU] |342| 
        MOV32     ACC,R0H               ; [CPU_FPU] |342| 
        AND       AL,#65535             ; [CPU_ALU] |342| 
        ANDB      AH,#15                ; [CPU_ALU] |342| 
$C$DW$259	.dwtag  DW_TAG_TI_branch
	.dwattr $C$DW$259, DW_AT_low_pc(0x00)
	.dwattr $C$DW$259, DW_AT_name("__c28xabi_cmpull")
	.dwattr $C$DW$259, DW_AT_TI_call

        LCR       #||__c28xabi_cmpull|| ; [CPU_ALU] |342| 
        ; call occurs [#||__c28xabi_cmpull||] ; [] |342| 
        MOVB      AH,#0                 ; [CPU_ALU] |342| 
        CMPB      AL,#0                 ; [CPU_ALU] |342| 
        B         ||$C$L14||,NEQ        ; [CPU_ALU] |342| 
        ; branchcc occurs ; [] |342| 
        MOVB      AH,#1                 ; [CPU_ALU] |342| 
||$C$L14||:    
        CMPB      AH,#0                 ; [CPU_ALU] |342| 
        B         ||$C$L15||,NEQ        ; [CPU_ALU] |342| 
        ; branchcc occurs ; [] |342| 
        MOVB      XAR4,#1               ; [CPU_ALU] |342| 
||$C$L15||:    
        MOV       AL,AR4                ; [CPU_ALU] |342| 
	.dwpsn	file "C:/ti/ccs1260/ccs/tools/compiler/ti-cgt-c2000_22.6.1.LTS/include/_defs.h",line 343,column 47,is_stmt,isa 0
        SUBB      SP,#8                 ; [CPU_ARAU] 
	.dwcfi	cfa_offset, -2
$C$DW$260	.dwtag  DW_TAG_TI_branch
	.dwattr $C$DW$260, DW_AT_low_pc(0x00)
	.dwattr $C$DW$260, DW_AT_TI_return

        LRETR     ; [CPU_ALU] 
        ; return occurs ; [] 
	.dwattr $C$DW$256, DW_AT_TI_end_file("C:/ti/ccs1260/ccs/tools/compiler/ti-cgt-c2000_22.6.1.LTS/include/_defs.h")
	.dwattr $C$DW$256, DW_AT_TI_end_line(0x157)
	.dwattr $C$DW$256, DW_AT_TI_end_column(0x2f)
	.dwendentry
	.dwendtag $C$DW$256

	.sect	".text:__isnanf"
	.clink
	.global	||__isnanf||

$C$DW$261	.dwtag  DW_TAG_subprogram
	.dwattr $C$DW$261, DW_AT_name("__isnanf")
	.dwattr $C$DW$261, DW_AT_low_pc(||__isnanf||)
	.dwattr $C$DW$261, DW_AT_high_pc(0x00)
	.dwattr $C$DW$261, DW_AT_linkage_name("__isnanf")
	.dwattr $C$DW$261, DW_AT_external
	.dwattr $C$DW$261, DW_AT_type(*$C$DW$T$10)
	.dwattr $C$DW$261, DW_AT_decl_file("C:/ti/ccs1260/ccs/tools/compiler/ti-cgt-c2000_22.6.1.LTS/include/_defs.h")
	.dwattr $C$DW$261, DW_AT_decl_line(0x158)
	.dwattr $C$DW$261, DW_AT_decl_column(0x18)
	.dwattr $C$DW$261, DW_AT_TI_max_frame_size(-4)
	.dwpsn	file "C:/ti/ccs1260/ccs/tools/compiler/ti-cgt-c2000_22.6.1.LTS/include/_defs.h",line 345,column 1,is_stmt,address ||__isnanf||,isa 0

	.dwfde $C$DW$CIE, ||__isnanf||
$C$DW$262	.dwtag  DW_TAG_formal_parameter
	.dwattr $C$DW$262, DW_AT_name("f")
	.dwattr $C$DW$262, DW_AT_type(*$C$DW$T$16)
	.dwattr $C$DW$262, DW_AT_location[DW_OP_regx 0x2b]


;***************************************************************
;* FNAME: __isnanf                      FR SIZE:   2           *
;*                                                             *
;* FUNCTION ENVIRONMENT                                        *
;*                                                             *
;* FUNCTION PROPERTIES                                         *
;*                            0 Parameter,  2 Auto,  0 SOE     *
;***************************************************************

||__isnanf||:
	.dwcfi	cfa_offset, -2
	.dwcfi	save_reg_to_mem, 26, 0
        ADDB      SP,#2                 ; [CPU_ARAU] 
	.dwcfi	cfa_offset, -4
$C$DW$263	.dwtag  DW_TAG_variable
	.dwattr $C$DW$263, DW_AT_name("f")
	.dwattr $C$DW$263, DW_AT_type(*$C$DW$T$16)
	.dwattr $C$DW$263, DW_AT_location[DW_OP_breg20 -2]

        MOV32     *-SP[2],R0H           ; [CPU_FPU] |345| 
	.dwpsn	file "C:/ti/ccs1260/ccs/tools/compiler/ti-cgt-c2000_22.6.1.LTS/include/_defs.h",line 345,column 3,is_stmt,isa 0
        MOVL      ACC,*-SP[2]           ; [CPU_ALU] |345| 
        AND       AH,#0x7f80            ; [CPU_ALU] |345| 
        MOVZ      AR7,AH                ; [CPU_ALU] |345| 
        MOVB      XAR6,#0               ; [CPU_ALU] |345| 
        MOV       ACC,#32640            ; [CPU_ALU] |345| 
        CMPL      ACC,XAR7              ; [CPU_ALU] |345| 
        B         ||$C$L17||,NEQ        ; [CPU_ALU] |345| 
        ; branchcc occurs ; [] |345| 
        MOVL      ACC,*-SP[2]           ; [CPU_ALU] |345| 
        ANDB      AH,#127               ; [CPU_ALU] |345| 
        MOVB      XAR7,#0               ; [CPU_FPU] |345| 
        TEST      ACC                   ; [CPU_ALU] |345| 
        B         ||$C$L16||,NEQ        ; [CPU_ALU] |345| 
        ; branchcc occurs ; [] |345| 
        MOVB      XAR7,#1               ; [CPU_ALU] |345| 
||$C$L16||:    
        MOV       AH,AR7                ; [CPU_ALU] 
        B         ||$C$L17||,NEQ        ; [CPU_ALU] |345| 
        ; branchcc occurs ; [] |345| 
        MOVB      XAR6,#1               ; [CPU_ALU] |345| 
||$C$L17||:    
        MOV       AL,AR6                ; [CPU_ALU] |345| 
	.dwpsn	file "C:/ti/ccs1260/ccs/tools/compiler/ti-cgt-c2000_22.6.1.LTS/include/_defs.h",line 346,column 46,is_stmt,isa 0
        SUBB      SP,#2                 ; [CPU_ARAU] 
	.dwcfi	cfa_offset, -2
$C$DW$264	.dwtag  DW_TAG_TI_branch
	.dwattr $C$DW$264, DW_AT_low_pc(0x00)
	.dwattr $C$DW$264, DW_AT_TI_return

        LRETR     ; [CPU_ALU] 
        ; return occurs ; [] 
	.dwattr $C$DW$261, DW_AT_TI_end_file("C:/ti/ccs1260/ccs/tools/compiler/ti-cgt-c2000_22.6.1.LTS/include/_defs.h")
	.dwattr $C$DW$261, DW_AT_TI_end_line(0x15a)
	.dwattr $C$DW$261, DW_AT_TI_end_column(0x2e)
	.dwendentry
	.dwendtag $C$DW$261

	.sect	".text:__isnanl"
	.clink
	.global	||__isnanl||

$C$DW$265	.dwtag  DW_TAG_subprogram
	.dwattr $C$DW$265, DW_AT_name("__isnanl")
	.dwattr $C$DW$265, DW_AT_low_pc(||__isnanl||)
	.dwattr $C$DW$265, DW_AT_high_pc(0x00)
	.dwattr $C$DW$265, DW_AT_linkage_name("__isnanl")
	.dwattr $C$DW$265, DW_AT_external
	.dwattr $C$DW$265, DW_AT_type(*$C$DW$T$10)
	.dwattr $C$DW$265, DW_AT_decl_file("C:/ti/ccs1260/ccs/tools/compiler/ti-cgt-c2000_22.6.1.LTS/include/_defs.h")
	.dwattr $C$DW$265, DW_AT_decl_line(0x15b)
	.dwattr $C$DW$265, DW_AT_decl_column(0x18)
	.dwattr $C$DW$265, DW_AT_TI_max_frame_size(-10)
	.dwpsn	file "C:/ti/ccs1260/ccs/tools/compiler/ti-cgt-c2000_22.6.1.LTS/include/_defs.h",line 348,column 1,is_stmt,address ||__isnanl||,isa 0

	.dwfde $C$DW$CIE, ||__isnanl||
$C$DW$266	.dwtag  DW_TAG_formal_parameter
	.dwattr $C$DW$266, DW_AT_name("e")
	.dwattr $C$DW$266, DW_AT_type(*$C$DW$T$18)
	.dwattr $C$DW$266, DW_AT_location[DW_OP_regx 0x29]


;***************************************************************
;* FNAME: __isnanl                      FR SIZE:   8           *
;*                                                             *
;* FUNCTION ENVIRONMENT                                        *
;*                                                             *
;* FUNCTION PROPERTIES                                         *
;*                            4 Parameter,  4 Auto,  0 SOE     *
;***************************************************************

||__isnanl||:
	.dwcfi	cfa_offset, -2
	.dwcfi	save_reg_to_mem, 26, 0
        ADDB      SP,#8                 ; [CPU_ARAU] 
	.dwcfi	cfa_offset, -10
$C$DW$267	.dwtag  DW_TAG_variable
	.dwattr $C$DW$267, DW_AT_name("e")
	.dwattr $C$DW$267, DW_AT_type(*$C$DW$T$18)
	.dwattr $C$DW$267, DW_AT_location[DW_OP_breg20 -8]

        MOV32     *-SP[8],R0L           ; [CPU_FPU] |348| 
        MOV32     *-SP[6],R0H           ; [CPU_FPU] |348| 
	.dwpsn	file "C:/ti/ccs1260/ccs/tools/compiler/ti-cgt-c2000_22.6.1.LTS/include/_defs.h",line 348,column 3,is_stmt,isa 0
        MOV       T,#48                 ; [CPU_ALU] |348| 
        MOV32     P,R0L                 ; [CPU_FPU] |348| 
        MOV32     ACC,R0H               ; [CPU_FPU] |348| 
        LSR64     ACC:P,T               ; [CPU_ALU] |348| 
        AND       PL,#0x7ff0            ; [CPU_ALU] |348| 
        MOVZ      AR6,PL                ; [CPU_ALU] |348| 
        MOV       ACC,#32752            ; [CPU_ALU] |348| 
        MOVB      XAR4,#0               ; [CPU_ALU] |348| 
        CMPL      ACC,XAR6              ; [CPU_ALU] |348| 
        B         ||$C$L19||,NEQ        ; [CPU_ALU] |348| 
        ; branchcc occurs ; [] |348| 
        MOVB      ACC,#0                ; [CPU_ALU] |348| 
        MOVL      *-SP[4],ACC           ; [CPU_ALU] |348| 
        MOV       *-SP[2],#0            ; [CPU_ALU] |348| 
        MOV       *-SP[1],#0            ; [CPU_ALU] |348| 
        MOV32     R0H,*-SP[6]           ; [CPU_FPU] |348| 
        MOV32     R0L,*-SP[8]           ; [CPU_FPU] |348| 
        NOP       ; [CPU_ALU] 
        MOV32     P,R0L                 ; [CPU_FPU] |348| 
        AND       PL,#65535             ; [CPU_ALU] |348| 
        AND       PH,#65535             ; [CPU_ALU] |348| 
        MOV32     ACC,R0H               ; [CPU_FPU] |348| 
        AND       AL,#65535             ; [CPU_ALU] |348| 
        ANDB      AH,#15                ; [CPU_ALU] |348| 
$C$DW$268	.dwtag  DW_TAG_TI_branch
	.dwattr $C$DW$268, DW_AT_low_pc(0x00)
	.dwattr $C$DW$268, DW_AT_name("__c28xabi_cmpull")
	.dwattr $C$DW$268, DW_AT_TI_call

        LCR       #||__c28xabi_cmpull|| ; [CPU_ALU] |348| 
        ; call occurs [#||__c28xabi_cmpull||] ; [] |348| 
        MOVB      AH,#0                 ; [CPU_ALU] |348| 
        CMPB      AL,#0                 ; [CPU_ALU] |348| 
        B         ||$C$L18||,NEQ        ; [CPU_ALU] |348| 
        ; branchcc occurs ; [] |348| 
        MOVB      AH,#1                 ; [CPU_ALU] |348| 
||$C$L18||:    
        CMPB      AH,#0                 ; [CPU_ALU] |348| 
        B         ||$C$L19||,NEQ        ; [CPU_ALU] |348| 
        ; branchcc occurs ; [] |348| 
        MOVB      XAR4,#1               ; [CPU_ALU] |348| 
||$C$L19||:    
        MOV       AL,AR4                ; [CPU_ALU] |348| 
	.dwpsn	file "C:/ti/ccs1260/ccs/tools/compiler/ti-cgt-c2000_22.6.1.LTS/include/_defs.h",line 349,column 48,is_stmt,isa 0
        SUBB      SP,#8                 ; [CPU_ARAU] 
	.dwcfi	cfa_offset, -2
$C$DW$269	.dwtag  DW_TAG_TI_branch
	.dwattr $C$DW$269, DW_AT_low_pc(0x00)
	.dwattr $C$DW$269, DW_AT_TI_return

        LRETR     ; [CPU_ALU] 
        ; return occurs ; [] 
	.dwattr $C$DW$265, DW_AT_TI_end_file("C:/ti/ccs1260/ccs/tools/compiler/ti-cgt-c2000_22.6.1.LTS/include/_defs.h")
	.dwattr $C$DW$265, DW_AT_TI_end_line(0x15d)
	.dwattr $C$DW$265, DW_AT_TI_end_column(0x30)
	.dwendentry
	.dwendtag $C$DW$265

	.sect	".text:__isnormal"
	.clink
	.global	||__isnormal||

$C$DW$270	.dwtag  DW_TAG_subprogram
	.dwattr $C$DW$270, DW_AT_name("__isnormal")
	.dwattr $C$DW$270, DW_AT_low_pc(||__isnormal||)
	.dwattr $C$DW$270, DW_AT_high_pc(0x00)
	.dwattr $C$DW$270, DW_AT_linkage_name("__isnormal")
	.dwattr $C$DW$270, DW_AT_external
	.dwattr $C$DW$270, DW_AT_type(*$C$DW$T$10)
	.dwattr $C$DW$270, DW_AT_decl_file("C:/ti/ccs1260/ccs/tools/compiler/ti-cgt-c2000_22.6.1.LTS/include/_defs.h")
	.dwattr $C$DW$270, DW_AT_decl_line(0x15f)
	.dwattr $C$DW$270, DW_AT_decl_column(0x18)
	.dwattr $C$DW$270, DW_AT_TI_max_frame_size(-10)
	.dwpsn	file "C:/ti/ccs1260/ccs/tools/compiler/ti-cgt-c2000_22.6.1.LTS/include/_defs.h",line 352,column 1,is_stmt,address ||__isnormal||,isa 0

	.dwfde $C$DW$CIE, ||__isnormal||
$C$DW$271	.dwtag  DW_TAG_formal_parameter
	.dwattr $C$DW$271, DW_AT_name("d")
	.dwattr $C$DW$271, DW_AT_type(*$C$DW$T$17)
	.dwattr $C$DW$271, DW_AT_location[DW_OP_regx 0x29]


;***************************************************************
;* FNAME: __isnormal                    FR SIZE:   8           *
;*                                                             *
;* FUNCTION ENVIRONMENT                                        *
;*                                                             *
;* FUNCTION PROPERTIES                                         *
;*                            4 Parameter,  4 Auto,  0 SOE     *
;***************************************************************

||__isnormal||:
	.dwcfi	cfa_offset, -2
	.dwcfi	save_reg_to_mem, 26, 0
        ADDB      SP,#8                 ; [CPU_ARAU] 
	.dwcfi	cfa_offset, -10
$C$DW$272	.dwtag  DW_TAG_variable
	.dwattr $C$DW$272, DW_AT_name("d")
	.dwattr $C$DW$272, DW_AT_type(*$C$DW$T$17)
	.dwattr $C$DW$272, DW_AT_location[DW_OP_breg20 -8]

        MOV32     *-SP[8],R0L           ; [CPU_FPU] |352| 
        MOV32     *-SP[6],R0H           ; [CPU_FPU] |352| 
	.dwpsn	file "C:/ti/ccs1260/ccs/tools/compiler/ti-cgt-c2000_22.6.1.LTS/include/_defs.h",line 352,column 3,is_stmt,isa 0
        MOVB      ACC,#0                ; [CPU_ALU] |352| 
        MOVL      *-SP[4],ACC           ; [CPU_ALU] |352| 
        MOV       *-SP[2],#0            ; [CPU_ALU] |352| 
        MOV       *-SP[1],#0            ; [CPU_ALU] |352| 
        MOV32     R0H,*-SP[6]           ; [CPU_FPU] |352| 
        MOV32     R0L,*-SP[8]           ; [CPU_FPU] |352| 
        MOV       T,#52                 ; [CPU_ALU] |352| 
        MOV32     P,R0L                 ; [CPU_FPU] |352| 
        MOV32     ACC,R0H               ; [CPU_FPU] |352| 
        LSR64     ACC:P,T               ; [CPU_ALU] |352| 
        ANDB      AL,#0                 ; [CPU_ALU] |352| 
        ANDB      AH,#0                 ; [CPU_ALU] |352| 
        AND       PL,#2047              ; [CPU_ALU] |352| 
        AND       PH,#0                 ; [CPU_ALU] |352| 
$C$DW$273	.dwtag  DW_TAG_TI_branch
	.dwattr $C$DW$273, DW_AT_low_pc(0x00)
	.dwattr $C$DW$273, DW_AT_name("__c28xabi_cmpull")
	.dwattr $C$DW$273, DW_AT_TI_call

        LCR       #||__c28xabi_cmpull|| ; [CPU_ALU] |352| 
        ; call occurs [#||__c28xabi_cmpull||] ; [] |352| 
        MOVB      XAR7,#0               ; [CPU_ALU] |352| 
        MOVB      AH,#0                 ; [CPU_ALU] |352| 
        CMPB      AL,#0                 ; [CPU_ALU] |352| 
        B         ||$C$L20||,NEQ        ; [CPU_ALU] |352| 
        ; branchcc occurs ; [] |352| 
        MOVB      AH,#1                 ; [CPU_ALU] |352| 
||$C$L20||:    
        CMPB      AH,#0                 ; [CPU_ALU] |352| 
        B         ||$C$L22||,NEQ        ; [CPU_ALU] |352| 
        ; branchcc occurs ; [] |352| 
        MOV32     R0H,*-SP[6]           ; [CPU_FPU] |352| 
        MOV       T,#48                 ; [CPU_ALU] |352| 
        MOV32     R0L,*-SP[8]           ; [CPU_FPU] |352| 
        MOVB      XAR6,#0               ; [CPU_ALU] |352| 
        MOV32     P,R0L                 ; [CPU_FPU] |352| 
        MOV32     ACC,R0H               ; [CPU_FPU] |352| 
        LSR64     ACC:P,T               ; [CPU_ALU] |352| 
        MOV       PH,#0                 ; [CPU_ALU] |352| 
        AND       PL,#0x7ff0            ; [CPU_ALU] |352| 
        MOV       ACC,#32752            ; [CPU_ALU] |352| 
        CMPL      ACC,P                 ; [CPU_ALU] |352| 
        B         ||$C$L21||,NEQ        ; [CPU_ALU] |352| 
        ; branchcc occurs ; [] |352| 
        MOVB      XAR6,#1               ; [CPU_ALU] |352| 
||$C$L21||:    
        MOV       AL,AR6                ; [CPU_ALU] 
        B         ||$C$L22||,NEQ        ; [CPU_ALU] |352| 
        ; branchcc occurs ; [] |352| 
        MOVB      XAR7,#1               ; [CPU_ALU] |352| 
||$C$L22||:    
        MOV       AL,AR7                ; [CPU_ALU] |352| 
	.dwpsn	file "C:/ti/ccs1260/ccs/tools/compiler/ti-cgt-c2000_22.6.1.LTS/include/_defs.h",line 353,column 48,is_stmt,isa 0
        SUBB      SP,#8                 ; [CPU_ARAU] 
	.dwcfi	cfa_offset, -2
$C$DW$274	.dwtag  DW_TAG_TI_branch
	.dwattr $C$DW$274, DW_AT_low_pc(0x00)
	.dwattr $C$DW$274, DW_AT_TI_return

        LRETR     ; [CPU_ALU] 
        ; return occurs ; [] 
	.dwattr $C$DW$270, DW_AT_TI_end_file("C:/ti/ccs1260/ccs/tools/compiler/ti-cgt-c2000_22.6.1.LTS/include/_defs.h")
	.dwattr $C$DW$270, DW_AT_TI_end_line(0x161)
	.dwattr $C$DW$270, DW_AT_TI_end_column(0x30)
	.dwendentry
	.dwendtag $C$DW$270

	.sect	".text:__isnormalf"
	.clink
	.global	||__isnormalf||

$C$DW$275	.dwtag  DW_TAG_subprogram
	.dwattr $C$DW$275, DW_AT_name("__isnormalf")
	.dwattr $C$DW$275, DW_AT_low_pc(||__isnormalf||)
	.dwattr $C$DW$275, DW_AT_high_pc(0x00)
	.dwattr $C$DW$275, DW_AT_linkage_name("__isnormalf")
	.dwattr $C$DW$275, DW_AT_external
	.dwattr $C$DW$275, DW_AT_type(*$C$DW$T$10)
	.dwattr $C$DW$275, DW_AT_decl_file("C:/ti/ccs1260/ccs/tools/compiler/ti-cgt-c2000_22.6.1.LTS/include/_defs.h")
	.dwattr $C$DW$275, DW_AT_decl_line(0x163)
	.dwattr $C$DW$275, DW_AT_decl_column(0x18)
	.dwattr $C$DW$275, DW_AT_TI_max_frame_size(-4)
	.dwpsn	file "C:/ti/ccs1260/ccs/tools/compiler/ti-cgt-c2000_22.6.1.LTS/include/_defs.h",line 356,column 1,is_stmt,address ||__isnormalf||,isa 0

	.dwfde $C$DW$CIE, ||__isnormalf||
$C$DW$276	.dwtag  DW_TAG_formal_parameter
	.dwattr $C$DW$276, DW_AT_name("f")
	.dwattr $C$DW$276, DW_AT_type(*$C$DW$T$16)
	.dwattr $C$DW$276, DW_AT_location[DW_OP_regx 0x2b]


;***************************************************************
;* FNAME: __isnormalf                   FR SIZE:   2           *
;*                                                             *
;* FUNCTION ENVIRONMENT                                        *
;*                                                             *
;* FUNCTION PROPERTIES                                         *
;*                            0 Parameter,  2 Auto,  0 SOE     *
;***************************************************************

||__isnormalf||:
	.dwcfi	cfa_offset, -2
	.dwcfi	save_reg_to_mem, 26, 0
        ADDB      SP,#2                 ; [CPU_ARAU] 
	.dwcfi	cfa_offset, -4
$C$DW$277	.dwtag  DW_TAG_variable
	.dwattr $C$DW$277, DW_AT_name("f")
	.dwattr $C$DW$277, DW_AT_type(*$C$DW$T$16)
	.dwattr $C$DW$277, DW_AT_location[DW_OP_breg20 -2]

        MOV32     *-SP[2],R0H           ; [CPU_FPU] |356| 
	.dwpsn	file "C:/ti/ccs1260/ccs/tools/compiler/ti-cgt-c2000_22.6.1.LTS/include/_defs.h",line 356,column 3,is_stmt,isa 0
        MOV       T,#23                 ; [CPU_ALU] |356| 
        MOVL      ACC,*-SP[2]           ; [CPU_ALU] |356| 
        MOVB      XAR6,#0               ; [CPU_ALU] |356| 
        LSRL      ACC,T                 ; [CPU_ALU] |356| 
        MOVB      AH,#0                 ; [CPU_ALU] |356| 
        ANDB      AL,#0xff              ; [CPU_ALU] |356| 
        CMPB      AL,#0                 ; [CPU_ALU] |356| 
        B         ||$C$L23||,NEQ        ; [CPU_ALU] |356| 
        ; branchcc occurs ; [] |356| 
        MOVB      AH,#1                 ; [CPU_ALU] |356| 
||$C$L23||:    
        CMPB      AH,#0                 ; [CPU_ALU] |356| 
        B         ||$C$L25||,NEQ        ; [CPU_ALU] |356| 
        ; branchcc occurs ; [] |356| 
        MOVL      P,*-SP[2]             ; [CPU_ALU] |356| 
        MOV       ACC,#32640            ; [CPU_ALU] |356| 
        AND       PH,#0x7f80            ; [CPU_ALU] |356| 
        MOVB      XAR7,#0               ; [CPU_ALU] |356| 
        MOV       PL,PH                 ; [CPU_ALU] |356| 
        MOV       PH,#0                 ; [CPU_ALU] |356| 
        CMPL      ACC,P                 ; [CPU_ALU] |356| 
        B         ||$C$L24||,NEQ        ; [CPU_ALU] |356| 
        ; branchcc occurs ; [] |356| 
        MOVB      XAR7,#1               ; [CPU_ALU] |356| 
||$C$L24||:    
        MOV       AH,AR7                ; [CPU_ALU] 
        B         ||$C$L25||,NEQ        ; [CPU_ALU] |356| 
        ; branchcc occurs ; [] |356| 
        MOVB      XAR6,#1               ; [CPU_ALU] |356| 
||$C$L25||:    
        MOV       AL,AR6                ; [CPU_ALU] |356| 
	.dwpsn	file "C:/ti/ccs1260/ccs/tools/compiler/ti-cgt-c2000_22.6.1.LTS/include/_defs.h",line 357,column 47,is_stmt,isa 0
        SUBB      SP,#2                 ; [CPU_ARAU] 
	.dwcfi	cfa_offset, -2
$C$DW$278	.dwtag  DW_TAG_TI_branch
	.dwattr $C$DW$278, DW_AT_low_pc(0x00)
	.dwattr $C$DW$278, DW_AT_TI_return

        LRETR     ; [CPU_ALU] 
        ; return occurs ; [] 
	.dwattr $C$DW$275, DW_AT_TI_end_file("C:/ti/ccs1260/ccs/tools/compiler/ti-cgt-c2000_22.6.1.LTS/include/_defs.h")
	.dwattr $C$DW$275, DW_AT_TI_end_line(0x165)
	.dwattr $C$DW$275, DW_AT_TI_end_column(0x2f)
	.dwendentry
	.dwendtag $C$DW$275

	.sect	".text:__isnormall"
	.clink
	.global	||__isnormall||

$C$DW$279	.dwtag  DW_TAG_subprogram
	.dwattr $C$DW$279, DW_AT_name("__isnormall")
	.dwattr $C$DW$279, DW_AT_low_pc(||__isnormall||)
	.dwattr $C$DW$279, DW_AT_high_pc(0x00)
	.dwattr $C$DW$279, DW_AT_linkage_name("__isnormall")
	.dwattr $C$DW$279, DW_AT_external
	.dwattr $C$DW$279, DW_AT_type(*$C$DW$T$10)
	.dwattr $C$DW$279, DW_AT_decl_file("C:/ti/ccs1260/ccs/tools/compiler/ti-cgt-c2000_22.6.1.LTS/include/_defs.h")
	.dwattr $C$DW$279, DW_AT_decl_line(0x167)
	.dwattr $C$DW$279, DW_AT_decl_column(0x18)
	.dwattr $C$DW$279, DW_AT_TI_max_frame_size(-10)
	.dwpsn	file "C:/ti/ccs1260/ccs/tools/compiler/ti-cgt-c2000_22.6.1.LTS/include/_defs.h",line 360,column 1,is_stmt,address ||__isnormall||,isa 0

	.dwfde $C$DW$CIE, ||__isnormall||
$C$DW$280	.dwtag  DW_TAG_formal_parameter
	.dwattr $C$DW$280, DW_AT_name("e")
	.dwattr $C$DW$280, DW_AT_type(*$C$DW$T$18)
	.dwattr $C$DW$280, DW_AT_location[DW_OP_regx 0x29]


;***************************************************************
;* FNAME: __isnormall                   FR SIZE:   8           *
;*                                                             *
;* FUNCTION ENVIRONMENT                                        *
;*                                                             *
;* FUNCTION PROPERTIES                                         *
;*                            4 Parameter,  4 Auto,  0 SOE     *
;***************************************************************

||__isnormall||:
	.dwcfi	cfa_offset, -2
	.dwcfi	save_reg_to_mem, 26, 0
        ADDB      SP,#8                 ; [CPU_ARAU] 
	.dwcfi	cfa_offset, -10
$C$DW$281	.dwtag  DW_TAG_variable
	.dwattr $C$DW$281, DW_AT_name("e")
	.dwattr $C$DW$281, DW_AT_type(*$C$DW$T$18)
	.dwattr $C$DW$281, DW_AT_location[DW_OP_breg20 -8]

        MOV32     *-SP[8],R0L           ; [CPU_FPU] |360| 
        MOV32     *-SP[6],R0H           ; [CPU_FPU] |360| 
	.dwpsn	file "C:/ti/ccs1260/ccs/tools/compiler/ti-cgt-c2000_22.6.1.LTS/include/_defs.h",line 360,column 3,is_stmt,isa 0
        MOVB      ACC,#0                ; [CPU_ALU] |360| 
        MOVL      *-SP[4],ACC           ; [CPU_ALU] |360| 
        MOV       *-SP[2],#0            ; [CPU_ALU] |360| 
        MOV       *-SP[1],#0            ; [CPU_ALU] |360| 
        MOV32     R0H,*-SP[6]           ; [CPU_FPU] |360| 
        MOV32     R0L,*-SP[8]           ; [CPU_FPU] |360| 
        MOV       T,#52                 ; [CPU_ALU] |360| 
        MOV32     P,R0L                 ; [CPU_FPU] |360| 
        MOV32     ACC,R0H               ; [CPU_FPU] |360| 
        LSR64     ACC:P,T               ; [CPU_ALU] |360| 
        ANDB      AL,#0                 ; [CPU_ALU] |360| 
        ANDB      AH,#0                 ; [CPU_ALU] |360| 
        AND       PL,#2047              ; [CPU_ALU] |360| 
        AND       PH,#0                 ; [CPU_ALU] |360| 
$C$DW$282	.dwtag  DW_TAG_TI_branch
	.dwattr $C$DW$282, DW_AT_low_pc(0x00)
	.dwattr $C$DW$282, DW_AT_name("__c28xabi_cmpull")
	.dwattr $C$DW$282, DW_AT_TI_call

        LCR       #||__c28xabi_cmpull|| ; [CPU_ALU] |360| 
        ; call occurs [#||__c28xabi_cmpull||] ; [] |360| 
        MOVB      XAR7,#0               ; [CPU_ALU] |360| 
        MOVB      AH,#0                 ; [CPU_ALU] |360| 
        CMPB      AL,#0                 ; [CPU_ALU] |360| 
        B         ||$C$L26||,NEQ        ; [CPU_ALU] |360| 
        ; branchcc occurs ; [] |360| 
        MOVB      AH,#1                 ; [CPU_ALU] |360| 
||$C$L26||:    
        CMPB      AH,#0                 ; [CPU_ALU] |360| 
        B         ||$C$L28||,NEQ        ; [CPU_ALU] |360| 
        ; branchcc occurs ; [] |360| 
        MOV32     R0H,*-SP[6]           ; [CPU_FPU] |360| 
        MOV       T,#48                 ; [CPU_ALU] |360| 
        MOV32     R0L,*-SP[8]           ; [CPU_FPU] |360| 
        MOVB      XAR6,#0               ; [CPU_ALU] |360| 
        MOV32     P,R0L                 ; [CPU_FPU] |360| 
        MOV32     ACC,R0H               ; [CPU_FPU] |360| 
        LSR64     ACC:P,T               ; [CPU_ALU] |360| 
        MOV       PH,#0                 ; [CPU_ALU] |360| 
        AND       PL,#0x7ff0            ; [CPU_ALU] |360| 
        MOV       ACC,#32752            ; [CPU_ALU] |360| 
        CMPL      ACC,P                 ; [CPU_ALU] |360| 
        B         ||$C$L27||,NEQ        ; [CPU_ALU] |360| 
        ; branchcc occurs ; [] |360| 
        MOVB      XAR6,#1               ; [CPU_ALU] |360| 
||$C$L27||:    
        MOV       AL,AR6                ; [CPU_ALU] 
        B         ||$C$L28||,NEQ        ; [CPU_ALU] |360| 
        ; branchcc occurs ; [] |360| 
        MOVB      XAR7,#1               ; [CPU_ALU] |360| 
||$C$L28||:    
        MOV       AL,AR7                ; [CPU_ALU] |360| 
	.dwpsn	file "C:/ti/ccs1260/ccs/tools/compiler/ti-cgt-c2000_22.6.1.LTS/include/_defs.h",line 361,column 49,is_stmt,isa 0
        SUBB      SP,#8                 ; [CPU_ARAU] 
	.dwcfi	cfa_offset, -2
$C$DW$283	.dwtag  DW_TAG_TI_branch
	.dwattr $C$DW$283, DW_AT_low_pc(0x00)
	.dwattr $C$DW$283, DW_AT_TI_return

        LRETR     ; [CPU_ALU] 
        ; return occurs ; [] 
	.dwattr $C$DW$279, DW_AT_TI_end_file("C:/ti/ccs1260/ccs/tools/compiler/ti-cgt-c2000_22.6.1.LTS/include/_defs.h")
	.dwattr $C$DW$279, DW_AT_TI_end_line(0x169)
	.dwattr $C$DW$279, DW_AT_TI_end_column(0x31)
	.dwendentry
	.dwendtag $C$DW$279

	.sect	".text:__signbit"
	.clink
	.global	||__signbit||

$C$DW$284	.dwtag  DW_TAG_subprogram
	.dwattr $C$DW$284, DW_AT_name("__signbit")
	.dwattr $C$DW$284, DW_AT_low_pc(||__signbit||)
	.dwattr $C$DW$284, DW_AT_high_pc(0x00)
	.dwattr $C$DW$284, DW_AT_linkage_name("__signbit")
	.dwattr $C$DW$284, DW_AT_external
	.dwattr $C$DW$284, DW_AT_type(*$C$DW$T$10)
	.dwattr $C$DW$284, DW_AT_decl_file("C:/ti/ccs1260/ccs/tools/compiler/ti-cgt-c2000_22.6.1.LTS/include/_defs.h")
	.dwattr $C$DW$284, DW_AT_decl_line(0x16b)
	.dwattr $C$DW$284, DW_AT_decl_column(0x18)
	.dwattr $C$DW$284, DW_AT_TI_max_frame_size(-10)
	.dwpsn	file "C:/ti/ccs1260/ccs/tools/compiler/ti-cgt-c2000_22.6.1.LTS/include/_defs.h",line 364,column 1,is_stmt,address ||__signbit||,isa 0

	.dwfde $C$DW$CIE, ||__signbit||
$C$DW$285	.dwtag  DW_TAG_formal_parameter
	.dwattr $C$DW$285, DW_AT_name("d")
	.dwattr $C$DW$285, DW_AT_type(*$C$DW$T$17)
	.dwattr $C$DW$285, DW_AT_location[DW_OP_regx 0x29]


;***************************************************************
;* FNAME: __signbit                     FR SIZE:   8           *
;*                                                             *
;* FUNCTION ENVIRONMENT                                        *
;*                                                             *
;* FUNCTION PROPERTIES                                         *
;*                            4 Parameter,  4 Auto,  0 SOE     *
;***************************************************************

||__signbit||:
	.dwcfi	cfa_offset, -2
	.dwcfi	save_reg_to_mem, 26, 0
        ADDB      SP,#8                 ; [CPU_ARAU] 
	.dwcfi	cfa_offset, -10
$C$DW$286	.dwtag  DW_TAG_variable
	.dwattr $C$DW$286, DW_AT_name("d")
	.dwattr $C$DW$286, DW_AT_type(*$C$DW$T$17)
	.dwattr $C$DW$286, DW_AT_location[DW_OP_breg20 -8]

        MOV32     *-SP[8],R0L           ; [CPU_FPU] |364| 
        MOV32     *-SP[6],R0H           ; [CPU_FPU] |364| 
	.dwpsn	file "C:/ti/ccs1260/ccs/tools/compiler/ti-cgt-c2000_22.6.1.LTS/include/_defs.h",line 364,column 3,is_stmt,isa 0
        MOVB      ACC,#0                ; [CPU_ALU] |364| 
        MOVL      *-SP[4],ACC           ; [CPU_ALU] |364| 
        MOV       *-SP[2],#0            ; [CPU_ALU] |364| 
        MOV       *-SP[1],#0            ; [CPU_ALU] |364| 
        MOV32     R0H,*-SP[6]           ; [CPU_FPU] |364| 
        MOV32     R0L,*-SP[8]           ; [CPU_FPU] |364| 
        NOP       ; [CPU_ALU] 
        MOV32     P,R0L                 ; [CPU_FPU] |364| 
        AND       PL,#0                 ; [CPU_ALU] |364| 
        AND       PH,#0                 ; [CPU_ALU] |364| 
        MOV32     ACC,R0H               ; [CPU_FPU] |364| 
        ANDB      AL,#0                 ; [CPU_ALU] |364| 
        AND       AH,#32768             ; [CPU_ALU] |364| 
$C$DW$287	.dwtag  DW_TAG_TI_branch
	.dwattr $C$DW$287, DW_AT_low_pc(0x00)
	.dwattr $C$DW$287, DW_AT_name("__c28xabi_cmpull")
	.dwattr $C$DW$287, DW_AT_TI_call

        LCR       #||__c28xabi_cmpull|| ; [CPU_ALU] |364| 
        ; call occurs [#||__c28xabi_cmpull||] ; [] |364| 
        MOVB      XAR6,#0               ; [CPU_ALU] |364| 
        MOVB      AH,#0                 ; [CPU_ALU] |364| 
        CMPB      AL,#0                 ; [CPU_ALU] |364| 
        B         ||$C$L29||,NEQ        ; [CPU_ALU] |364| 
        ; branchcc occurs ; [] |364| 
        MOVB      AH,#1                 ; [CPU_ALU] |364| 
||$C$L29||:    
        CMPB      AH,#0                 ; [CPU_ALU] |364| 
        B         ||$C$L30||,NEQ        ; [CPU_ALU] |364| 
        ; branchcc occurs ; [] |364| 
        MOVB      XAR6,#1               ; [CPU_ALU] |364| 
||$C$L30||:    
        MOV       AL,AR6                ; [CPU_ALU] |364| 
	.dwpsn	file "C:/ti/ccs1260/ccs/tools/compiler/ti-cgt-c2000_22.6.1.LTS/include/_defs.h",line 364,column 42,is_stmt,isa 0
        SUBB      SP,#8                 ; [CPU_ARAU] 
	.dwcfi	cfa_offset, -2
$C$DW$288	.dwtag  DW_TAG_TI_branch
	.dwattr $C$DW$288, DW_AT_low_pc(0x00)
	.dwattr $C$DW$288, DW_AT_TI_return

        LRETR     ; [CPU_ALU] 
        ; return occurs ; [] 
	.dwattr $C$DW$284, DW_AT_TI_end_file("C:/ti/ccs1260/ccs/tools/compiler/ti-cgt-c2000_22.6.1.LTS/include/_defs.h")
	.dwattr $C$DW$284, DW_AT_TI_end_line(0x16c)
	.dwattr $C$DW$284, DW_AT_TI_end_column(0x2a)
	.dwendentry
	.dwendtag $C$DW$284

	.sect	".text:__signbitf"
	.clink
	.global	||__signbitf||

$C$DW$289	.dwtag  DW_TAG_subprogram
	.dwattr $C$DW$289, DW_AT_name("__signbitf")
	.dwattr $C$DW$289, DW_AT_low_pc(||__signbitf||)
	.dwattr $C$DW$289, DW_AT_high_pc(0x00)
	.dwattr $C$DW$289, DW_AT_linkage_name("__signbitf")
	.dwattr $C$DW$289, DW_AT_external
	.dwattr $C$DW$289, DW_AT_type(*$C$DW$T$10)
	.dwattr $C$DW$289, DW_AT_decl_file("C:/ti/ccs1260/ccs/tools/compiler/ti-cgt-c2000_22.6.1.LTS/include/_defs.h")
	.dwattr $C$DW$289, DW_AT_decl_line(0x16d)
	.dwattr $C$DW$289, DW_AT_decl_column(0x18)
	.dwattr $C$DW$289, DW_AT_TI_max_frame_size(-4)
	.dwpsn	file "C:/ti/ccs1260/ccs/tools/compiler/ti-cgt-c2000_22.6.1.LTS/include/_defs.h",line 366,column 1,is_stmt,address ||__signbitf||,isa 0

	.dwfde $C$DW$CIE, ||__signbitf||
$C$DW$290	.dwtag  DW_TAG_formal_parameter
	.dwattr $C$DW$290, DW_AT_name("f")
	.dwattr $C$DW$290, DW_AT_type(*$C$DW$T$16)
	.dwattr $C$DW$290, DW_AT_location[DW_OP_regx 0x2b]


;***************************************************************
;* FNAME: __signbitf                    FR SIZE:   2           *
;*                                                             *
;* FUNCTION ENVIRONMENT                                        *
;*                                                             *
;* FUNCTION PROPERTIES                                         *
;*                            0 Parameter,  2 Auto,  0 SOE     *
;***************************************************************

||__signbitf||:
	.dwcfi	cfa_offset, -2
	.dwcfi	save_reg_to_mem, 26, 0
        ADDB      SP,#2                 ; [CPU_ARAU] 
	.dwcfi	cfa_offset, -4
$C$DW$291	.dwtag  DW_TAG_variable
	.dwattr $C$DW$291, DW_AT_name("f")
	.dwattr $C$DW$291, DW_AT_type(*$C$DW$T$16)
	.dwattr $C$DW$291, DW_AT_location[DW_OP_breg20 -2]

        MOV32     *-SP[2],R0H           ; [CPU_FPU] |366| 
	.dwpsn	file "C:/ti/ccs1260/ccs/tools/compiler/ti-cgt-c2000_22.6.1.LTS/include/_defs.h",line 366,column 3,is_stmt,isa 0
        MOVL      ACC,*-SP[2]           ; [CPU_ALU] |366| 
        MOVB      XAR6,#0               ; [CPU_ALU] |366| 
        MOVB      XAR7,#0               ; [CPU_ALU] |366| 
        ANDB      AL,#0                 ; [CPU_ALU] |366| 
        AND       AH,#32768             ; [CPU_ALU] |366| 
        TEST      ACC                   ; [CPU_ALU] |366| 
        B         ||$C$L31||,NEQ        ; [CPU_ALU] |366| 
        ; branchcc occurs ; [] |366| 
        MOVB      XAR7,#1               ; [CPU_ALU] |366| 
||$C$L31||:    
        MOV       AH,AR7                ; [CPU_ALU] 
        B         ||$C$L32||,NEQ        ; [CPU_ALU] |366| 
        ; branchcc occurs ; [] |366| 
        MOVB      XAR6,#1               ; [CPU_ALU] |366| 
||$C$L32||:    
        MOV       AL,AR6                ; [CPU_ALU] |366| 
	.dwpsn	file "C:/ti/ccs1260/ccs/tools/compiler/ti-cgt-c2000_22.6.1.LTS/include/_defs.h",line 366,column 41,is_stmt,isa 0
        SUBB      SP,#2                 ; [CPU_ARAU] 
	.dwcfi	cfa_offset, -2
$C$DW$292	.dwtag  DW_TAG_TI_branch
	.dwattr $C$DW$292, DW_AT_low_pc(0x00)
	.dwattr $C$DW$292, DW_AT_TI_return

        LRETR     ; [CPU_ALU] 
        ; return occurs ; [] 
	.dwattr $C$DW$289, DW_AT_TI_end_file("C:/ti/ccs1260/ccs/tools/compiler/ti-cgt-c2000_22.6.1.LTS/include/_defs.h")
	.dwattr $C$DW$289, DW_AT_TI_end_line(0x16e)
	.dwattr $C$DW$289, DW_AT_TI_end_column(0x29)
	.dwendentry
	.dwendtag $C$DW$289

	.sect	".text:__signbitl"
	.clink
	.global	||__signbitl||

$C$DW$293	.dwtag  DW_TAG_subprogram
	.dwattr $C$DW$293, DW_AT_name("__signbitl")
	.dwattr $C$DW$293, DW_AT_low_pc(||__signbitl||)
	.dwattr $C$DW$293, DW_AT_high_pc(0x00)
	.dwattr $C$DW$293, DW_AT_linkage_name("__signbitl")
	.dwattr $C$DW$293, DW_AT_external
	.dwattr $C$DW$293, DW_AT_type(*$C$DW$T$10)
	.dwattr $C$DW$293, DW_AT_decl_file("C:/ti/ccs1260/ccs/tools/compiler/ti-cgt-c2000_22.6.1.LTS/include/_defs.h")
	.dwattr $C$DW$293, DW_AT_decl_line(0x16f)
	.dwattr $C$DW$293, DW_AT_decl_column(0x18)
	.dwattr $C$DW$293, DW_AT_TI_max_frame_size(-10)
	.dwpsn	file "C:/ti/ccs1260/ccs/tools/compiler/ti-cgt-c2000_22.6.1.LTS/include/_defs.h",line 368,column 1,is_stmt,address ||__signbitl||,isa 0

	.dwfde $C$DW$CIE, ||__signbitl||
$C$DW$294	.dwtag  DW_TAG_formal_parameter
	.dwattr $C$DW$294, DW_AT_name("e")
	.dwattr $C$DW$294, DW_AT_type(*$C$DW$T$18)
	.dwattr $C$DW$294, DW_AT_location[DW_OP_regx 0x29]


;***************************************************************
;* FNAME: __signbitl                    FR SIZE:   8           *
;*                                                             *
;* FUNCTION ENVIRONMENT                                        *
;*                                                             *
;* FUNCTION PROPERTIES                                         *
;*                            4 Parameter,  4 Auto,  0 SOE     *
;***************************************************************

||__signbitl||:
	.dwcfi	cfa_offset, -2
	.dwcfi	save_reg_to_mem, 26, 0
        ADDB      SP,#8                 ; [CPU_ARAU] 
	.dwcfi	cfa_offset, -10
$C$DW$295	.dwtag  DW_TAG_variable
	.dwattr $C$DW$295, DW_AT_name("e")
	.dwattr $C$DW$295, DW_AT_type(*$C$DW$T$18)
	.dwattr $C$DW$295, DW_AT_location[DW_OP_breg20 -8]

        MOV32     *-SP[8],R0L           ; [CPU_FPU] |368| 
        MOV32     *-SP[6],R0H           ; [CPU_FPU] |368| 
	.dwpsn	file "C:/ti/ccs1260/ccs/tools/compiler/ti-cgt-c2000_22.6.1.LTS/include/_defs.h",line 368,column 3,is_stmt,isa 0
        MOVB      ACC,#0                ; [CPU_ALU] |368| 
        MOVL      *-SP[4],ACC           ; [CPU_ALU] |368| 
        MOV       *-SP[2],#0            ; [CPU_ALU] |368| 
        MOV       *-SP[1],#0            ; [CPU_ALU] |368| 
        MOV32     R0H,*-SP[6]           ; [CPU_FPU] |368| 
        MOV32     R0L,*-SP[8]           ; [CPU_FPU] |368| 
        NOP       ; [CPU_ALU] 
        MOV32     P,R0L                 ; [CPU_FPU] |368| 
        AND       PL,#0                 ; [CPU_ALU] |368| 
        AND       PH,#0                 ; [CPU_ALU] |368| 
        MOV32     ACC,R0H               ; [CPU_FPU] |368| 
        ANDB      AL,#0                 ; [CPU_ALU] |368| 
        AND       AH,#32768             ; [CPU_ALU] |368| 
$C$DW$296	.dwtag  DW_TAG_TI_branch
	.dwattr $C$DW$296, DW_AT_low_pc(0x00)
	.dwattr $C$DW$296, DW_AT_name("__c28xabi_cmpull")
	.dwattr $C$DW$296, DW_AT_TI_call

        LCR       #||__c28xabi_cmpull|| ; [CPU_ALU] |368| 
        ; call occurs [#||__c28xabi_cmpull||] ; [] |368| 
        MOVB      XAR6,#0               ; [CPU_ALU] |368| 
        MOVB      AH,#0                 ; [CPU_ALU] |368| 
        CMPB      AL,#0                 ; [CPU_ALU] |368| 
        B         ||$C$L33||,NEQ        ; [CPU_ALU] |368| 
        ; branchcc occurs ; [] |368| 
        MOVB      AH,#1                 ; [CPU_ALU] |368| 
||$C$L33||:    
        CMPB      AH,#0                 ; [CPU_ALU] |368| 
        B         ||$C$L34||,NEQ        ; [CPU_ALU] |368| 
        ; branchcc occurs ; [] |368| 
        MOVB      XAR6,#1               ; [CPU_ALU] |368| 
||$C$L34||:    
        MOV       AL,AR6                ; [CPU_ALU] |368| 
	.dwpsn	file "C:/ti/ccs1260/ccs/tools/compiler/ti-cgt-c2000_22.6.1.LTS/include/_defs.h",line 368,column 43,is_stmt,isa 0
        SUBB      SP,#8                 ; [CPU_ARAU] 
	.dwcfi	cfa_offset, -2
$C$DW$297	.dwtag  DW_TAG_TI_branch
	.dwattr $C$DW$297, DW_AT_low_pc(0x00)
	.dwattr $C$DW$297, DW_AT_TI_return

        LRETR     ; [CPU_ALU] 
        ; return occurs ; [] 
	.dwattr $C$DW$293, DW_AT_TI_end_file("C:/ti/ccs1260/ccs/tools/compiler/ti-cgt-c2000_22.6.1.LTS/include/_defs.h")
	.dwattr $C$DW$293, DW_AT_TI_end_line(0x170)
	.dwattr $C$DW$293, DW_AT_TI_end_column(0x2b)
	.dwendentry
	.dwendtag $C$DW$293

	.sect	".text:__isinff"
	.clink
	.global	||__isinff||

$C$DW$298	.dwtag  DW_TAG_subprogram
	.dwattr $C$DW$298, DW_AT_name("__isinff")
	.dwattr $C$DW$298, DW_AT_low_pc(||__isinff||)
	.dwattr $C$DW$298, DW_AT_high_pc(0x00)
	.dwattr $C$DW$298, DW_AT_linkage_name("__isinff")
	.dwattr $C$DW$298, DW_AT_external
	.dwattr $C$DW$298, DW_AT_type(*$C$DW$T$10)
	.dwattr $C$DW$298, DW_AT_decl_file("C:/ti/ccs1260/ccs/tools/compiler/ti-cgt-c2000_22.6.1.LTS/include/_defs.h")
	.dwattr $C$DW$298, DW_AT_decl_line(0x176)
	.dwattr $C$DW$298, DW_AT_decl_column(0x18)
	.dwattr $C$DW$298, DW_AT_TI_max_frame_size(-4)
	.dwpsn	file "C:/ti/ccs1260/ccs/tools/compiler/ti-cgt-c2000_22.6.1.LTS/include/_defs.h",line 375,column 1,is_stmt,address ||__isinff||,isa 0

	.dwfde $C$DW$CIE, ||__isinff||
$C$DW$299	.dwtag  DW_TAG_formal_parameter
	.dwattr $C$DW$299, DW_AT_name("f")
	.dwattr $C$DW$299, DW_AT_type(*$C$DW$T$16)
	.dwattr $C$DW$299, DW_AT_location[DW_OP_regx 0x2b]


;***************************************************************
;* FNAME: __isinff                      FR SIZE:   2           *
;*                                                             *
;* FUNCTION ENVIRONMENT                                        *
;*                                                             *
;* FUNCTION PROPERTIES                                         *
;*                            0 Parameter,  2 Auto,  0 SOE     *
;***************************************************************

||__isinff||:
	.dwcfi	cfa_offset, -2
	.dwcfi	save_reg_to_mem, 26, 0
        ADDB      SP,#2                 ; [CPU_ARAU] 
	.dwcfi	cfa_offset, -4
$C$DW$300	.dwtag  DW_TAG_variable
	.dwattr $C$DW$300, DW_AT_name("f")
	.dwattr $C$DW$300, DW_AT_type(*$C$DW$T$16)
	.dwattr $C$DW$300, DW_AT_location[DW_OP_breg20 -2]

        MOV32     *-SP[2],R0H           ; [CPU_FPU] |375| 
	.dwpsn	file "C:/ti/ccs1260/ccs/tools/compiler/ti-cgt-c2000_22.6.1.LTS/include/_defs.h",line 375,column 3,is_stmt,isa 0
        MOVL      ACC,*-SP[2]           ; [CPU_ALU] |375| 
        AND       AH,#0x7f80            ; [CPU_ALU] |375| 
        MOVZ      AR7,AH                ; [CPU_ALU] |375| 
        MOVB      XAR6,#0               ; [CPU_ALU] |375| 
        MOV       ACC,#32640            ; [CPU_ALU] |375| 
        CMPL      ACC,XAR7              ; [CPU_ALU] |375| 
        B         ||$C$L35||,NEQ        ; [CPU_ALU] |375| 
        ; branchcc occurs ; [] |375| 
        MOVL      ACC,*-SP[2]           ; [CPU_ALU] |375| 
        ANDB      AH,#127               ; [CPU_ALU] |375| 
        TEST      ACC                   ; [CPU_ALU] |375| 
        B         ||$C$L35||,NEQ        ; [CPU_ALU] |375| 
        ; branchcc occurs ; [] |375| 
        MOVB      XAR6,#1               ; [CPU_ALU] |375| 
||$C$L35||:    
        MOV       AL,AR6                ; [CPU_ALU] |375| 
	.dwpsn	file "C:/ti/ccs1260/ccs/tools/compiler/ti-cgt-c2000_22.6.1.LTS/include/_defs.h",line 375,column 72,is_stmt,isa 0
        SUBB      SP,#2                 ; [CPU_ARAU] 
	.dwcfi	cfa_offset, -2
$C$DW$301	.dwtag  DW_TAG_TI_branch
	.dwattr $C$DW$301, DW_AT_low_pc(0x00)
	.dwattr $C$DW$301, DW_AT_TI_return

        LRETR     ; [CPU_ALU] 
        ; return occurs ; [] 
	.dwattr $C$DW$298, DW_AT_TI_end_file("C:/ti/ccs1260/ccs/tools/compiler/ti-cgt-c2000_22.6.1.LTS/include/_defs.h")
	.dwattr $C$DW$298, DW_AT_TI_end_line(0x177)
	.dwattr $C$DW$298, DW_AT_TI_end_column(0x48)
	.dwendentry
	.dwendtag $C$DW$298

	.sect	".text:__isinf"
	.clink
	.global	||__isinf||

$C$DW$302	.dwtag  DW_TAG_subprogram
	.dwattr $C$DW$302, DW_AT_name("__isinf")
	.dwattr $C$DW$302, DW_AT_low_pc(||__isinf||)
	.dwattr $C$DW$302, DW_AT_high_pc(0x00)
	.dwattr $C$DW$302, DW_AT_linkage_name("__isinf")
	.dwattr $C$DW$302, DW_AT_external
	.dwattr $C$DW$302, DW_AT_type(*$C$DW$T$10)
	.dwattr $C$DW$302, DW_AT_decl_file("C:/ti/ccs1260/ccs/tools/compiler/ti-cgt-c2000_22.6.1.LTS/include/_defs.h")
	.dwattr $C$DW$302, DW_AT_decl_line(0x178)
	.dwattr $C$DW$302, DW_AT_decl_column(0x18)
	.dwattr $C$DW$302, DW_AT_TI_max_frame_size(-10)
	.dwpsn	file "C:/ti/ccs1260/ccs/tools/compiler/ti-cgt-c2000_22.6.1.LTS/include/_defs.h",line 377,column 1,is_stmt,address ||__isinf||,isa 0

	.dwfde $C$DW$CIE, ||__isinf||
$C$DW$303	.dwtag  DW_TAG_formal_parameter
	.dwattr $C$DW$303, DW_AT_name("d")
	.dwattr $C$DW$303, DW_AT_type(*$C$DW$T$17)
	.dwattr $C$DW$303, DW_AT_location[DW_OP_regx 0x29]


;***************************************************************
;* FNAME: __isinf                       FR SIZE:   8           *
;*                                                             *
;* FUNCTION ENVIRONMENT                                        *
;*                                                             *
;* FUNCTION PROPERTIES                                         *
;*                            4 Parameter,  4 Auto,  0 SOE     *
;***************************************************************

||__isinf||:
	.dwcfi	cfa_offset, -2
	.dwcfi	save_reg_to_mem, 26, 0
        ADDB      SP,#8                 ; [CPU_ARAU] 
	.dwcfi	cfa_offset, -10
$C$DW$304	.dwtag  DW_TAG_variable
	.dwattr $C$DW$304, DW_AT_name("d")
	.dwattr $C$DW$304, DW_AT_type(*$C$DW$T$17)
	.dwattr $C$DW$304, DW_AT_location[DW_OP_breg20 -8]

        MOV32     *-SP[8],R0L           ; [CPU_FPU] |377| 
        MOV32     *-SP[6],R0H           ; [CPU_FPU] |377| 
	.dwpsn	file "C:/ti/ccs1260/ccs/tools/compiler/ti-cgt-c2000_22.6.1.LTS/include/_defs.h",line 377,column 3,is_stmt,isa 0
        MOV       T,#48                 ; [CPU_ALU] |377| 
        MOV32     P,R0L                 ; [CPU_FPU] |377| 
        MOV32     ACC,R0H               ; [CPU_FPU] |377| 
        LSR64     ACC:P,T               ; [CPU_ALU] |377| 
        AND       PL,#0x7ff0            ; [CPU_ALU] |377| 
        MOVZ      AR6,PL                ; [CPU_ALU] |377| 
        MOV       ACC,#32752            ; [CPU_ALU] |377| 
        MOVB      XAR4,#0               ; [CPU_ALU] |377| 
        CMPL      ACC,XAR6              ; [CPU_ALU] |377| 
        B         ||$C$L36||,NEQ        ; [CPU_ALU] |377| 
        ; branchcc occurs ; [] |377| 
        MOVB      ACC,#0                ; [CPU_ALU] |377| 
        MOVL      *-SP[4],ACC           ; [CPU_ALU] |377| 
        MOV       *-SP[2],#0            ; [CPU_ALU] |377| 
        MOV       *-SP[1],#0            ; [CPU_ALU] |377| 
        MOV32     R0H,*-SP[6]           ; [CPU_FPU] |377| 
        MOV32     R0L,*-SP[8]           ; [CPU_FPU] |377| 
        NOP       ; [CPU_ALU] 
        MOV32     P,R0L                 ; [CPU_FPU] |377| 
        AND       PL,#65535             ; [CPU_ALU] |377| 
        AND       PH,#65535             ; [CPU_ALU] |377| 
        MOV32     ACC,R0H               ; [CPU_FPU] |377| 
        AND       AL,#65535             ; [CPU_ALU] |377| 
        ANDB      AH,#15                ; [CPU_ALU] |377| 
$C$DW$305	.dwtag  DW_TAG_TI_branch
	.dwattr $C$DW$305, DW_AT_low_pc(0x00)
	.dwattr $C$DW$305, DW_AT_name("__c28xabi_cmpull")
	.dwattr $C$DW$305, DW_AT_TI_call

        LCR       #||__c28xabi_cmpull|| ; [CPU_ALU] |377| 
        ; call occurs [#||__c28xabi_cmpull||] ; [] |377| 
        CMPB      AL,#0                 ; [CPU_ALU] |377| 
        B         ||$C$L36||,NEQ        ; [CPU_ALU] |377| 
        ; branchcc occurs ; [] |377| 
        MOVB      XAR4,#1               ; [CPU_ALU] |377| 
||$C$L36||:    
        MOV       AL,AR4                ; [CPU_ALU] |377| 
	.dwpsn	file "C:/ti/ccs1260/ccs/tools/compiler/ti-cgt-c2000_22.6.1.LTS/include/_defs.h",line 377,column 74,is_stmt,isa 0
        SUBB      SP,#8                 ; [CPU_ARAU] 
	.dwcfi	cfa_offset, -2
$C$DW$306	.dwtag  DW_TAG_TI_branch
	.dwattr $C$DW$306, DW_AT_low_pc(0x00)
	.dwattr $C$DW$306, DW_AT_TI_return

        LRETR     ; [CPU_ALU] 
        ; return occurs ; [] 
	.dwattr $C$DW$302, DW_AT_TI_end_file("C:/ti/ccs1260/ccs/tools/compiler/ti-cgt-c2000_22.6.1.LTS/include/_defs.h")
	.dwattr $C$DW$302, DW_AT_TI_end_line(0x179)
	.dwattr $C$DW$302, DW_AT_TI_end_column(0x4a)
	.dwendentry
	.dwendtag $C$DW$302

	.sect	".text:__isinfl"
	.clink
	.global	||__isinfl||

$C$DW$307	.dwtag  DW_TAG_subprogram
	.dwattr $C$DW$307, DW_AT_name("__isinfl")
	.dwattr $C$DW$307, DW_AT_low_pc(||__isinfl||)
	.dwattr $C$DW$307, DW_AT_high_pc(0x00)
	.dwattr $C$DW$307, DW_AT_linkage_name("__isinfl")
	.dwattr $C$DW$307, DW_AT_external
	.dwattr $C$DW$307, DW_AT_type(*$C$DW$T$10)
	.dwattr $C$DW$307, DW_AT_decl_file("C:/ti/ccs1260/ccs/tools/compiler/ti-cgt-c2000_22.6.1.LTS/include/_defs.h")
	.dwattr $C$DW$307, DW_AT_decl_line(0x17a)
	.dwattr $C$DW$307, DW_AT_decl_column(0x18)
	.dwattr $C$DW$307, DW_AT_TI_max_frame_size(-10)
	.dwpsn	file "C:/ti/ccs1260/ccs/tools/compiler/ti-cgt-c2000_22.6.1.LTS/include/_defs.h",line 379,column 1,is_stmt,address ||__isinfl||,isa 0

	.dwfde $C$DW$CIE, ||__isinfl||
$C$DW$308	.dwtag  DW_TAG_formal_parameter
	.dwattr $C$DW$308, DW_AT_name("e")
	.dwattr $C$DW$308, DW_AT_type(*$C$DW$T$18)
	.dwattr $C$DW$308, DW_AT_location[DW_OP_regx 0x29]


;***************************************************************
;* FNAME: __isinfl                      FR SIZE:   8           *
;*                                                             *
;* FUNCTION ENVIRONMENT                                        *
;*                                                             *
;* FUNCTION PROPERTIES                                         *
;*                            4 Parameter,  4 Auto,  0 SOE     *
;***************************************************************

||__isinfl||:
	.dwcfi	cfa_offset, -2
	.dwcfi	save_reg_to_mem, 26, 0
        ADDB      SP,#8                 ; [CPU_ARAU] 
	.dwcfi	cfa_offset, -10
$C$DW$309	.dwtag  DW_TAG_variable
	.dwattr $C$DW$309, DW_AT_name("e")
	.dwattr $C$DW$309, DW_AT_type(*$C$DW$T$18)
	.dwattr $C$DW$309, DW_AT_location[DW_OP_breg20 -8]

        MOV32     *-SP[8],R0L           ; [CPU_FPU] |379| 
        MOV32     *-SP[6],R0H           ; [CPU_FPU] |379| 
	.dwpsn	file "C:/ti/ccs1260/ccs/tools/compiler/ti-cgt-c2000_22.6.1.LTS/include/_defs.h",line 379,column 3,is_stmt,isa 0
        MOV       T,#48                 ; [CPU_ALU] |379| 
        MOV32     P,R0L                 ; [CPU_FPU] |379| 
        MOV32     ACC,R0H               ; [CPU_FPU] |379| 
        LSR64     ACC:P,T               ; [CPU_ALU] |379| 
        AND       PL,#0x7ff0            ; [CPU_ALU] |379| 
        MOVZ      AR6,PL                ; [CPU_ALU] |379| 
        MOV       ACC,#32752            ; [CPU_ALU] |379| 
        MOVB      XAR4,#0               ; [CPU_ALU] |379| 
        CMPL      ACC,XAR6              ; [CPU_ALU] |379| 
        B         ||$C$L37||,NEQ        ; [CPU_ALU] |379| 
        ; branchcc occurs ; [] |379| 
        MOVB      ACC,#0                ; [CPU_ALU] |379| 
        MOVL      *-SP[4],ACC           ; [CPU_ALU] |379| 
        MOV       *-SP[2],#0            ; [CPU_ALU] |379| 
        MOV       *-SP[1],#0            ; [CPU_ALU] |379| 
        MOV32     R0H,*-SP[6]           ; [CPU_FPU] |379| 
        MOV32     R0L,*-SP[8]           ; [CPU_FPU] |379| 
        NOP       ; [CPU_ALU] 
        MOV32     P,R0L                 ; [CPU_FPU] |379| 
        AND       PL,#65535             ; [CPU_ALU] |379| 
        AND       PH,#65535             ; [CPU_ALU] |379| 
        MOV32     ACC,R0H               ; [CPU_FPU] |379| 
        AND       AL,#65535             ; [CPU_ALU] |379| 
        ANDB      AH,#15                ; [CPU_ALU] |379| 
$C$DW$310	.dwtag  DW_TAG_TI_branch
	.dwattr $C$DW$310, DW_AT_low_pc(0x00)
	.dwattr $C$DW$310, DW_AT_name("__c28xabi_cmpull")
	.dwattr $C$DW$310, DW_AT_TI_call

        LCR       #||__c28xabi_cmpull|| ; [CPU_ALU] |379| 
        ; call occurs [#||__c28xabi_cmpull||] ; [] |379| 
        CMPB      AL,#0                 ; [CPU_ALU] |379| 
        B         ||$C$L37||,NEQ        ; [CPU_ALU] |379| 
        ; branchcc occurs ; [] |379| 
        MOVB      XAR4,#1               ; [CPU_ALU] |379| 
||$C$L37||:    
        MOV       AL,AR4                ; [CPU_ALU] |379| 
	.dwpsn	file "C:/ti/ccs1260/ccs/tools/compiler/ti-cgt-c2000_22.6.1.LTS/include/_defs.h",line 379,column 76,is_stmt,isa 0
        SUBB      SP,#8                 ; [CPU_ARAU] 
	.dwcfi	cfa_offset, -2
$C$DW$311	.dwtag  DW_TAG_TI_branch
	.dwattr $C$DW$311, DW_AT_low_pc(0x00)
	.dwattr $C$DW$311, DW_AT_TI_return

        LRETR     ; [CPU_ALU] 
        ; return occurs ; [] 
	.dwattr $C$DW$307, DW_AT_TI_end_file("C:/ti/ccs1260/ccs/tools/compiler/ti-cgt-c2000_22.6.1.LTS/include/_defs.h")
	.dwattr $C$DW$307, DW_AT_TI_end_line(0x17b)
	.dwattr $C$DW$307, DW_AT_TI_end_column(0x4c)
	.dwendentry
	.dwendtag $C$DW$307

	.sect	".text:__fpclassifyf"
	.clink
	.global	||__fpclassifyf||

$C$DW$312	.dwtag  DW_TAG_subprogram
	.dwattr $C$DW$312, DW_AT_name("__fpclassifyf")
	.dwattr $C$DW$312, DW_AT_low_pc(||__fpclassifyf||)
	.dwattr $C$DW$312, DW_AT_high_pc(0x00)
	.dwattr $C$DW$312, DW_AT_linkage_name("__fpclassifyf")
	.dwattr $C$DW$312, DW_AT_external
	.dwattr $C$DW$312, DW_AT_type(*$C$DW$T$10)
	.dwattr $C$DW$312, DW_AT_decl_file("C:/ti/ccs1260/ccs/tools/compiler/ti-cgt-c2000_22.6.1.LTS/include/_defs.h")
	.dwattr $C$DW$312, DW_AT_decl_line(0x18c)
	.dwattr $C$DW$312, DW_AT_decl_column(0x18)
	.dwattr $C$DW$312, DW_AT_TI_max_frame_size(-4)
	.dwpsn	file "C:/ti/ccs1260/ccs/tools/compiler/ti-cgt-c2000_22.6.1.LTS/include/_defs.h",line 397,column 1,is_stmt,address ||__fpclassifyf||,isa 0

	.dwfde $C$DW$CIE, ||__fpclassifyf||
$C$DW$313	.dwtag  DW_TAG_formal_parameter
	.dwattr $C$DW$313, DW_AT_name("f")
	.dwattr $C$DW$313, DW_AT_type(*$C$DW$T$16)
	.dwattr $C$DW$313, DW_AT_location[DW_OP_regx 0x2b]


;***************************************************************
;* FNAME: __fpclassifyf                 FR SIZE:   2           *
;*                                                             *
;* FUNCTION ENVIRONMENT                                        *
;*                                                             *
;* FUNCTION PROPERTIES                                         *
;*                            0 Parameter,  2 Auto,  0 SOE     *
;***************************************************************

||__fpclassifyf||:
	.dwcfi	cfa_offset, -2
	.dwcfi	save_reg_to_mem, 26, 0
        ADDB      SP,#2                 ; [CPU_ARAU] 
	.dwcfi	cfa_offset, -4
$C$DW$314	.dwtag  DW_TAG_variable
	.dwattr $C$DW$314, DW_AT_name("f")
	.dwattr $C$DW$314, DW_AT_type(*$C$DW$T$16)
	.dwattr $C$DW$314, DW_AT_location[DW_OP_breg20 -2]

        MOV32     *-SP[2],R0H           ; [CPU_FPU] |397| 
	.dwpsn	file "C:/ti/ccs1260/ccs/tools/compiler/ti-cgt-c2000_22.6.1.LTS/include/_defs.h",line 398,column 5,is_stmt,isa 0
        MOVL      ACC,*-SP[2]           ; [CPU_ALU] |398| 
        AND       AH,#0x7f80            ; [CPU_ALU] |398| 
        MOVZ      AR6,AH                ; [CPU_ALU] |398| 
        MOV       ACC,#32640            ; [CPU_ALU] |398| 
        CMPL      ACC,XAR6              ; [CPU_ALU] |398| 
        B         ||$C$L39||,NEQ        ; [CPU_ALU] |398| 
        ; branchcc occurs ; [] |398| 
	.dwpsn	file "C:/ti/ccs1260/ccs/tools/compiler/ti-cgt-c2000_22.6.1.LTS/include/_defs.h",line 400,column 9,is_stmt,isa 0
        MOVL      ACC,*-SP[2]           ; [CPU_ALU] |400| 
        ANDB      AH,#127               ; [CPU_ALU] |400| 
        TEST      ACC                   ; [CPU_ALU] |400| 
        B         ||$C$L38||,NEQ        ; [CPU_ALU] |400| 
        ; branchcc occurs ; [] |400| 
	.dwpsn	file "C:/ti/ccs1260/ccs/tools/compiler/ti-cgt-c2000_22.6.1.LTS/include/_defs.h",line 401,column 13,is_stmt,isa 0
        MOVB      AL,#1                 ; [CPU_ALU] |401| 
        B         ||$C$L42||,UNC        ; [CPU_ALU] |401| 
        ; branch occurs ; [] |401| 
||$C$L38||:    
	.dwpsn	file "C:/ti/ccs1260/ccs/tools/compiler/ti-cgt-c2000_22.6.1.LTS/include/_defs.h",line 402,column 14,is_stmt,isa 0
        MOVB      AL,#2                 ; [CPU_ALU] |402| 
        B         ||$C$L42||,UNC        ; [CPU_ALU] |402| 
        ; branch occurs ; [] |402| 
||$C$L39||:    
	.dwpsn	file "C:/ti/ccs1260/ccs/tools/compiler/ti-cgt-c2000_22.6.1.LTS/include/_defs.h",line 404,column 5,is_stmt,isa 0
        MOVL      ACC,*-SP[2]           ; [CPU_ALU] |404| 
        MOV       T,#23                 ; [CPU_ALU] |404| 
        LSRL      ACC,T                 ; [CPU_ALU] |404| 
        ANDB      AL,#0xff              ; [CPU_ALU] |404| 
        B         ||$C$L41||,NEQ        ; [CPU_ALU] |404| 
        ; branchcc occurs ; [] |404| 
	.dwpsn	file "C:/ti/ccs1260/ccs/tools/compiler/ti-cgt-c2000_22.6.1.LTS/include/_defs.h",line 406,column 9,is_stmt,isa 0
        MOVL      ACC,*-SP[2]           ; [CPU_ALU] |406| 
        ANDB      AH,#127               ; [CPU_ALU] |406| 
        TEST      ACC                   ; [CPU_ALU] |406| 
        B         ||$C$L40||,NEQ        ; [CPU_ALU] |406| 
        ; branchcc occurs ; [] |406| 
	.dwpsn	file "C:/ti/ccs1260/ccs/tools/compiler/ti-cgt-c2000_22.6.1.LTS/include/_defs.h",line 407,column 13,is_stmt,isa 0
        MOVB      AL,#0                 ; [CPU_ALU] |407| 
        B         ||$C$L42||,UNC        ; [CPU_ALU] |407| 
        ; branch occurs ; [] |407| 
||$C$L40||:    
	.dwpsn	file "C:/ti/ccs1260/ccs/tools/compiler/ti-cgt-c2000_22.6.1.LTS/include/_defs.h",line 408,column 14,is_stmt,isa 0
        MOV       AL,#-2                ; [CPU_ALU] |408| 
        B         ||$C$L42||,UNC        ; [CPU_ALU] |408| 
        ; branch occurs ; [] |408| 
||$C$L41||:    
	.dwpsn	file "C:/ti/ccs1260/ccs/tools/compiler/ti-cgt-c2000_22.6.1.LTS/include/_defs.h",line 410,column 5,is_stmt,isa 0
        MOV       AL,#-1                ; [CPU_ALU] |410| 
||$C$L42||:    
	.dwpsn	file "C:/ti/ccs1260/ccs/tools/compiler/ti-cgt-c2000_22.6.1.LTS/include/_defs.h",line 411,column 1,is_stmt,isa 0
        SUBB      SP,#2                 ; [CPU_ARAU] 
	.dwcfi	cfa_offset, -2
$C$DW$315	.dwtag  DW_TAG_TI_branch
	.dwattr $C$DW$315, DW_AT_low_pc(0x00)
	.dwattr $C$DW$315, DW_AT_TI_return

        LRETR     ; [CPU_ALU] 
        ; return occurs ; [] 
	.dwattr $C$DW$312, DW_AT_TI_end_file("C:/ti/ccs1260/ccs/tools/compiler/ti-cgt-c2000_22.6.1.LTS/include/_defs.h")
	.dwattr $C$DW$312, DW_AT_TI_end_line(0x19b)
	.dwattr $C$DW$312, DW_AT_TI_end_column(0x01)
	.dwendentry
	.dwendtag $C$DW$312

	.sect	".text:__fpclassify"
	.clink
	.global	||__fpclassify||

$C$DW$316	.dwtag  DW_TAG_subprogram
	.dwattr $C$DW$316, DW_AT_name("__fpclassify")
	.dwattr $C$DW$316, DW_AT_low_pc(||__fpclassify||)
	.dwattr $C$DW$316, DW_AT_high_pc(0x00)
	.dwattr $C$DW$316, DW_AT_linkage_name("__fpclassify")
	.dwattr $C$DW$316, DW_AT_external
	.dwattr $C$DW$316, DW_AT_type(*$C$DW$T$10)
	.dwattr $C$DW$316, DW_AT_decl_file("C:/ti/ccs1260/ccs/tools/compiler/ti-cgt-c2000_22.6.1.LTS/include/_defs.h")
	.dwattr $C$DW$316, DW_AT_decl_line(0x19d)
	.dwattr $C$DW$316, DW_AT_decl_column(0x18)
	.dwattr $C$DW$316, DW_AT_TI_max_frame_size(-10)
	.dwpsn	file "C:/ti/ccs1260/ccs/tools/compiler/ti-cgt-c2000_22.6.1.LTS/include/_defs.h",line 414,column 1,is_stmt,address ||__fpclassify||,isa 0

	.dwfde $C$DW$CIE, ||__fpclassify||
$C$DW$317	.dwtag  DW_TAG_formal_parameter
	.dwattr $C$DW$317, DW_AT_name("d")
	.dwattr $C$DW$317, DW_AT_type(*$C$DW$T$17)
	.dwattr $C$DW$317, DW_AT_location[DW_OP_regx 0x29]


;***************************************************************
;* FNAME: __fpclassify                  FR SIZE:   8           *
;*                                                             *
;* FUNCTION ENVIRONMENT                                        *
;*                                                             *
;* FUNCTION PROPERTIES                                         *
;*                            4 Parameter,  4 Auto,  0 SOE     *
;***************************************************************

||__fpclassify||:
	.dwcfi	cfa_offset, -2
	.dwcfi	save_reg_to_mem, 26, 0
        ADDB      SP,#8                 ; [CPU_ARAU] 
	.dwcfi	cfa_offset, -10
$C$DW$318	.dwtag  DW_TAG_variable
	.dwattr $C$DW$318, DW_AT_name("d")
	.dwattr $C$DW$318, DW_AT_type(*$C$DW$T$17)
	.dwattr $C$DW$318, DW_AT_location[DW_OP_breg20 -8]

        MOV32     *-SP[8],R0L           ; [CPU_FPU] |414| 
        MOV32     *-SP[6],R0H           ; [CPU_FPU] |414| 
	.dwpsn	file "C:/ti/ccs1260/ccs/tools/compiler/ti-cgt-c2000_22.6.1.LTS/include/_defs.h",line 415,column 5,is_stmt,isa 0
        MOV       T,#48                 ; [CPU_ALU] |415| 
        MOV32     P,R0L                 ; [CPU_FPU] |415| 
        MOV32     ACC,R0H               ; [CPU_FPU] |415| 
        LSR64     ACC:P,T               ; [CPU_ALU] |415| 
        AND       PL,#0x7ff0            ; [CPU_ALU] |415| 
        MOVZ      AR6,PL                ; [CPU_ALU] |415| 
        MOV       ACC,#32752            ; [CPU_ALU] |415| 
        CMPL      ACC,XAR6              ; [CPU_ALU] |415| 
        B         ||$C$L44||,NEQ        ; [CPU_ALU] |415| 
        ; branchcc occurs ; [] |415| 
	.dwpsn	file "C:/ti/ccs1260/ccs/tools/compiler/ti-cgt-c2000_22.6.1.LTS/include/_defs.h",line 417,column 9,is_stmt,isa 0
        MOVB      ACC,#0                ; [CPU_ALU] |417| 
        MOVL      *-SP[4],ACC           ; [CPU_ALU] |417| 
        MOV       *-SP[2],#0            ; [CPU_ALU] |417| 
        MOV       *-SP[1],#0            ; [CPU_ALU] |417| 
        MOV32     R0H,*-SP[6]           ; [CPU_FPU] |417| 
        MOV32     R0L,*-SP[8]           ; [CPU_FPU] |417| 
        NOP       ; [CPU_ALU] 
        MOV32     P,R0L                 ; [CPU_FPU] |417| 
        AND       PL,#65535             ; [CPU_ALU] |417| 
        AND       PH,#65535             ; [CPU_ALU] |417| 
        MOV32     ACC,R0H               ; [CPU_FPU] |417| 
        AND       AL,#65535             ; [CPU_ALU] |417| 
        ANDB      AH,#15                ; [CPU_ALU] |417| 
$C$DW$319	.dwtag  DW_TAG_TI_branch
	.dwattr $C$DW$319, DW_AT_low_pc(0x00)
	.dwattr $C$DW$319, DW_AT_name("__c28xabi_cmpull")
	.dwattr $C$DW$319, DW_AT_TI_call

        LCR       #||__c28xabi_cmpull|| ; [CPU_ALU] |417| 
        ; call occurs [#||__c28xabi_cmpull||] ; [] |417| 
        CMPB      AL,#0                 ; [CPU_ALU] |417| 
        B         ||$C$L43||,NEQ        ; [CPU_ALU] |417| 
        ; branchcc occurs ; [] |417| 
	.dwpsn	file "C:/ti/ccs1260/ccs/tools/compiler/ti-cgt-c2000_22.6.1.LTS/include/_defs.h",line 418,column 13,is_stmt,isa 0
        MOVB      AL,#1                 ; [CPU_ALU] |418| 
        B         ||$C$L47||,UNC        ; [CPU_ALU] |418| 
        ; branch occurs ; [] |418| 
||$C$L43||:    
	.dwpsn	file "C:/ti/ccs1260/ccs/tools/compiler/ti-cgt-c2000_22.6.1.LTS/include/_defs.h",line 419,column 14,is_stmt,isa 0
        MOVB      AL,#2                 ; [CPU_ALU] |419| 
        B         ||$C$L47||,UNC        ; [CPU_ALU] |419| 
        ; branch occurs ; [] |419| 
||$C$L44||:    
	.dwpsn	file "C:/ti/ccs1260/ccs/tools/compiler/ti-cgt-c2000_22.6.1.LTS/include/_defs.h",line 421,column 5,is_stmt,isa 0
        MOVB      ACC,#0                ; [CPU_ALU] |421| 
        MOVL      *-SP[4],ACC           ; [CPU_ALU] |421| 
        MOV       *-SP[2],#0            ; [CPU_ALU] |421| 
        MOV       *-SP[1],#0            ; [CPU_ALU] |421| 
        MOV32     R0H,*-SP[6]           ; [CPU_FPU] |421| 
        MOV32     R0L,*-SP[8]           ; [CPU_FPU] |421| 
        MOV       T,#52                 ; [CPU_ALU] |421| 
        MOV32     P,R0L                 ; [CPU_FPU] |421| 
        MOV32     ACC,R0H               ; [CPU_FPU] |421| 
        LSR64     ACC:P,T               ; [CPU_ALU] |421| 
        ANDB      AL,#0                 ; [CPU_ALU] |421| 
        ANDB      AH,#0                 ; [CPU_ALU] |421| 
        AND       PL,#2047              ; [CPU_ALU] |421| 
        AND       PH,#0                 ; [CPU_ALU] |421| 
$C$DW$320	.dwtag  DW_TAG_TI_branch
	.dwattr $C$DW$320, DW_AT_low_pc(0x00)
	.dwattr $C$DW$320, DW_AT_name("__c28xabi_cmpull")
	.dwattr $C$DW$320, DW_AT_TI_call

        LCR       #||__c28xabi_cmpull|| ; [CPU_ALU] |421| 
        ; call occurs [#||__c28xabi_cmpull||] ; [] |421| 
        CMPB      AL,#0                 ; [CPU_ALU] |421| 
        B         ||$C$L46||,NEQ        ; [CPU_ALU] |421| 
        ; branchcc occurs ; [] |421| 
	.dwpsn	file "C:/ti/ccs1260/ccs/tools/compiler/ti-cgt-c2000_22.6.1.LTS/include/_defs.h",line 423,column 9,is_stmt,isa 0
        MOVB      ACC,#0                ; [CPU_ALU] |423| 
        MOVL      *-SP[4],ACC           ; [CPU_ALU] |423| 
        MOV       *-SP[2],#0            ; [CPU_ALU] |423| 
        MOV       *-SP[1],#0            ; [CPU_ALU] |423| 
        MOV32     R0H,*-SP[6]           ; [CPU_FPU] |423| 
        MOV32     R0L,*-SP[8]           ; [CPU_FPU] |423| 
        NOP       ; [CPU_ALU] 
        MOV32     P,R0L                 ; [CPU_FPU] |423| 
        AND       PL,#65535             ; [CPU_ALU] |423| 
        AND       PH,#65535             ; [CPU_ALU] |423| 
        MOV32     ACC,R0H               ; [CPU_FPU] |423| 
        AND       AL,#65535             ; [CPU_ALU] |423| 
        ANDB      AH,#15                ; [CPU_ALU] |423| 
$C$DW$321	.dwtag  DW_TAG_TI_branch
	.dwattr $C$DW$321, DW_AT_low_pc(0x00)
	.dwattr $C$DW$321, DW_AT_name("__c28xabi_cmpull")
	.dwattr $C$DW$321, DW_AT_TI_call

        LCR       #||__c28xabi_cmpull|| ; [CPU_ALU] |423| 
        ; call occurs [#||__c28xabi_cmpull||] ; [] |423| 
        CMPB      AL,#0                 ; [CPU_ALU] |423| 
        B         ||$C$L45||,NEQ        ; [CPU_ALU] |423| 
        ; branchcc occurs ; [] |423| 
	.dwpsn	file "C:/ti/ccs1260/ccs/tools/compiler/ti-cgt-c2000_22.6.1.LTS/include/_defs.h",line 424,column 13,is_stmt,isa 0
        MOVB      AL,#0                 ; [CPU_ALU] |424| 
        B         ||$C$L47||,UNC        ; [CPU_ALU] |424| 
        ; branch occurs ; [] |424| 
||$C$L45||:    
	.dwpsn	file "C:/ti/ccs1260/ccs/tools/compiler/ti-cgt-c2000_22.6.1.LTS/include/_defs.h",line 425,column 14,is_stmt,isa 0
        MOV       AL,#-2                ; [CPU_ALU] |425| 
        B         ||$C$L47||,UNC        ; [CPU_ALU] |425| 
        ; branch occurs ; [] |425| 
||$C$L46||:    
	.dwpsn	file "C:/ti/ccs1260/ccs/tools/compiler/ti-cgt-c2000_22.6.1.LTS/include/_defs.h",line 427,column 5,is_stmt,isa 0
        MOV       AL,#-1                ; [CPU_ALU] |427| 
||$C$L47||:    
	.dwpsn	file "C:/ti/ccs1260/ccs/tools/compiler/ti-cgt-c2000_22.6.1.LTS/include/_defs.h",line 428,column 1,is_stmt,isa 0
        SUBB      SP,#8                 ; [CPU_ARAU] 
	.dwcfi	cfa_offset, -2
$C$DW$322	.dwtag  DW_TAG_TI_branch
	.dwattr $C$DW$322, DW_AT_low_pc(0x00)
	.dwattr $C$DW$322, DW_AT_TI_return

        LRETR     ; [CPU_ALU] 
        ; return occurs ; [] 
	.dwattr $C$DW$316, DW_AT_TI_end_file("C:/ti/ccs1260/ccs/tools/compiler/ti-cgt-c2000_22.6.1.LTS/include/_defs.h")
	.dwattr $C$DW$316, DW_AT_TI_end_line(0x1ac)
	.dwattr $C$DW$316, DW_AT_TI_end_column(0x01)
	.dwendentry
	.dwendtag $C$DW$316

	.sect	".text:__fpclassifyl"
	.clink
	.global	||__fpclassifyl||

$C$DW$323	.dwtag  DW_TAG_subprogram
	.dwattr $C$DW$323, DW_AT_name("__fpclassifyl")
	.dwattr $C$DW$323, DW_AT_low_pc(||__fpclassifyl||)
	.dwattr $C$DW$323, DW_AT_high_pc(0x00)
	.dwattr $C$DW$323, DW_AT_linkage_name("__fpclassifyl")
	.dwattr $C$DW$323, DW_AT_external
	.dwattr $C$DW$323, DW_AT_type(*$C$DW$T$10)
	.dwattr $C$DW$323, DW_AT_decl_file("C:/ti/ccs1260/ccs/tools/compiler/ti-cgt-c2000_22.6.1.LTS/include/_defs.h")
	.dwattr $C$DW$323, DW_AT_decl_line(0x1ae)
	.dwattr $C$DW$323, DW_AT_decl_column(0x18)
	.dwattr $C$DW$323, DW_AT_TI_max_frame_size(-10)
	.dwpsn	file "C:/ti/ccs1260/ccs/tools/compiler/ti-cgt-c2000_22.6.1.LTS/include/_defs.h",line 431,column 1,is_stmt,address ||__fpclassifyl||,isa 0

	.dwfde $C$DW$CIE, ||__fpclassifyl||
$C$DW$324	.dwtag  DW_TAG_formal_parameter
	.dwattr $C$DW$324, DW_AT_name("e")
	.dwattr $C$DW$324, DW_AT_type(*$C$DW$T$18)
	.dwattr $C$DW$324, DW_AT_location[DW_OP_regx 0x29]


;***************************************************************
;* FNAME: __fpclassifyl                 FR SIZE:   8           *
;*                                                             *
;* FUNCTION ENVIRONMENT                                        *
;*                                                             *
;* FUNCTION PROPERTIES                                         *
;*                            4 Parameter,  4 Auto,  0 SOE     *
;***************************************************************

||__fpclassifyl||:
	.dwcfi	cfa_offset, -2
	.dwcfi	save_reg_to_mem, 26, 0
        ADDB      SP,#8                 ; [CPU_ARAU] 
	.dwcfi	cfa_offset, -10
$C$DW$325	.dwtag  DW_TAG_variable
	.dwattr $C$DW$325, DW_AT_name("e")
	.dwattr $C$DW$325, DW_AT_type(*$C$DW$T$18)
	.dwattr $C$DW$325, DW_AT_location[DW_OP_breg20 -8]

        MOV32     *-SP[8],R0L           ; [CPU_FPU] |431| 
        MOV32     *-SP[6],R0H           ; [CPU_FPU] |431| 
	.dwpsn	file "C:/ti/ccs1260/ccs/tools/compiler/ti-cgt-c2000_22.6.1.LTS/include/_defs.h",line 432,column 5,is_stmt,isa 0
        MOV       T,#48                 ; [CPU_ALU] |432| 
        MOV32     P,R0L                 ; [CPU_FPU] |432| 
        MOV32     ACC,R0H               ; [CPU_FPU] |432| 
        LSR64     ACC:P,T               ; [CPU_ALU] |432| 
        AND       PL,#0x7ff0            ; [CPU_ALU] |432| 
        MOVZ      AR6,PL                ; [CPU_ALU] |432| 
        MOV       ACC,#32752            ; [CPU_ALU] |432| 
        CMPL      ACC,XAR6              ; [CPU_ALU] |432| 
        B         ||$C$L49||,NEQ        ; [CPU_ALU] |432| 
        ; branchcc occurs ; [] |432| 
	.dwpsn	file "C:/ti/ccs1260/ccs/tools/compiler/ti-cgt-c2000_22.6.1.LTS/include/_defs.h",line 434,column 9,is_stmt,isa 0
        MOVB      ACC,#0                ; [CPU_ALU] |434| 
        MOVL      *-SP[4],ACC           ; [CPU_ALU] |434| 
        MOV       *-SP[2],#0            ; [CPU_ALU] |434| 
        MOV       *-SP[1],#0            ; [CPU_ALU] |434| 
        MOV32     R0H,*-SP[6]           ; [CPU_FPU] |434| 
        MOV32     R0L,*-SP[8]           ; [CPU_FPU] |434| 
        NOP       ; [CPU_ALU] 
        MOV32     P,R0L                 ; [CPU_FPU] |434| 
        AND       PL,#65535             ; [CPU_ALU] |434| 
        AND       PH,#65535             ; [CPU_ALU] |434| 
        MOV32     ACC,R0H               ; [CPU_FPU] |434| 
        AND       AL,#65535             ; [CPU_ALU] |434| 
        ANDB      AH,#15                ; [CPU_ALU] |434| 
$C$DW$326	.dwtag  DW_TAG_TI_branch
	.dwattr $C$DW$326, DW_AT_low_pc(0x00)
	.dwattr $C$DW$326, DW_AT_name("__c28xabi_cmpull")
	.dwattr $C$DW$326, DW_AT_TI_call

        LCR       #||__c28xabi_cmpull|| ; [CPU_ALU] |434| 
        ; call occurs [#||__c28xabi_cmpull||] ; [] |434| 
        CMPB      AL,#0                 ; [CPU_ALU] |434| 
        B         ||$C$L48||,NEQ        ; [CPU_ALU] |434| 
        ; branchcc occurs ; [] |434| 
	.dwpsn	file "C:/ti/ccs1260/ccs/tools/compiler/ti-cgt-c2000_22.6.1.LTS/include/_defs.h",line 435,column 13,is_stmt,isa 0
        MOVB      AL,#1                 ; [CPU_ALU] |435| 
        B         ||$C$L52||,UNC        ; [CPU_ALU] |435| 
        ; branch occurs ; [] |435| 
||$C$L48||:    
	.dwpsn	file "C:/ti/ccs1260/ccs/tools/compiler/ti-cgt-c2000_22.6.1.LTS/include/_defs.h",line 436,column 14,is_stmt,isa 0
        MOVB      AL,#2                 ; [CPU_ALU] |436| 
        B         ||$C$L52||,UNC        ; [CPU_ALU] |436| 
        ; branch occurs ; [] |436| 
||$C$L49||:    
	.dwpsn	file "C:/ti/ccs1260/ccs/tools/compiler/ti-cgt-c2000_22.6.1.LTS/include/_defs.h",line 438,column 5,is_stmt,isa 0
        MOVB      ACC,#0                ; [CPU_ALU] |438| 
        MOVL      *-SP[4],ACC           ; [CPU_ALU] |438| 
        MOV       *-SP[2],#0            ; [CPU_ALU] |438| 
        MOV       *-SP[1],#0            ; [CPU_ALU] |438| 
        MOV32     R0H,*-SP[6]           ; [CPU_FPU] |438| 
        MOV32     R0L,*-SP[8]           ; [CPU_FPU] |438| 
        MOV       T,#52                 ; [CPU_ALU] |438| 
        MOV32     P,R0L                 ; [CPU_FPU] |438| 
        MOV32     ACC,R0H               ; [CPU_FPU] |438| 
        LSR64     ACC:P,T               ; [CPU_ALU] |438| 
        ANDB      AL,#0                 ; [CPU_ALU] |438| 
        ANDB      AH,#0                 ; [CPU_ALU] |438| 
        AND       PL,#2047              ; [CPU_ALU] |438| 
        AND       PH,#0                 ; [CPU_ALU] |438| 
$C$DW$327	.dwtag  DW_TAG_TI_branch
	.dwattr $C$DW$327, DW_AT_low_pc(0x00)
	.dwattr $C$DW$327, DW_AT_name("__c28xabi_cmpull")
	.dwattr $C$DW$327, DW_AT_TI_call

        LCR       #||__c28xabi_cmpull|| ; [CPU_ALU] |438| 
        ; call occurs [#||__c28xabi_cmpull||] ; [] |438| 
        CMPB      AL,#0                 ; [CPU_ALU] |438| 
        B         ||$C$L51||,NEQ        ; [CPU_ALU] |438| 
        ; branchcc occurs ; [] |438| 
	.dwpsn	file "C:/ti/ccs1260/ccs/tools/compiler/ti-cgt-c2000_22.6.1.LTS/include/_defs.h",line 440,column 9,is_stmt,isa 0
        MOVB      ACC,#0                ; [CPU_ALU] |440| 
        MOVL      *-SP[4],ACC           ; [CPU_ALU] |440| 
        MOV       *-SP[2],#0            ; [CPU_ALU] |440| 
        MOV       *-SP[1],#0            ; [CPU_ALU] |440| 
        MOV32     R0H,*-SP[6]           ; [CPU_FPU] |440| 
        MOV32     R0L,*-SP[8]           ; [CPU_FPU] |440| 
        NOP       ; [CPU_ALU] 
        MOV32     P,R0L                 ; [CPU_FPU] |440| 
        AND       PL,#65535             ; [CPU_ALU] |440| 
        AND       PH,#65535             ; [CPU_ALU] |440| 
        MOV32     ACC,R0H               ; [CPU_FPU] |440| 
        AND       AL,#65535             ; [CPU_ALU] |440| 
        ANDB      AH,#15                ; [CPU_ALU] |440| 
$C$DW$328	.dwtag  DW_TAG_TI_branch
	.dwattr $C$DW$328, DW_AT_low_pc(0x00)
	.dwattr $C$DW$328, DW_AT_name("__c28xabi_cmpull")
	.dwattr $C$DW$328, DW_AT_TI_call

        LCR       #||__c28xabi_cmpull|| ; [CPU_ALU] |440| 
        ; call occurs [#||__c28xabi_cmpull||] ; [] |440| 
        CMPB      AL,#0                 ; [CPU_ALU] |440| 
        B         ||$C$L50||,NEQ        ; [CPU_ALU] |440| 
        ; branchcc occurs ; [] |440| 
	.dwpsn	file "C:/ti/ccs1260/ccs/tools/compiler/ti-cgt-c2000_22.6.1.LTS/include/_defs.h",line 441,column 13,is_stmt,isa 0
        MOVB      AL,#0                 ; [CPU_ALU] |441| 
        B         ||$C$L52||,UNC        ; [CPU_ALU] |441| 
        ; branch occurs ; [] |441| 
||$C$L50||:    
	.dwpsn	file "C:/ti/ccs1260/ccs/tools/compiler/ti-cgt-c2000_22.6.1.LTS/include/_defs.h",line 442,column 14,is_stmt,isa 0
        MOV       AL,#-2                ; [CPU_ALU] |442| 
        B         ||$C$L52||,UNC        ; [CPU_ALU] |442| 
        ; branch occurs ; [] |442| 
||$C$L51||:    
	.dwpsn	file "C:/ti/ccs1260/ccs/tools/compiler/ti-cgt-c2000_22.6.1.LTS/include/_defs.h",line 444,column 5,is_stmt,isa 0
        MOV       AL,#-1                ; [CPU_ALU] |444| 
||$C$L52||:    
	.dwpsn	file "C:/ti/ccs1260/ccs/tools/compiler/ti-cgt-c2000_22.6.1.LTS/include/_defs.h",line 445,column 1,is_stmt,isa 0
        SUBB      SP,#8                 ; [CPU_ARAU] 
	.dwcfi	cfa_offset, -2
$C$DW$329	.dwtag  DW_TAG_TI_branch
	.dwattr $C$DW$329, DW_AT_low_pc(0x00)
	.dwattr $C$DW$329, DW_AT_TI_return

        LRETR     ; [CPU_ALU] 
        ; return occurs ; [] 
	.dwattr $C$DW$323, DW_AT_TI_end_file("C:/ti/ccs1260/ccs/tools/compiler/ti-cgt-c2000_22.6.1.LTS/include/_defs.h")
	.dwattr $C$DW$323, DW_AT_TI_end_line(0x1bd)
	.dwattr $C$DW$323, DW_AT_TI_end_column(0x01)
	.dwendentry
	.dwendtag $C$DW$323

	.sect	".text:__relaxed_fmaxf"
	.clink
	.global	||__relaxed_fmaxf||

$C$DW$330	.dwtag  DW_TAG_subprogram
	.dwattr $C$DW$330, DW_AT_name("__relaxed_fmaxf")
	.dwattr $C$DW$330, DW_AT_low_pc(||__relaxed_fmaxf||)
	.dwattr $C$DW$330, DW_AT_high_pc(0x00)
	.dwattr $C$DW$330, DW_AT_linkage_name("__relaxed_fmaxf")
	.dwattr $C$DW$330, DW_AT_external
	.dwattr $C$DW$330, DW_AT_type(*$C$DW$T$16)
	.dwattr $C$DW$330, DW_AT_decl_file("C:/ti/ccs1260/ccs/tools/compiler/ti-cgt-c2000_22.6.1.LTS/include/math.h")
	.dwattr $C$DW$330, DW_AT_decl_line(0xe8)
	.dwattr $C$DW$330, DW_AT_decl_column(0x10)
	.dwattr $C$DW$330, DW_AT_TI_max_frame_size(-6)
	.dwpsn	file "C:/ti/ccs1260/ccs/tools/compiler/ti-cgt-c2000_22.6.1.LTS/include/math.h",line 233,column 1,is_stmt,address ||__relaxed_fmaxf||,isa 0

	.dwfde $C$DW$CIE, ||__relaxed_fmaxf||
$C$DW$331	.dwtag  DW_TAG_formal_parameter
	.dwattr $C$DW$331, DW_AT_name("x")
	.dwattr $C$DW$331, DW_AT_type(*$C$DW$T$16)
	.dwattr $C$DW$331, DW_AT_location[DW_OP_regx 0x2b]

$C$DW$332	.dwtag  DW_TAG_formal_parameter
	.dwattr $C$DW$332, DW_AT_name("y")
	.dwattr $C$DW$332, DW_AT_type(*$C$DW$T$16)
	.dwattr $C$DW$332, DW_AT_location[DW_OP_regx 0x2f]


;***************************************************************
;* FNAME: __relaxed_fmaxf               FR SIZE:   4           *
;*                                                             *
;* FUNCTION ENVIRONMENT                                        *
;*                                                             *
;* FUNCTION PROPERTIES                                         *
;*                            0 Parameter,  4 Auto,  0 SOE     *
;***************************************************************

||__relaxed_fmaxf||:
	.dwcfi	cfa_offset, -2
	.dwcfi	save_reg_to_mem, 26, 0
        ADDB      SP,#4                 ; [CPU_ARAU] 
	.dwcfi	cfa_offset, -6
$C$DW$333	.dwtag  DW_TAG_variable
	.dwattr $C$DW$333, DW_AT_name("x")
	.dwattr $C$DW$333, DW_AT_type(*$C$DW$T$16)
	.dwattr $C$DW$333, DW_AT_location[DW_OP_breg20 -2]

$C$DW$334	.dwtag  DW_TAG_variable
	.dwattr $C$DW$334, DW_AT_name("y")
	.dwattr $C$DW$334, DW_AT_type(*$C$DW$T$16)
	.dwattr $C$DW$334, DW_AT_location[DW_OP_breg20 -4]

        MOV32     *-SP[4],R1H           ; [CPU_FPU] |233| 
        MOV32     *-SP[2],R0H           ; [CPU_FPU] |233| 
	.dwpsn	file "C:/ti/ccs1260/ccs/tools/compiler/ti-cgt-c2000_22.6.1.LTS/include/math.h",line 234,column 5,is_stmt,isa 0
        MAXF32    R0H,R1H               ; [CPU_FPU] |234| 
	.dwpsn	file "C:/ti/ccs1260/ccs/tools/compiler/ti-cgt-c2000_22.6.1.LTS/include/math.h",line 235,column 1,is_stmt,isa 0
        SUBB      SP,#4                 ; [CPU_ARAU] 
	.dwcfi	cfa_offset, -2
$C$DW$335	.dwtag  DW_TAG_TI_branch
	.dwattr $C$DW$335, DW_AT_low_pc(0x00)
	.dwattr $C$DW$335, DW_AT_TI_return

        LRETR     ; [CPU_ALU] 
        ; return occurs ; [] 
	.dwattr $C$DW$330, DW_AT_TI_end_file("C:/ti/ccs1260/ccs/tools/compiler/ti-cgt-c2000_22.6.1.LTS/include/math.h")
	.dwattr $C$DW$330, DW_AT_TI_end_line(0xeb)
	.dwattr $C$DW$330, DW_AT_TI_end_column(0x01)
	.dwendentry
	.dwendtag $C$DW$330

	.sect	".text:__relaxed_fminf"
	.clink
	.global	||__relaxed_fminf||

$C$DW$336	.dwtag  DW_TAG_subprogram
	.dwattr $C$DW$336, DW_AT_name("__relaxed_fminf")
	.dwattr $C$DW$336, DW_AT_low_pc(||__relaxed_fminf||)
	.dwattr $C$DW$336, DW_AT_high_pc(0x00)
	.dwattr $C$DW$336, DW_AT_linkage_name("__relaxed_fminf")
	.dwattr $C$DW$336, DW_AT_external
	.dwattr $C$DW$336, DW_AT_type(*$C$DW$T$16)
	.dwattr $C$DW$336, DW_AT_decl_file("C:/ti/ccs1260/ccs/tools/compiler/ti-cgt-c2000_22.6.1.LTS/include/math.h")
	.dwattr $C$DW$336, DW_AT_decl_line(0xee)
	.dwattr $C$DW$336, DW_AT_decl_column(0x10)
	.dwattr $C$DW$336, DW_AT_TI_max_frame_size(-6)
	.dwpsn	file "C:/ti/ccs1260/ccs/tools/compiler/ti-cgt-c2000_22.6.1.LTS/include/math.h",line 239,column 1,is_stmt,address ||__relaxed_fminf||,isa 0

	.dwfde $C$DW$CIE, ||__relaxed_fminf||
$C$DW$337	.dwtag  DW_TAG_formal_parameter
	.dwattr $C$DW$337, DW_AT_name("x")
	.dwattr $C$DW$337, DW_AT_type(*$C$DW$T$16)
	.dwattr $C$DW$337, DW_AT_location[DW_OP_regx 0x2b]

$C$DW$338	.dwtag  DW_TAG_formal_parameter
	.dwattr $C$DW$338, DW_AT_name("y")
	.dwattr $C$DW$338, DW_AT_type(*$C$DW$T$16)
	.dwattr $C$DW$338, DW_AT_location[DW_OP_regx 0x2f]


;***************************************************************
;* FNAME: __relaxed_fminf               FR SIZE:   4           *
;*                                                             *
;* FUNCTION ENVIRONMENT                                        *
;*                                                             *
;* FUNCTION PROPERTIES                                         *
;*                            0 Parameter,  4 Auto,  0 SOE     *
;***************************************************************

||__relaxed_fminf||:
	.dwcfi	cfa_offset, -2
	.dwcfi	save_reg_to_mem, 26, 0
        ADDB      SP,#4                 ; [CPU_ARAU] 
	.dwcfi	cfa_offset, -6
$C$DW$339	.dwtag  DW_TAG_variable
	.dwattr $C$DW$339, DW_AT_name("x")
	.dwattr $C$DW$339, DW_AT_type(*$C$DW$T$16)
	.dwattr $C$DW$339, DW_AT_location[DW_OP_breg20 -2]

$C$DW$340	.dwtag  DW_TAG_variable
	.dwattr $C$DW$340, DW_AT_name("y")
	.dwattr $C$DW$340, DW_AT_type(*$C$DW$T$16)
	.dwattr $C$DW$340, DW_AT_location[DW_OP_breg20 -4]

        MOV32     *-SP[4],R1H           ; [CPU_FPU] |239| 
        MOV32     *-SP[2],R0H           ; [CPU_FPU] |239| 
	.dwpsn	file "C:/ti/ccs1260/ccs/tools/compiler/ti-cgt-c2000_22.6.1.LTS/include/math.h",line 240,column 5,is_stmt,isa 0
        MINF32    R0H,R1H               ; [CPU_FPU] |240| 
	.dwpsn	file "C:/ti/ccs1260/ccs/tools/compiler/ti-cgt-c2000_22.6.1.LTS/include/math.h",line 241,column 1,is_stmt,isa 0
        SUBB      SP,#4                 ; [CPU_ARAU] 
	.dwcfi	cfa_offset, -2
$C$DW$341	.dwtag  DW_TAG_TI_branch
	.dwattr $C$DW$341, DW_AT_low_pc(0x00)
	.dwattr $C$DW$341, DW_AT_TI_return

        LRETR     ; [CPU_ALU] 
        ; return occurs ; [] 
	.dwattr $C$DW$336, DW_AT_TI_end_file("C:/ti/ccs1260/ccs/tools/compiler/ti-cgt-c2000_22.6.1.LTS/include/math.h")
	.dwattr $C$DW$336, DW_AT_TI_end_line(0xf1)
	.dwattr $C$DW$336, DW_AT_TI_end_column(0x01)
	.dwendentry
	.dwendtag $C$DW$336

	.sect	".text:__relaxed_sqrtf"
	.clink
	.global	||__relaxed_sqrtf||

$C$DW$342	.dwtag  DW_TAG_subprogram
	.dwattr $C$DW$342, DW_AT_name("__relaxed_sqrtf")
	.dwattr $C$DW$342, DW_AT_low_pc(||__relaxed_sqrtf||)
	.dwattr $C$DW$342, DW_AT_high_pc(0x00)
	.dwattr $C$DW$342, DW_AT_linkage_name("__relaxed_sqrtf")
	.dwattr $C$DW$342, DW_AT_external
	.dwattr $C$DW$342, DW_AT_type(*$C$DW$T$16)
	.dwattr $C$DW$342, DW_AT_decl_file("C:/ti/ccs1260/ccs/tools/compiler/ti-cgt-c2000_22.6.1.LTS/include/math.h")
	.dwattr $C$DW$342, DW_AT_decl_line(0x103)
	.dwattr $C$DW$342, DW_AT_decl_column(0x10)
	.dwattr $C$DW$342, DW_AT_TI_max_frame_size(-4)
	.dwpsn	file "C:/ti/ccs1260/ccs/tools/compiler/ti-cgt-c2000_22.6.1.LTS/include/math.h",line 260,column 1,is_stmt,address ||__relaxed_sqrtf||,isa 0

	.dwfde $C$DW$CIE, ||__relaxed_sqrtf||
$C$DW$343	.dwtag  DW_TAG_formal_parameter
	.dwattr $C$DW$343, DW_AT_name("x")
	.dwattr $C$DW$343, DW_AT_type(*$C$DW$T$16)
	.dwattr $C$DW$343, DW_AT_location[DW_OP_regx 0x2b]


;***************************************************************
;* FNAME: __relaxed_sqrtf               FR SIZE:   2           *
;*                                                             *
;* FUNCTION ENVIRONMENT                                        *
;*                                                             *
;* FUNCTION PROPERTIES                                         *
;*                            0 Parameter,  2 Auto,  0 SOE     *
;***************************************************************

||__relaxed_sqrtf||:
	.dwcfi	cfa_offset, -2
	.dwcfi	save_reg_to_mem, 26, 0
        ADDB      SP,#2                 ; [CPU_ARAU] 
	.dwcfi	cfa_offset, -4
$C$DW$344	.dwtag  DW_TAG_variable
	.dwattr $C$DW$344, DW_AT_name("x")
	.dwattr $C$DW$344, DW_AT_type(*$C$DW$T$16)
	.dwattr $C$DW$344, DW_AT_location[DW_OP_breg20 -2]

        MOV32     *-SP[2],R0H           ; [CPU_FPU] |260| 
	.dwpsn	file "C:/ti/ccs1260/ccs/tools/compiler/ti-cgt-c2000_22.6.1.LTS/include/math.h",line 261,column 5,is_stmt,isa 0
        SQRTF32   R0H,R0H               ; [CPU_FPU] |261| 
        NOP       ; [CPU_ALU] 
        NOP       ; [CPU_ALU] 
	.dwpsn	file "C:/ti/ccs1260/ccs/tools/compiler/ti-cgt-c2000_22.6.1.LTS/include/math.h",line 262,column 1,is_stmt,isa 0
        SUBB      SP,#2                 ; [CPU_ARAU] 
	.dwcfi	cfa_offset, -2
$C$DW$345	.dwtag  DW_TAG_TI_branch
	.dwattr $C$DW$345, DW_AT_low_pc(0x00)
	.dwattr $C$DW$345, DW_AT_TI_return

        LRETR     ; [CPU_ALU] 
        ; return occurs ; [] 
	.dwattr $C$DW$342, DW_AT_TI_end_file("C:/ti/ccs1260/ccs/tools/compiler/ti-cgt-c2000_22.6.1.LTS/include/math.h")
	.dwattr $C$DW$342, DW_AT_TI_end_line(0x106)
	.dwattr $C$DW$342, DW_AT_TI_end_column(0x01)
	.dwendentry
	.dwendtag $C$DW$342

	.sect	".text:__relaxed_sinf"
	.clink
	.global	||__relaxed_sinf||

$C$DW$346	.dwtag  DW_TAG_subprogram
	.dwattr $C$DW$346, DW_AT_name("__relaxed_sinf")
	.dwattr $C$DW$346, DW_AT_low_pc(||__relaxed_sinf||)
	.dwattr $C$DW$346, DW_AT_high_pc(0x00)
	.dwattr $C$DW$346, DW_AT_linkage_name("__relaxed_sinf")
	.dwattr $C$DW$346, DW_AT_external
	.dwattr $C$DW$346, DW_AT_type(*$C$DW$T$16)
	.dwattr $C$DW$346, DW_AT_decl_file("C:/ti/ccs1260/ccs/tools/compiler/ti-cgt-c2000_22.6.1.LTS/include/math.h")
	.dwattr $C$DW$346, DW_AT_decl_line(0x108)
	.dwattr $C$DW$346, DW_AT_decl_column(0x10)
	.dwattr $C$DW$346, DW_AT_TI_max_frame_size(-4)
	.dwpsn	file "C:/ti/ccs1260/ccs/tools/compiler/ti-cgt-c2000_22.6.1.LTS/include/math.h",line 265,column 1,is_stmt,address ||__relaxed_sinf||,isa 0

	.dwfde $C$DW$CIE, ||__relaxed_sinf||
$C$DW$347	.dwtag  DW_TAG_formal_parameter
	.dwattr $C$DW$347, DW_AT_name("x")
	.dwattr $C$DW$347, DW_AT_type(*$C$DW$T$16)
	.dwattr $C$DW$347, DW_AT_location[DW_OP_regx 0x2b]


;***************************************************************
;* FNAME: __relaxed_sinf                FR SIZE:   2           *
;*                                                             *
;* FUNCTION ENVIRONMENT                                        *
;*                                                             *
;* FUNCTION PROPERTIES                                         *
;*                            0 Parameter,  2 Auto,  0 SOE     *
;***************************************************************

||__relaxed_sinf||:
	.dwcfi	cfa_offset, -2
	.dwcfi	save_reg_to_mem, 26, 0
        ADDB      SP,#2                 ; [CPU_ARAU] 
	.dwcfi	cfa_offset, -4
$C$DW$348	.dwtag  DW_TAG_variable
	.dwattr $C$DW$348, DW_AT_name("x")
	.dwattr $C$DW$348, DW_AT_type(*$C$DW$T$16)
	.dwattr $C$DW$348, DW_AT_location[DW_OP_breg20 -2]

        MOV32     *-SP[2],R0H           ; [CPU_FPU] |265| 
	.dwpsn	file "C:/ti/ccs1260/ccs/tools/compiler/ti-cgt-c2000_22.6.1.LTS/include/math.h",line 266,column 5,is_stmt,isa 0
        DIV2PIF32 R0H,R0H               ; [CPU_FPU] |266| 
        NOP       ; [CPU_ALU] 
        SINPUF32  R0H,R0H               ; [CPU_FPU] |266| 
        NOP       ; [CPU_ALU] 
	.dwpsn	file "C:/ti/ccs1260/ccs/tools/compiler/ti-cgt-c2000_22.6.1.LTS/include/math.h",line 267,column 1,is_stmt,isa 0
        SUBB      SP,#2                 ; [CPU_ARAU] 
	.dwcfi	cfa_offset, -2
$C$DW$349	.dwtag  DW_TAG_TI_branch
	.dwattr $C$DW$349, DW_AT_low_pc(0x00)
	.dwattr $C$DW$349, DW_AT_TI_return

        LRETR     ; [CPU_ALU] 
        ; return occurs ; [] 
	.dwattr $C$DW$346, DW_AT_TI_end_file("C:/ti/ccs1260/ccs/tools/compiler/ti-cgt-c2000_22.6.1.LTS/include/math.h")
	.dwattr $C$DW$346, DW_AT_TI_end_line(0x10b)
	.dwattr $C$DW$346, DW_AT_TI_end_column(0x01)
	.dwendentry
	.dwendtag $C$DW$346

	.sect	".text:__relaxed_cosf"
	.clink
	.global	||__relaxed_cosf||

$C$DW$350	.dwtag  DW_TAG_subprogram
	.dwattr $C$DW$350, DW_AT_name("__relaxed_cosf")
	.dwattr $C$DW$350, DW_AT_low_pc(||__relaxed_cosf||)
	.dwattr $C$DW$350, DW_AT_high_pc(0x00)
	.dwattr $C$DW$350, DW_AT_linkage_name("__relaxed_cosf")
	.dwattr $C$DW$350, DW_AT_external
	.dwattr $C$DW$350, DW_AT_type(*$C$DW$T$16)
	.dwattr $C$DW$350, DW_AT_decl_file("C:/ti/ccs1260/ccs/tools/compiler/ti-cgt-c2000_22.6.1.LTS/include/math.h")
	.dwattr $C$DW$350, DW_AT_decl_line(0x10d)
	.dwattr $C$DW$350, DW_AT_decl_column(0x10)
	.dwattr $C$DW$350, DW_AT_TI_max_frame_size(-4)
	.dwpsn	file "C:/ti/ccs1260/ccs/tools/compiler/ti-cgt-c2000_22.6.1.LTS/include/math.h",line 270,column 1,is_stmt,address ||__relaxed_cosf||,isa 0

	.dwfde $C$DW$CIE, ||__relaxed_cosf||
$C$DW$351	.dwtag  DW_TAG_formal_parameter
	.dwattr $C$DW$351, DW_AT_name("x")
	.dwattr $C$DW$351, DW_AT_type(*$C$DW$T$16)
	.dwattr $C$DW$351, DW_AT_location[DW_OP_regx 0x2b]


;***************************************************************
;* FNAME: __relaxed_cosf                FR SIZE:   2           *
;*                                                             *
;* FUNCTION ENVIRONMENT                                        *
;*                                                             *
;* FUNCTION PROPERTIES                                         *
;*                            0 Parameter,  2 Auto,  0 SOE     *
;***************************************************************

||__relaxed_cosf||:
	.dwcfi	cfa_offset, -2
	.dwcfi	save_reg_to_mem, 26, 0
        ADDB      SP,#2                 ; [CPU_ARAU] 
	.dwcfi	cfa_offset, -4
$C$DW$352	.dwtag  DW_TAG_variable
	.dwattr $C$DW$352, DW_AT_name("x")
	.dwattr $C$DW$352, DW_AT_type(*$C$DW$T$16)
	.dwattr $C$DW$352, DW_AT_location[DW_OP_breg20 -2]

        MOV32     *-SP[2],R0H           ; [CPU_FPU] |270| 
	.dwpsn	file "C:/ti/ccs1260/ccs/tools/compiler/ti-cgt-c2000_22.6.1.LTS/include/math.h",line 271,column 5,is_stmt,isa 0
        DIV2PIF32 R0H,R0H               ; [CPU_FPU] |271| 
        NOP       ; [CPU_ALU] 
        COSPUF32  R0H,R0H               ; [CPU_FPU] |271| 
        NOP       ; [CPU_ALU] 
	.dwpsn	file "C:/ti/ccs1260/ccs/tools/compiler/ti-cgt-c2000_22.6.1.LTS/include/math.h",line 272,column 1,is_stmt,isa 0
        SUBB      SP,#2                 ; [CPU_ARAU] 
	.dwcfi	cfa_offset, -2
$C$DW$353	.dwtag  DW_TAG_TI_branch
	.dwattr $C$DW$353, DW_AT_low_pc(0x00)
	.dwattr $C$DW$353, DW_AT_TI_return

        LRETR     ; [CPU_ALU] 
        ; return occurs ; [] 
	.dwattr $C$DW$350, DW_AT_TI_end_file("C:/ti/ccs1260/ccs/tools/compiler/ti-cgt-c2000_22.6.1.LTS/include/math.h")
	.dwattr $C$DW$350, DW_AT_TI_end_line(0x110)
	.dwattr $C$DW$350, DW_AT_TI_end_column(0x01)
	.dwendentry
	.dwendtag $C$DW$350

	.sect	".text:__relaxed_atanf"
	.clink
	.global	||__relaxed_atanf||

$C$DW$354	.dwtag  DW_TAG_subprogram
	.dwattr $C$DW$354, DW_AT_name("__relaxed_atanf")
	.dwattr $C$DW$354, DW_AT_low_pc(||__relaxed_atanf||)
	.dwattr $C$DW$354, DW_AT_high_pc(0x00)
	.dwattr $C$DW$354, DW_AT_linkage_name("__relaxed_atanf")
	.dwattr $C$DW$354, DW_AT_external
	.dwattr $C$DW$354, DW_AT_type(*$C$DW$T$16)
	.dwattr $C$DW$354, DW_AT_decl_file("C:/ti/ccs1260/ccs/tools/compiler/ti-cgt-c2000_22.6.1.LTS/include/math.h")
	.dwattr $C$DW$354, DW_AT_decl_line(0x112)
	.dwattr $C$DW$354, DW_AT_decl_column(0x10)
	.dwattr $C$DW$354, DW_AT_TI_max_frame_size(-4)
	.dwpsn	file "C:/ti/ccs1260/ccs/tools/compiler/ti-cgt-c2000_22.6.1.LTS/include/math.h",line 275,column 1,is_stmt,address ||__relaxed_atanf||,isa 0

	.dwfde $C$DW$CIE, ||__relaxed_atanf||
$C$DW$355	.dwtag  DW_TAG_formal_parameter
	.dwattr $C$DW$355, DW_AT_name("x")
	.dwattr $C$DW$355, DW_AT_type(*$C$DW$T$16)
	.dwattr $C$DW$355, DW_AT_location[DW_OP_regx 0x2b]


;***************************************************************
;* FNAME: __relaxed_atanf               FR SIZE:   2           *
;*                                                             *
;* FUNCTION ENVIRONMENT                                        *
;*                                                             *
;* FUNCTION PROPERTIES                                         *
;*                            0 Parameter,  2 Auto,  0 SOE     *
;***************************************************************

||__relaxed_atanf||:
	.dwcfi	cfa_offset, -2
	.dwcfi	save_reg_to_mem, 26, 0
        ADDB      SP,#2                 ; [CPU_ARAU] 
	.dwcfi	cfa_offset, -4
$C$DW$356	.dwtag  DW_TAG_variable
	.dwattr $C$DW$356, DW_AT_name("x")
	.dwattr $C$DW$356, DW_AT_type(*$C$DW$T$16)
	.dwattr $C$DW$356, DW_AT_location[DW_OP_breg20 -2]

        MOV32     *-SP[2],R0H           ; [CPU_FPU] |275| 
	.dwpsn	file "C:/ti/ccs1260/ccs/tools/compiler/ti-cgt-c2000_22.6.1.LTS/include/math.h",line 276,column 3,is_stmt,isa 0
        MOVIZ     R0H,#16256            ; [CPU_FPU] |276| 
        MOV32     R1H,*-SP[2]           ; [CPU_FPU] |276| 
        QUADF32   R1H,R0H,R1H,R0H       ; [CPU_FPU] |276| 
        NOP       ; [CPU_ALU] 
        NOP       ; [CPU_ALU] 
        NOP       ; [CPU_ALU] 
        NOP       ; [CPU_ALU] 
        ATANPUF32 R0H,R0H               ; [CPU_FPU] |276| 
        NOP       ; [CPU_ALU] 
        NOP       ; [CPU_ALU] 
        NOP       ; [CPU_ALU] 
        ADDF32    R0H,R0H,R1H           ; [CPU_FPU] |276| 
        NOP       ; [CPU_ALU] 
        NOP       ; [CPU_ALU] 
        MPY2PIF32 R0H,R0H               ; [CPU_FPU] |276| 
	.dwpsn	file "C:/ti/ccs1260/ccs/tools/compiler/ti-cgt-c2000_22.6.1.LTS/include/math.h",line 277,column 1,is_stmt,isa 0
        SUBB      SP,#2                 ; [CPU_ARAU] 
	.dwcfi	cfa_offset, -2
$C$DW$357	.dwtag  DW_TAG_TI_branch
	.dwattr $C$DW$357, DW_AT_low_pc(0x00)
	.dwattr $C$DW$357, DW_AT_TI_return

        LRETR     ; [CPU_ALU] 
        ; return occurs ; [] 
	.dwattr $C$DW$354, DW_AT_TI_end_file("C:/ti/ccs1260/ccs/tools/compiler/ti-cgt-c2000_22.6.1.LTS/include/math.h")
	.dwattr $C$DW$354, DW_AT_TI_end_line(0x115)
	.dwattr $C$DW$354, DW_AT_TI_end_column(0x01)
	.dwendentry
	.dwendtag $C$DW$354

	.sect	".text:__relaxed_atan2f"
	.clink
	.global	||__relaxed_atan2f||

$C$DW$358	.dwtag  DW_TAG_subprogram
	.dwattr $C$DW$358, DW_AT_name("__relaxed_atan2f")
	.dwattr $C$DW$358, DW_AT_low_pc(||__relaxed_atan2f||)
	.dwattr $C$DW$358, DW_AT_high_pc(0x00)
	.dwattr $C$DW$358, DW_AT_linkage_name("__relaxed_atan2f")
	.dwattr $C$DW$358, DW_AT_external
	.dwattr $C$DW$358, DW_AT_type(*$C$DW$T$16)
	.dwattr $C$DW$358, DW_AT_decl_file("C:/ti/ccs1260/ccs/tools/compiler/ti-cgt-c2000_22.6.1.LTS/include/math.h")
	.dwattr $C$DW$358, DW_AT_decl_line(0x117)
	.dwattr $C$DW$358, DW_AT_decl_column(0x10)
	.dwattr $C$DW$358, DW_AT_TI_max_frame_size(-6)
	.dwpsn	file "C:/ti/ccs1260/ccs/tools/compiler/ti-cgt-c2000_22.6.1.LTS/include/math.h",line 280,column 1,is_stmt,address ||__relaxed_atan2f||,isa 0

	.dwfde $C$DW$CIE, ||__relaxed_atan2f||
$C$DW$359	.dwtag  DW_TAG_formal_parameter
	.dwattr $C$DW$359, DW_AT_name("y")
	.dwattr $C$DW$359, DW_AT_type(*$C$DW$T$16)
	.dwattr $C$DW$359, DW_AT_location[DW_OP_regx 0x2b]

$C$DW$360	.dwtag  DW_TAG_formal_parameter
	.dwattr $C$DW$360, DW_AT_name("x")
	.dwattr $C$DW$360, DW_AT_type(*$C$DW$T$16)
	.dwattr $C$DW$360, DW_AT_location[DW_OP_regx 0x2f]


;***************************************************************
;* FNAME: __relaxed_atan2f              FR SIZE:   4           *
;*                                                             *
;* FUNCTION ENVIRONMENT                                        *
;*                                                             *
;* FUNCTION PROPERTIES                                         *
;*                            0 Parameter,  4 Auto,  0 SOE     *
;***************************************************************

||__relaxed_atan2f||:
	.dwcfi	cfa_offset, -2
	.dwcfi	save_reg_to_mem, 26, 0
        ADDB      SP,#4                 ; [CPU_ARAU] 
	.dwcfi	cfa_offset, -6
$C$DW$361	.dwtag  DW_TAG_variable
	.dwattr $C$DW$361, DW_AT_name("y")
	.dwattr $C$DW$361, DW_AT_type(*$C$DW$T$16)
	.dwattr $C$DW$361, DW_AT_location[DW_OP_breg20 -2]

$C$DW$362	.dwtag  DW_TAG_variable
	.dwattr $C$DW$362, DW_AT_name("x")
	.dwattr $C$DW$362, DW_AT_type(*$C$DW$T$16)
	.dwattr $C$DW$362, DW_AT_location[DW_OP_breg20 -4]

        MOV32     *-SP[4],R1H           ; [CPU_FPU] |280| 
        MOV32     *-SP[2],R0H           ; [CPU_FPU] |280| 
	.dwpsn	file "C:/ti/ccs1260/ccs/tools/compiler/ti-cgt-c2000_22.6.1.LTS/include/math.h",line 281,column 3,is_stmt,isa 0
        MOV32     R0H,*-SP[4]           ; [CPU_FPU] |281| 
        MOV32     R1H,*-SP[2]           ; [CPU_FPU] |281| 
        QUADF32   R1H,R0H,R1H,R0H       ; [CPU_FPU] |281| 
        NOP       ; [CPU_ALU] 
        NOP       ; [CPU_ALU] 
        NOP       ; [CPU_ALU] 
        NOP       ; [CPU_ALU] 
        ATANPUF32 R0H,R0H               ; [CPU_FPU] |281| 
        NOP       ; [CPU_ALU] 
        NOP       ; [CPU_ALU] 
        NOP       ; [CPU_ALU] 
        ADDF32    R0H,R0H,R1H           ; [CPU_FPU] |281| 
        NOP       ; [CPU_ALU] 
        NOP       ; [CPU_ALU] 
        MPY2PIF32 R0H,R0H               ; [CPU_FPU] |281| 
	.dwpsn	file "C:/ti/ccs1260/ccs/tools/compiler/ti-cgt-c2000_22.6.1.LTS/include/math.h",line 282,column 1,is_stmt,isa 0
        SUBB      SP,#4                 ; [CPU_ARAU] 
	.dwcfi	cfa_offset, -2
$C$DW$363	.dwtag  DW_TAG_TI_branch
	.dwattr $C$DW$363, DW_AT_low_pc(0x00)
	.dwattr $C$DW$363, DW_AT_TI_return

        LRETR     ; [CPU_ALU] 
        ; return occurs ; [] 
	.dwattr $C$DW$358, DW_AT_TI_end_file("C:/ti/ccs1260/ccs/tools/compiler/ti-cgt-c2000_22.6.1.LTS/include/math.h")
	.dwattr $C$DW$358, DW_AT_TI_end_line(0x11a)
	.dwattr $C$DW$358, DW_AT_TI_end_column(0x01)
	.dwendentry
	.dwendtag $C$DW$358

	.sect	".text:__relaxed_fmodf"
	.clink
	.global	||__relaxed_fmodf||

$C$DW$364	.dwtag  DW_TAG_subprogram
	.dwattr $C$DW$364, DW_AT_name("__relaxed_fmodf")
	.dwattr $C$DW$364, DW_AT_low_pc(||__relaxed_fmodf||)
	.dwattr $C$DW$364, DW_AT_high_pc(0x00)
	.dwattr $C$DW$364, DW_AT_linkage_name("__relaxed_fmodf")
	.dwattr $C$DW$364, DW_AT_external
	.dwattr $C$DW$364, DW_AT_type(*$C$DW$T$16)
	.dwattr $C$DW$364, DW_AT_decl_file("C:/ti/ccs1260/ccs/tools/compiler/ti-cgt-c2000_22.6.1.LTS/include/math.h")
	.dwattr $C$DW$364, DW_AT_decl_line(0x11c)
	.dwattr $C$DW$364, DW_AT_decl_column(0x10)
	.dwattr $C$DW$364, DW_AT_TI_max_frame_size(-6)
	.dwpsn	file "C:/ti/ccs1260/ccs/tools/compiler/ti-cgt-c2000_22.6.1.LTS/include/math.h",line 285,column 1,is_stmt,address ||__relaxed_fmodf||,isa 0

	.dwfde $C$DW$CIE, ||__relaxed_fmodf||
$C$DW$365	.dwtag  DW_TAG_formal_parameter
	.dwattr $C$DW$365, DW_AT_name("y")
	.dwattr $C$DW$365, DW_AT_type(*$C$DW$T$16)
	.dwattr $C$DW$365, DW_AT_location[DW_OP_regx 0x2b]

$C$DW$366	.dwtag  DW_TAG_formal_parameter
	.dwattr $C$DW$366, DW_AT_name("x")
	.dwattr $C$DW$366, DW_AT_type(*$C$DW$T$16)
	.dwattr $C$DW$366, DW_AT_location[DW_OP_regx 0x2f]


;***************************************************************
;* FNAME: __relaxed_fmodf               FR SIZE:   4           *
;*                                                             *
;* FUNCTION ENVIRONMENT                                        *
;*                                                             *
;* FUNCTION PROPERTIES                                         *
;*                            0 Parameter,  4 Auto,  0 SOE     *
;***************************************************************

||__relaxed_fmodf||:
	.dwcfi	cfa_offset, -2
	.dwcfi	save_reg_to_mem, 26, 0
        ADDB      SP,#4                 ; [CPU_ARAU] 
	.dwcfi	cfa_offset, -6
$C$DW$367	.dwtag  DW_TAG_variable
	.dwattr $C$DW$367, DW_AT_name("y")
	.dwattr $C$DW$367, DW_AT_type(*$C$DW$T$16)
	.dwattr $C$DW$367, DW_AT_location[DW_OP_breg20 -2]

$C$DW$368	.dwtag  DW_TAG_variable
	.dwattr $C$DW$368, DW_AT_name("x")
	.dwattr $C$DW$368, DW_AT_type(*$C$DW$T$16)
	.dwattr $C$DW$368, DW_AT_location[DW_OP_breg20 -4]

        MOV32     *-SP[4],R1H           ; [CPU_FPU] |285| 
        MOV32     *-SP[2],R0H           ; [CPU_FPU] |285| 
	.dwpsn	file "C:/ti/ccs1260/ccs/tools/compiler/ti-cgt-c2000_22.6.1.LTS/include/math.h",line 286,column 3,is_stmt,isa 0
        MOV32     R2H,*-SP[2]           ; [CPU_FPU] |286| 
        DIVF32    R0H,R2H,R1H           ; [CPU_FPU] |286| 
        NOP       ; [CPU_ALU] 
        NOP       ; [CPU_ALU] 
        NOP       ; [CPU_ALU] 
        NOP       ; [CPU_ALU] 
        F32TOI32  R0H,R0H               ; [CPU_FPU] |286| 
        NOP       ; [CPU_ALU] 
        I32TOF32  R0H,R0H               ; [CPU_FPU] |286| 
        NOP       ; [CPU_ALU] 
        MPYF32    R0H,R1H,R0H           ; [CPU_FPU] |286| 
        NOP       ; [CPU_ALU] 
        SUBF32    R0H,R2H,R0H           ; [CPU_FPU] |286| 
	.dwpsn	file "C:/ti/ccs1260/ccs/tools/compiler/ti-cgt-c2000_22.6.1.LTS/include/math.h",line 287,column 1,is_stmt,isa 0
        SUBB      SP,#4                 ; [CPU_ARAU] 
	.dwcfi	cfa_offset, -2
$C$DW$369	.dwtag  DW_TAG_TI_branch
	.dwattr $C$DW$369, DW_AT_low_pc(0x00)
	.dwattr $C$DW$369, DW_AT_TI_return

        LRETR     ; [CPU_ALU] 
        ; return occurs ; [] 
	.dwattr $C$DW$364, DW_AT_TI_end_file("C:/ti/ccs1260/ccs/tools/compiler/ti-cgt-c2000_22.6.1.LTS/include/math.h")
	.dwattr $C$DW$364, DW_AT_TI_end_line(0x11f)
	.dwattr $C$DW$364, DW_AT_TI_end_column(0x01)
	.dwendentry
	.dwendtag $C$DW$364

	.sect	".text:SetMotorOff"
	.clink
	.global	||SetMotorOff||

$C$DW$370	.dwtag  DW_TAG_subprogram
	.dwattr $C$DW$370, DW_AT_name("SetMotorOff")
	.dwattr $C$DW$370, DW_AT_low_pc(||SetMotorOff||)
	.dwattr $C$DW$370, DW_AT_high_pc(0x00)
	.dwattr $C$DW$370, DW_AT_linkage_name("SetMotorOff")
	.dwattr $C$DW$370, DW_AT_external
	.dwattr $C$DW$370, DW_AT_decl_file("..\Application\StructDef2.h")
	.dwattr $C$DW$370, DW_AT_decl_line(0x584)
	.dwattr $C$DW$370, DW_AT_decl_column(0x06)
	.dwattr $C$DW$370, DW_AT_TI_max_frame_size(-4)
	.dwpsn	file "..\Application\StructDef2.h",line 1413,column 1,is_stmt,address ||SetMotorOff||,isa 0

	.dwfde $C$DW$CIE, ||SetMotorOff||
$C$DW$371	.dwtag  DW_TAG_formal_parameter
	.dwattr $C$DW$371, DW_AT_name("pAxis")
	.dwattr $C$DW$371, DW_AT_type(*$C$DW$T$237)
	.dwattr $C$DW$371, DW_AT_location[DW_OP_reg12]


;***************************************************************
;* FNAME: SetMotorOff                   FR SIZE:   2           *
;*                                                             *
;* FUNCTION ENVIRONMENT                                        *
;*                                                             *
;* FUNCTION PROPERTIES                                         *
;*                            0 Parameter,  2 Auto,  0 SOE     *
;***************************************************************

||SetMotorOff||:
	.dwcfi	cfa_offset, -2
	.dwcfi	save_reg_to_mem, 26, 0
        ADDB      SP,#2                 ; [CPU_ARAU] 
	.dwcfi	cfa_offset, -4
$C$DW$372	.dwtag  DW_TAG_variable
	.dwattr $C$DW$372, DW_AT_name("pAxis")
	.dwattr $C$DW$372, DW_AT_type(*$C$DW$T$237)
	.dwattr $C$DW$372, DW_AT_location[DW_OP_breg20 -2]

        MOVL      *-SP[2],XAR4          ; [CPU_ALU] |1413| 
	.dwpsn	file "..\Application\StructDef2.h",line 1414,column 5,is_stmt,isa 0
        MOVB      ACC,#82               ; [CPU_ALU] |1414| 
        ADDL      ACC,*-SP[2]           ; [CPU_ALU] |1414| 
        MOVL      XAR4,ACC              ; [CPU_ALU] |1414| 
        AND       *+XAR4[0],#0xfffe     ; [CPU_ALU] |1414| 
	.dwpsn	file "..\Application\StructDef2.h",line 1415,column 1,is_stmt,isa 0
        SUBB      SP,#2                 ; [CPU_ARAU] 
	.dwcfi	cfa_offset, -2
$C$DW$373	.dwtag  DW_TAG_TI_branch
	.dwattr $C$DW$373, DW_AT_low_pc(0x00)
	.dwattr $C$DW$373, DW_AT_TI_return

        LRETR     ; [CPU_ALU] 
        ; return occurs ; [] 
	.dwattr $C$DW$370, DW_AT_TI_end_file("..\Application\StructDef2.h")
	.dwattr $C$DW$370, DW_AT_TI_end_line(0x587)
	.dwattr $C$DW$370, DW_AT_TI_end_column(0x01)
	.dwendentry
	.dwendtag $C$DW$370

	.sect	".text:SetMotorOn"
	.clink
	.global	||SetMotorOn||

$C$DW$374	.dwtag  DW_TAG_subprogram
	.dwattr $C$DW$374, DW_AT_name("SetMotorOn")
	.dwattr $C$DW$374, DW_AT_low_pc(||SetMotorOn||)
	.dwattr $C$DW$374, DW_AT_high_pc(0x00)
	.dwattr $C$DW$374, DW_AT_linkage_name("SetMotorOn")
	.dwattr $C$DW$374, DW_AT_external
	.dwattr $C$DW$374, DW_AT_decl_file("..\Application\StructDef2.h")
	.dwattr $C$DW$374, DW_AT_decl_line(0x58a)
	.dwattr $C$DW$374, DW_AT_decl_column(0x06)
	.dwattr $C$DW$374, DW_AT_TI_max_frame_size(-4)
	.dwpsn	file "..\Application\StructDef2.h",line 1419,column 1,is_stmt,address ||SetMotorOn||,isa 0

	.dwfde $C$DW$CIE, ||SetMotorOn||
$C$DW$375	.dwtag  DW_TAG_formal_parameter
	.dwattr $C$DW$375, DW_AT_name("pAxis")
	.dwattr $C$DW$375, DW_AT_type(*$C$DW$T$237)
	.dwattr $C$DW$375, DW_AT_location[DW_OP_reg12]


;***************************************************************
;* FNAME: SetMotorOn                    FR SIZE:   2           *
;*                                                             *
;* FUNCTION ENVIRONMENT                                        *
;*                                                             *
;* FUNCTION PROPERTIES                                         *
;*                            0 Parameter,  2 Auto,  0 SOE     *
;***************************************************************

||SetMotorOn||:
	.dwcfi	cfa_offset, -2
	.dwcfi	save_reg_to_mem, 26, 0
        ADDB      SP,#2                 ; [CPU_ARAU] 
	.dwcfi	cfa_offset, -4
$C$DW$376	.dwtag  DW_TAG_variable
	.dwattr $C$DW$376, DW_AT_name("pAxis")
	.dwattr $C$DW$376, DW_AT_type(*$C$DW$T$237)
	.dwattr $C$DW$376, DW_AT_location[DW_OP_breg20 -2]

        MOVL      *-SP[2],XAR4          ; [CPU_ALU] |1419| 
	.dwpsn	file "..\Application\StructDef2.h",line 1420,column 5,is_stmt,isa 0
        MOVB      ACC,#82               ; [CPU_ALU] |1420| 
        ADDL      ACC,*-SP[2]           ; [CPU_ALU] |1420| 
        MOVL      XAR4,ACC              ; [CPU_ALU] |1420| 
        OR        *+XAR4[0],#0x0001     ; [CPU_ALU] |1420| 
	.dwpsn	file "..\Application\StructDef2.h",line 1421,column 1,is_stmt,isa 0
        SUBB      SP,#2                 ; [CPU_ARAU] 
	.dwcfi	cfa_offset, -2
$C$DW$377	.dwtag  DW_TAG_TI_branch
	.dwattr $C$DW$377, DW_AT_low_pc(0x00)
	.dwattr $C$DW$377, DW_AT_TI_return

        LRETR     ; [CPU_ALU] 
        ; return occurs ; [] 
	.dwattr $C$DW$374, DW_AT_TI_end_file("..\Application\StructDef2.h")
	.dwattr $C$DW$374, DW_AT_TI_end_line(0x58d)
	.dwattr $C$DW$374, DW_AT_TI_end_column(0x01)
	.dwendentry
	.dwendtag $C$DW$374

	.sect	".text:IsGen3"
	.clink
	.global	||IsGen3||

$C$DW$378	.dwtag  DW_TAG_subprogram
	.dwattr $C$DW$378, DW_AT_name("IsGen3")
	.dwattr $C$DW$378, DW_AT_low_pc(||IsGen3||)
	.dwattr $C$DW$378, DW_AT_high_pc(0x00)
	.dwattr $C$DW$378, DW_AT_linkage_name("IsGen3")
	.dwattr $C$DW$378, DW_AT_external
	.dwattr $C$DW$378, DW_AT_type(*$C$DW$T$8)
	.dwattr $C$DW$378, DW_AT_decl_file("..\Application\StructDef2.h")
	.dwattr $C$DW$378, DW_AT_decl_line(0x591)
	.dwattr $C$DW$378, DW_AT_decl_column(0x07)
	.dwattr $C$DW$378, DW_AT_TI_max_frame_size(-2)
	.dwpsn	file "..\Application\StructDef2.h",line 1426,column 1,is_stmt,address ||IsGen3||,isa 0

	.dwfde $C$DW$CIE, ||IsGen3||

;***************************************************************
;* FNAME: IsGen3                        FR SIZE:   0           *
;*                                                             *
;* FUNCTION ENVIRONMENT                                        *
;*                                                             *
;* FUNCTION PROPERTIES                                         *
;*                            0 Parameter,  0 Auto,  0 SOE     *
;***************************************************************

||IsGen3||:
	.dwcfi	cfa_offset, -2
	.dwcfi	save_reg_to_mem, 26, 0
	.dwpsn	file "..\Application\StructDef2.h",line 1427,column 5,is_stmt,isa 0
        MOVW      DP,#||S2M||+30        ; [CPU_ARAU] 
        MOV       AL,@$BLOCKED(||S2M||)+30 ; [CPU_ALU] |1427| 
        ANDB      AL,#0x0f              ; [CPU_ALU] |1427| 
        CMPB      AL,#3                 ; [CPU_ALU] |1427| 
        B         ||$C$L53||,NEQ        ; [CPU_ALU] |1427| 
        ; branchcc occurs ; [] |1427| 
        MOVB      AL,#1                 ; [CPU_ALU] |1427| 
        B         ||$C$L54||,UNC        ; [CPU_ALU] |1427| 
        ; branch occurs ; [] |1427| 
||$C$L53||:    
        MOVB      AL,#0                 ; [CPU_ALU] |1427| 
||$C$L54||:    
	.dwpsn	file "..\Application\StructDef2.h",line 1428,column 1,is_stmt,isa 0
$C$DW$379	.dwtag  DW_TAG_TI_branch
	.dwattr $C$DW$379, DW_AT_low_pc(0x00)
	.dwattr $C$DW$379, DW_AT_TI_return

        LRETR     ; [CPU_ALU] 
        ; return occurs ; [] 
	.dwattr $C$DW$378, DW_AT_TI_end_file("..\Application\StructDef2.h")
	.dwattr $C$DW$378, DW_AT_TI_end_line(0x594)
	.dwattr $C$DW$378, DW_AT_TI_end_column(0x01)
	.dwendentry
	.dwendtag $C$DW$378

	.sect	".text:IsPsActive"
	.clink
	.global	||IsPsActive||

$C$DW$380	.dwtag  DW_TAG_subprogram
	.dwattr $C$DW$380, DW_AT_name("IsPsActive")
	.dwattr $C$DW$380, DW_AT_low_pc(||IsPsActive||)
	.dwattr $C$DW$380, DW_AT_high_pc(0x00)
	.dwattr $C$DW$380, DW_AT_linkage_name("IsPsActive")
	.dwattr $C$DW$380, DW_AT_external
	.dwattr $C$DW$380, DW_AT_type(*$C$DW$T$8)
	.dwattr $C$DW$380, DW_AT_decl_file("..\Application\StructDef2.h")
	.dwattr $C$DW$380, DW_AT_decl_line(0x597)
	.dwattr $C$DW$380, DW_AT_decl_column(0x07)
	.dwattr $C$DW$380, DW_AT_TI_max_frame_size(-2)
	.dwpsn	file "..\Application\StructDef2.h",line 1432,column 1,is_stmt,address ||IsPsActive||,isa 0

	.dwfde $C$DW$CIE, ||IsPsActive||

;***************************************************************
;* FNAME: IsPsActive                    FR SIZE:   0           *
;*                                                             *
;* FUNCTION ENVIRONMENT                                        *
;*                                                             *
;* FUNCTION PROPERTIES                                         *
;*                            0 Parameter,  0 Auto,  0 SOE     *
;***************************************************************

||IsPsActive||:
	.dwcfi	cfa_offset, -2
	.dwcfi	save_reg_to_mem, 26, 0
	.dwpsn	file "..\Application\StructDef2.h",line 1433,column 5,is_stmt,isa 0
        MOVW      DP,#||SysState||+323  ; [CPU_ARAU] 
        MOV       AL,@$BLOCKED(||SysState||)+323 ; [CPU_ALU] |1433| 
	.dwpsn	file "..\Application\StructDef2.h",line 1434,column 1,is_stmt,isa 0
$C$DW$381	.dwtag  DW_TAG_TI_branch
	.dwattr $C$DW$381, DW_AT_low_pc(0x00)
	.dwattr $C$DW$381, DW_AT_TI_return

        LRETR     ; [CPU_ALU] 
        ; return occurs ; [] 
	.dwattr $C$DW$380, DW_AT_TI_end_file("..\Application\StructDef2.h")
	.dwattr $C$DW$380, DW_AT_TI_end_line(0x59a)
	.dwattr $C$DW$380, DW_AT_TI_end_column(0x01)
	.dwendentry
	.dwendtag $C$DW$380

	.sect	".text:StopSuctionImmediate"
	.clink
	.global	||StopSuctionImmediate||

$C$DW$382	.dwtag  DW_TAG_subprogram
	.dwattr $C$DW$382, DW_AT_name("StopSuctionImmediate")
	.dwattr $C$DW$382, DW_AT_low_pc(||StopSuctionImmediate||)
	.dwattr $C$DW$382, DW_AT_high_pc(0x00)
	.dwattr $C$DW$382, DW_AT_linkage_name("StopSuctionImmediate")
	.dwattr $C$DW$382, DW_AT_external
	.dwattr $C$DW$382, DW_AT_decl_file("..\Application\StructDef2.h")
	.dwattr $C$DW$382, DW_AT_decl_line(0x59e)
	.dwattr $C$DW$382, DW_AT_decl_column(0x06)
	.dwattr $C$DW$382, DW_AT_TI_max_frame_size(-2)
	.dwpsn	file "..\Application\StructDef2.h",line 1439,column 1,is_stmt,address ||StopSuctionImmediate||,isa 0

	.dwfde $C$DW$CIE, ||StopSuctionImmediate||

;***************************************************************
;* FNAME: StopSuctionImmediate          FR SIZE:   0           *
;*                                                             *
;* FUNCTION ENVIRONMENT                                        *
;*                                                             *
;* FUNCTION PROPERTIES                                         *
;*                            0 Parameter,  0 Auto,  0 SOE     *
;***************************************************************

||StopSuctionImmediate||:
	.dwcfi	cfa_offset, -2
	.dwcfi	save_reg_to_mem, 26, 0
	.dwpsn	file "..\Application\StructDef2.h",line 1440,column 5,is_stmt,isa 0
        MOVB      ACC,#0                ; [CPU_ALU] |1440| 
        MOVW      DP,#||SysState||+148  ; [CPU_ARAU] 
        MOVL      @$BLOCKED(||SysState||)+148,ACC ; [CPU_ALU] |1440| 
	.dwpsn	file "..\Application\StructDef2.h",line 1441,column 5,is_stmt,isa 0
        OR        @$BLOCKED(||SysState||)+148,#0x0002 ; [CPU_ALU] |1441| 
	.dwpsn	file "..\Application\StructDef2.h",line 1442,column 1,is_stmt,isa 0
$C$DW$383	.dwtag  DW_TAG_TI_branch
	.dwattr $C$DW$383, DW_AT_low_pc(0x00)
	.dwattr $C$DW$383, DW_AT_TI_return

        LRETR     ; [CPU_ALU] 
        ; return occurs ; [] 
	.dwattr $C$DW$382, DW_AT_TI_end_file("..\Application\StructDef2.h")
	.dwattr $C$DW$382, DW_AT_TI_end_line(0x5a2)
	.dwattr $C$DW$382, DW_AT_TI_end_column(0x01)
	.dwendentry
	.dwendtag $C$DW$382

	.sect	".text:StopSuctionMonitor"
	.clink
	.global	||StopSuctionMonitor||

$C$DW$384	.dwtag  DW_TAG_subprogram
	.dwattr $C$DW$384, DW_AT_name("StopSuctionMonitor")
	.dwattr $C$DW$384, DW_AT_low_pc(||StopSuctionMonitor||)
	.dwattr $C$DW$384, DW_AT_high_pc(0x00)
	.dwattr $C$DW$384, DW_AT_linkage_name("StopSuctionMonitor")
	.dwattr $C$DW$384, DW_AT_external
	.dwattr $C$DW$384, DW_AT_decl_file("..\Application\StructDef2.h")
	.dwattr $C$DW$384, DW_AT_decl_line(0x5a6)
	.dwattr $C$DW$384, DW_AT_decl_column(0x06)
	.dwattr $C$DW$384, DW_AT_TI_max_frame_size(-2)
	.dwpsn	file "..\Application\StructDef2.h",line 1447,column 1,is_stmt,address ||StopSuctionMonitor||,isa 0

	.dwfde $C$DW$CIE, ||StopSuctionMonitor||

;***************************************************************
;* FNAME: StopSuctionMonitor            FR SIZE:   0           *
;*                                                             *
;* FUNCTION ENVIRONMENT                                        *
;*                                                             *
;* FUNCTION PROPERTIES                                         *
;*                            0 Parameter,  0 Auto,  0 SOE     *
;***************************************************************

||StopSuctionMonitor||:
	.dwcfi	cfa_offset, -2
	.dwcfi	save_reg_to_mem, 26, 0
	.dwpsn	file "..\Application\StructDef2.h",line 1448,column 5,is_stmt,isa 0
        MOVB      ACC,#0                ; [CPU_ALU] |1448| 
        MOVW      DP,#||SysState||+148  ; [CPU_ARAU] 
        MOVL      @$BLOCKED(||SysState||)+148,ACC ; [CPU_ALU] |1448| 
	.dwpsn	file "..\Application\StructDef2.h",line 1449,column 1,is_stmt,isa 0
$C$DW$385	.dwtag  DW_TAG_TI_branch
	.dwattr $C$DW$385, DW_AT_low_pc(0x00)
	.dwattr $C$DW$385, DW_AT_TI_return

        LRETR     ; [CPU_ALU] 
        ; return occurs ; [] 
	.dwattr $C$DW$384, DW_AT_TI_end_file("..\Application\StructDef2.h")
	.dwattr $C$DW$384, DW_AT_TI_end_line(0x5a9)
	.dwattr $C$DW$384, DW_AT_TI_end_column(0x01)
	.dwendentry
	.dwendtag $C$DW$384

	.sect	".text:InitSuctionMonitor"
	.clink
	.global	||InitSuctionMonitor||

$C$DW$386	.dwtag  DW_TAG_subprogram
	.dwattr $C$DW$386, DW_AT_name("InitSuctionMonitor")
	.dwattr $C$DW$386, DW_AT_low_pc(||InitSuctionMonitor||)
	.dwattr $C$DW$386, DW_AT_high_pc(0x00)
	.dwattr $C$DW$386, DW_AT_linkage_name("InitSuctionMonitor")
	.dwattr $C$DW$386, DW_AT_external
	.dwattr $C$DW$386, DW_AT_decl_file("..\Application\StructDef2.h")
	.dwattr $C$DW$386, DW_AT_decl_line(0x5ae)
	.dwattr $C$DW$386, DW_AT_decl_column(0x06)
	.dwattr $C$DW$386, DW_AT_TI_max_frame_size(-2)
	.dwpsn	file "..\Application\StructDef2.h",line 1455,column 1,is_stmt,address ||InitSuctionMonitor||,isa 0

	.dwfde $C$DW$CIE, ||InitSuctionMonitor||

;***************************************************************
;* FNAME: InitSuctionMonitor            FR SIZE:   0           *
;*                                                             *
;* FUNCTION ENVIRONMENT                                        *
;*                                                             *
;* FUNCTION PROPERTIES                                         *
;*                            0 Parameter,  0 Auto,  0 SOE     *
;***************************************************************

||InitSuctionMonitor||:
	.dwcfi	cfa_offset, -2
	.dwcfi	save_reg_to_mem, 26, 0
	.dwpsn	file "..\Application\StructDef2.h",line 1456,column 5,is_stmt,isa 0
        MOVB      ACC,#0                ; [CPU_ALU] |1456| 
        MOVW      DP,#||SysState||+148  ; [CPU_ARAU] 
        MOVL      @$BLOCKED(||SysState||)+148,ACC ; [CPU_ALU] |1456| 
	.dwpsn	file "..\Application\StructDef2.h",line 1457,column 5,is_stmt,isa 0
        OR        @$BLOCKED(||SysState||)+148,#0x0001 ; [CPU_ALU] |1457| 
	.dwpsn	file "..\Application\StructDef2.h",line 1458,column 1,is_stmt,isa 0
$C$DW$387	.dwtag  DW_TAG_TI_branch
	.dwattr $C$DW$387, DW_AT_low_pc(0x00)
	.dwattr $C$DW$387, DW_AT_TI_return

        LRETR     ; [CPU_ALU] 
        ; return occurs ; [] 
	.dwattr $C$DW$386, DW_AT_TI_end_file("..\Application\StructDef2.h")
	.dwattr $C$DW$386, DW_AT_TI_end_line(0x5b2)
	.dwattr $C$DW$386, DW_AT_TI_end_column(0x01)
	.dwendentry
	.dwendtag $C$DW$386

	.sect	".text:InitSuctionImmediate"
	.clink
	.global	||InitSuctionImmediate||

$C$DW$388	.dwtag  DW_TAG_subprogram
	.dwattr $C$DW$388, DW_AT_name("InitSuctionImmediate")
	.dwattr $C$DW$388, DW_AT_low_pc(||InitSuctionImmediate||)
	.dwattr $C$DW$388, DW_AT_high_pc(0x00)
	.dwattr $C$DW$388, DW_AT_linkage_name("InitSuctionImmediate")
	.dwattr $C$DW$388, DW_AT_external
	.dwattr $C$DW$388, DW_AT_decl_file("..\Application\StructDef2.h")
	.dwattr $C$DW$388, DW_AT_decl_line(0x5b6)
	.dwattr $C$DW$388, DW_AT_decl_column(0x06)
	.dwattr $C$DW$388, DW_AT_TI_max_frame_size(-2)
	.dwpsn	file "..\Application\StructDef2.h",line 1463,column 1,is_stmt,address ||InitSuctionImmediate||,isa 0

	.dwfde $C$DW$CIE, ||InitSuctionImmediate||

;***************************************************************
;* FNAME: InitSuctionImmediate          FR SIZE:   0           *
;*                                                             *
;* FUNCTION ENVIRONMENT                                        *
;*                                                             *
;* FUNCTION PROPERTIES                                         *
;*                            0 Parameter,  0 Auto,  0 SOE     *
;***************************************************************

||InitSuctionImmediate||:
	.dwcfi	cfa_offset, -2
	.dwcfi	save_reg_to_mem, 26, 0
	.dwpsn	file "..\Application\StructDef2.h",line 1464,column 5,is_stmt,isa 0
        MOVW      DP,#||SysState||+148  ; [CPU_ARAU] 
        OR        @$BLOCKED(||SysState||)+148,#0x0002 ; [CPU_ALU] |1464| 
	.dwpsn	file "..\Application\StructDef2.h",line 1465,column 5,is_stmt,isa 0
        OR        @$BLOCKED(||SysState||)+148,#0x0001 ; [CPU_ALU] |1465| 
	.dwpsn	file "..\Application\StructDef2.h",line 1466,column 1,is_stmt,isa 0
$C$DW$389	.dwtag  DW_TAG_TI_branch
	.dwattr $C$DW$389, DW_AT_low_pc(0x00)
	.dwattr $C$DW$389, DW_AT_TI_return

        LRETR     ; [CPU_ALU] 
        ; return occurs ; [] 
	.dwattr $C$DW$388, DW_AT_TI_end_file("..\Application\StructDef2.h")
	.dwattr $C$DW$388, DW_AT_TI_end_line(0x5ba)
	.dwattr $C$DW$388, DW_AT_TI_end_column(0x01)
	.dwendentry
	.dwendtag $C$DW$388

	.sect	".text:GetManufacturerSpecificCode"
	.clink
	.global	||GetManufacturerSpecificCode||

$C$DW$390	.dwtag  DW_TAG_subprogram
	.dwattr $C$DW$390, DW_AT_name("GetManufacturerSpecificCode")
	.dwattr $C$DW$390, DW_AT_low_pc(||GetManufacturerSpecificCode||)
	.dwattr $C$DW$390, DW_AT_high_pc(0x00)
	.dwattr $C$DW$390, DW_AT_linkage_name("GetManufacturerSpecificCode")
	.dwattr $C$DW$390, DW_AT_external
	.dwattr $C$DW$390, DW_AT_type(*$C$DW$T$13)
	.dwattr $C$DW$390, DW_AT_decl_file("../Application/ObjectDictionary2.c")
	.dwattr $C$DW$390, DW_AT_decl_line(0x72)
	.dwattr $C$DW$390, DW_AT_decl_column(0x0f)
	.dwattr $C$DW$390, DW_AT_TI_max_frame_size(-4)
	.dwpsn	file "../Application/ObjectDictionary2.c",line 115,column 1,is_stmt,address ||GetManufacturerSpecificCode||,isa 0

	.dwfde $C$DW$CIE, ||GetManufacturerSpecificCode||
$C$DW$391	.dwtag  DW_TAG_formal_parameter
	.dwattr $C$DW$391, DW_AT_name("code")
	.dwattr $C$DW$391, DW_AT_type(*$C$DW$T$12)
	.dwattr $C$DW$391, DW_AT_location[DW_OP_reg0]


;***************************************************************
;* FNAME: GetManufacturerSpecificCode   FR SIZE:   2           *
;*                                                             *
;* FUNCTION ENVIRONMENT                                        *
;*                                                             *
;* FUNCTION PROPERTIES                                         *
;*                            0 Parameter,  2 Auto,  0 SOE     *
;***************************************************************

||GetManufacturerSpecificCode||:
	.dwcfi	cfa_offset, -2
	.dwcfi	save_reg_to_mem, 26, 0
        ADDB      SP,#2                 ; [CPU_ARAU] 
	.dwcfi	cfa_offset, -4
$C$DW$392	.dwtag  DW_TAG_variable
	.dwattr $C$DW$392, DW_AT_name("code")
	.dwattr $C$DW$392, DW_AT_type(*$C$DW$T$12)
	.dwattr $C$DW$392, DW_AT_location[DW_OP_breg20 -2]

        MOVL      *-SP[2],ACC           ; [CPU_ALU] |115| 
	.dwpsn	file "../Application/ObjectDictionary2.c",line 116,column 5,is_stmt,isa 0
        MOVL      ACC,*-SP[2]           ; [CPU_ALU] |116| 
        B         ||$C$L55||,EQ         ; [CPU_ALU] |116| 
        ; branchcc occurs ; [] |116| 
        MOV       ACC,#4608 << 15       ; [CPU_ALU] |116| 
        ADDL      ACC,*-SP[2]           ; [CPU_ALU] |116| 
        B         ||$C$L56||,UNC        ; [CPU_ALU] |116| 
        ; branch occurs ; [] |116| 
||$C$L55||:    
        MOVB      ACC,#0                ; [CPU_ALU] |116| 
||$C$L56||:    
	.dwpsn	file "../Application/ObjectDictionary2.c",line 117,column 1,is_stmt,isa 0
        SUBB      SP,#2                 ; [CPU_ARAU] 
	.dwcfi	cfa_offset, -2
$C$DW$393	.dwtag  DW_TAG_TI_branch
	.dwattr $C$DW$393, DW_AT_low_pc(0x00)
	.dwattr $C$DW$393, DW_AT_TI_return

        LRETR     ; [CPU_ALU] 
        ; return occurs ; [] 
	.dwattr $C$DW$390, DW_AT_TI_end_file("../Application/ObjectDictionary2.c")
	.dwattr $C$DW$390, DW_AT_TI_end_line(0x75)
	.dwattr $C$DW$390, DW_AT_TI_end_column(0x01)
	.dwendentry
	.dwendtag $C$DW$390

	.sect	".text:SetFloatPar2PD"
	.clink
	.global	||SetFloatPar2PD||

$C$DW$394	.dwtag  DW_TAG_subprogram
	.dwattr $C$DW$394, DW_AT_name("SetFloatPar2PD")
	.dwattr $C$DW$394, DW_AT_low_pc(||SetFloatPar2PD||)
	.dwattr $C$DW$394, DW_AT_high_pc(0x00)
	.dwattr $C$DW$394, DW_AT_linkage_name("SetFloatPar2PD")
	.dwattr $C$DW$394, DW_AT_external
	.dwattr $C$DW$394, DW_AT_type(*$C$DW$T$13)
	.dwattr $C$DW$394, DW_AT_decl_file("../Application/ObjectDictionary2.c")
	.dwattr $C$DW$394, DW_AT_decl_line(0x7c)
	.dwattr $C$DW$394, DW_AT_decl_column(0x10)
	.dwattr $C$DW$394, DW_AT_TI_max_frame_size(-8)
	.dwpsn	file "../Application/ObjectDictionary2.c",line 125,column 1,is_stmt,address ||SetFloatPar2PD||,isa 0

	.dwfde $C$DW$CIE, ||SetFloatPar2PD||
$C$DW$395	.dwtag  DW_TAG_formal_parameter
	.dwattr $C$DW$395, DW_AT_name("pSdo")
	.dwattr $C$DW$395, DW_AT_type(*$C$DW$T$123)
	.dwattr $C$DW$395, DW_AT_location[DW_OP_reg12]

$C$DW$396	.dwtag  DW_TAG_formal_parameter
	.dwattr $C$DW$396, DW_AT_name("nData")
	.dwattr $C$DW$396, DW_AT_type(*$C$DW$T$9)
	.dwattr $C$DW$396, DW_AT_location[DW_OP_reg0]


;***************************************************************
;* FNAME: SetFloatPar2PD                FR SIZE:   6           *
;*                                                             *
;* FUNCTION ENVIRONMENT                                        *
;*                                                             *
;* FUNCTION PROPERTIES                                         *
;*                            0 Parameter,  6 Auto,  0 SOE     *
;***************************************************************

||SetFloatPar2PD||:
	.dwcfi	cfa_offset, -2
	.dwcfi	save_reg_to_mem, 26, 0
        ADDB      SP,#6                 ; [CPU_ARAU] 
	.dwcfi	cfa_offset, -8
$C$DW$397	.dwtag  DW_TAG_variable
	.dwattr $C$DW$397, DW_AT_name("pSdo")
	.dwattr $C$DW$397, DW_AT_type(*$C$DW$T$123)
	.dwattr $C$DW$397, DW_AT_location[DW_OP_breg20 -2]

$C$DW$398	.dwtag  DW_TAG_variable
	.dwattr $C$DW$398, DW_AT_name("f")
	.dwattr $C$DW$398, DW_AT_type(*$C$DW$T$16)
	.dwattr $C$DW$398, DW_AT_location[DW_OP_breg20 -4]

$C$DW$399	.dwtag  DW_TAG_variable
	.dwattr $C$DW$399, DW_AT_name("nData")
	.dwattr $C$DW$399, DW_AT_type(*$C$DW$T$9)
	.dwattr $C$DW$399, DW_AT_location[DW_OP_breg20 -5]

$C$DW$400	.dwtag  DW_TAG_variable
	.dwattr $C$DW$400, DW_AT_name("si")
	.dwattr $C$DW$400, DW_AT_type(*$C$DW$T$9)
	.dwattr $C$DW$400, DW_AT_location[DW_OP_breg20 -6]

        MOV       *-SP[5],AL            ; [CPU_ALU] |125| 
        MOVL      *-SP[2],XAR4          ; [CPU_ALU] |125| 
	.dwpsn	file "../Application/ObjectDictionary2.c",line 129,column 5,is_stmt,isa 0
        MOV       AL,*+XAR4[3]          ; [CPU_ALU] |129| 
        MOV       *-SP[6],AL            ; [CPU_ALU] |129| 
	.dwpsn	file "../Application/ObjectDictionary2.c",line 130,column 5,is_stmt,isa 0
        MOVB      ACC,#14               ; [CPU_ALU] |130| 
        ADDL      ACC,*-SP[2]           ; [CPU_ALU] |130| 
        MOVL      XAR4,ACC              ; [CPU_ALU] |130| 
        MOVL      XAR4,*+XAR4[0]        ; [CPU_ALU] |130| 
        MOVL      ACC,*+XAR4[0]         ; [CPU_ALU] |130| 
        MOVL      *-SP[4],ACC           ; [CPU_ALU] |130| 
	.dwpsn	file "../Application/ObjectDictionary2.c",line 131,column 5,is_stmt,isa 0
        MOVZ      AR4,SP                ; [CPU_ALU] |131| 
        SUBB      XAR4,#4               ; [CPU_ARAU] |131| 
        MOVZ      AR4,AR4               ; [CPU_ALU] |131| 
$C$DW$401	.dwtag  DW_TAG_TI_branch
	.dwattr $C$DW$401, DW_AT_low_pc(0x00)
	.dwattr $C$DW$401, DW_AT_name("isNan")
	.dwattr $C$DW$401, DW_AT_TI_call

        LCR       #||isNan||            ; [CPU_ALU] |131| 
        ; call occurs [#||isNan||] ; [] |131| 
        CMPB      AL,#0                 ; [CPU_ALU] |131| 
        B         ||$C$L57||,EQ         ; [CPU_ALU] |131| 
        ; branchcc occurs ; [] |131| 
	.dwpsn	file "../Application/ObjectDictionary2.c",line 133,column 9,is_stmt,isa 0
        MOV       AL,#67                ; [CPU_ALU] |133| 
        MOV       AH,#1540              ; [CPU_ALU] |133| 
        B         ||$C$L59||,UNC        ; [CPU_ALU] |133| 
        ; branch occurs ; [] |133| 
||$C$L57||:    
	.dwpsn	file "../Application/ObjectDictionary2.c",line 136,column 5,is_stmt,isa 0
        MOV       AL,*-SP[5]            ; [CPU_ALU] |136| 
        CMPB      AL,#4                 ; [CPU_ALU] |136| 
        B         ||$C$L58||,EQ         ; [CPU_ALU] |136| 
        ; branchcc occurs ; [] |136| 
	.dwpsn	file "../Application/ObjectDictionary2.c",line 137,column 9,is_stmt,isa 0
        MOV       AL,#16                ; [CPU_ALU] |137| 
        MOV       AH,#1543              ; [CPU_ALU] |137| 
        B         ||$C$L59||,UNC        ; [CPU_ALU] |137| 
        ; branch occurs ; [] |137| 
||$C$L58||:    
	.dwpsn	file "../Application/ObjectDictionary2.c",line 139,column 5,is_stmt,isa 0
        MOVZ      AR4,SP                ; [CPU_ALU] |139| 
        MOV       AL,#8712              ; [CPU_ALU] |139| 
        MOV       AH,*-SP[6]            ; [CPU_ALU] |139| 
        MOVB      XAR5,#4               ; [CPU_ALU] |139| 
        SUBB      XAR4,#4               ; [CPU_ARAU] |139| 
        MOVZ      AR4,AR4               ; [CPU_ALU] |139| 
$C$DW$402	.dwtag  DW_TAG_TI_branch
	.dwattr $C$DW$402, DW_AT_low_pc(0x00)
	.dwattr $C$DW$402, DW_AT_name("SendSdo2PD")
	.dwattr $C$DW$402, DW_AT_TI_call

        LCR       #||SendSdo2PD||       ; [CPU_ALU] |139| 
        ; call occurs [#||SendSdo2PD||] ; [] |139| 
||$C$L59||:    
	.dwpsn	file "../Application/ObjectDictionary2.c",line 140,column 1,is_stmt,isa 0
        SUBB      SP,#6                 ; [CPU_ARAU] 
	.dwcfi	cfa_offset, -2
$C$DW$403	.dwtag  DW_TAG_TI_branch
	.dwattr $C$DW$403, DW_AT_low_pc(0x00)
	.dwattr $C$DW$403, DW_AT_TI_return

        LRETR     ; [CPU_ALU] 
        ; return occurs ; [] 
	.dwattr $C$DW$394, DW_AT_TI_end_file("../Application/ObjectDictionary2.c")
	.dwattr $C$DW$394, DW_AT_TI_end_line(0x8c)
	.dwattr $C$DW$394, DW_AT_TI_end_column(0x01)
	.dwendentry
	.dwendtag $C$DW$394

	.sect	".text:GetFloatPar2PD"
	.clink
	.global	||GetFloatPar2PD||

$C$DW$404	.dwtag  DW_TAG_subprogram
	.dwattr $C$DW$404, DW_AT_name("GetFloatPar2PD")
	.dwattr $C$DW$404, DW_AT_low_pc(||GetFloatPar2PD||)
	.dwattr $C$DW$404, DW_AT_high_pc(0x00)
	.dwattr $C$DW$404, DW_AT_linkage_name("GetFloatPar2PD")
	.dwattr $C$DW$404, DW_AT_external
	.dwattr $C$DW$404, DW_AT_type(*$C$DW$T$13)
	.dwattr $C$DW$404, DW_AT_decl_file("../Application/ObjectDictionary2.c")
	.dwattr $C$DW$404, DW_AT_decl_line(0x92)
	.dwattr $C$DW$404, DW_AT_decl_column(0x10)
	.dwattr $C$DW$404, DW_AT_TI_max_frame_size(-12)
	.dwpsn	file "../Application/ObjectDictionary2.c",line 147,column 1,is_stmt,address ||GetFloatPar2PD||,isa 0

	.dwfde $C$DW$CIE, ||GetFloatPar2PD||
$C$DW$405	.dwtag  DW_TAG_formal_parameter
	.dwattr $C$DW$405, DW_AT_name("pSdo")
	.dwattr $C$DW$405, DW_AT_type(*$C$DW$T$123)
	.dwattr $C$DW$405, DW_AT_location[DW_OP_reg12]

$C$DW$406	.dwtag  DW_TAG_formal_parameter
	.dwattr $C$DW$406, DW_AT_name("nData")
	.dwattr $C$DW$406, DW_AT_type(*$C$DW$T$100)
	.dwattr $C$DW$406, DW_AT_location[DW_OP_reg14]


;***************************************************************
;* FNAME: GetFloatPar2PD                FR SIZE:  10           *
;*                                                             *
;* FUNCTION ENVIRONMENT                                        *
;*                                                             *
;* FUNCTION PROPERTIES                                         *
;*                            0 Parameter, 10 Auto,  0 SOE     *
;***************************************************************

||GetFloatPar2PD||:
	.dwcfi	cfa_offset, -2
	.dwcfi	save_reg_to_mem, 26, 0
        ADDB      SP,#10                ; [CPU_ARAU] 
	.dwcfi	cfa_offset, -12
$C$DW$407	.dwtag  DW_TAG_variable
	.dwattr $C$DW$407, DW_AT_name("pSdo")
	.dwattr $C$DW$407, DW_AT_type(*$C$DW$T$123)
	.dwattr $C$DW$407, DW_AT_location[DW_OP_breg20 -2]

$C$DW$408	.dwtag  DW_TAG_variable
	.dwattr $C$DW$408, DW_AT_name("nData")
	.dwattr $C$DW$408, DW_AT_type(*$C$DW$T$100)
	.dwattr $C$DW$408, DW_AT_location[DW_OP_breg20 -4]

$C$DW$409	.dwtag  DW_TAG_variable
	.dwattr $C$DW$409, DW_AT_name("lstat")
	.dwattr $C$DW$409, DW_AT_type(*$C$DW$T$13)
	.dwattr $C$DW$409, DW_AT_location[DW_OP_breg20 -6]

$C$DW$410	.dwtag  DW_TAG_variable
	.dwattr $C$DW$410, DW_AT_name("f")
	.dwattr $C$DW$410, DW_AT_type(*$C$DW$T$16)
	.dwattr $C$DW$410, DW_AT_location[DW_OP_breg20 -8]

$C$DW$411	.dwtag  DW_TAG_variable
	.dwattr $C$DW$411, DW_AT_name("si")
	.dwattr $C$DW$411, DW_AT_type(*$C$DW$T$9)
	.dwattr $C$DW$411, DW_AT_location[DW_OP_breg20 -9]

$C$DW$412	.dwtag  DW_TAG_variable
	.dwattr $C$DW$412, DW_AT_name("nBytes")
	.dwattr $C$DW$412, DW_AT_type(*$C$DW$T$9)
	.dwattr $C$DW$412, DW_AT_location[DW_OP_breg20 -10]

        MOVL      *-SP[4],XAR5          ; [CPU_ALU] |147| 
        MOVL      *-SP[2],XAR4          ; [CPU_ALU] |147| 
	.dwpsn	file "../Application/ObjectDictionary2.c",line 153,column 5,is_stmt,isa 0
        MOV       AL,*+XAR4[3]          ; [CPU_ALU] |153| 
        MOV       *-SP[9],AL            ; [CPU_ALU] |153| 
	.dwpsn	file "../Application/ObjectDictionary2.c",line 154,column 5,is_stmt,isa 0
        MOVB      *-SP[10],#4,UNC       ; [CPU_ALU] |154| 
	.dwpsn	file "../Application/ObjectDictionary2.c",line 156,column 5,is_stmt,isa 0
        MOVZ      AR5,SP                ; [CPU_ALU] |156| 
        MOVZ      AR4,SP                ; [CPU_ALU] |156| 
        MOV       AL,#8712              ; [CPU_ALU] |156| 
        MOV       AH,*-SP[9]            ; [CPU_ALU] |156| 
        SUBB      XAR5,#10              ; [CPU_ARAU] |156| 
        SUBB      XAR4,#8               ; [CPU_ARAU] |156| 
        MOVZ      AR5,AR5               ; [CPU_ALU] |156| 
        MOVZ      AR4,AR4               ; [CPU_ALU] |156| 
$C$DW$413	.dwtag  DW_TAG_TI_branch
	.dwattr $C$DW$413, DW_AT_low_pc(0x00)
	.dwattr $C$DW$413, DW_AT_name("GetSdoFromPD")
	.dwattr $C$DW$413, DW_AT_TI_call

        LCR       #||GetSdoFromPD||     ; [CPU_ALU] |156| 
        ; call occurs [#||GetSdoFromPD||] ; [] |156| 
        MOVL      *-SP[6],ACC           ; [CPU_ALU] |156| 
	.dwpsn	file "../Application/ObjectDictionary2.c",line 157,column 5,is_stmt,isa 0
        MOVL      ACC,*-SP[6]           ; [CPU_ALU] |157| 
        B         ||$C$L60||,EQ         ; [CPU_ALU] |157| 
        ; branchcc occurs ; [] |157| 
	.dwpsn	file "../Application/ObjectDictionary2.c",line 157,column 18,is_stmt,isa 0
        MOVL      ACC,*-SP[6]           ; [CPU_ALU] |157| 
        B         ||$C$L61||,UNC        ; [CPU_ALU] |157| 
        ; branch occurs ; [] |157| 
||$C$L60||:    
	.dwpsn	file "../Application/ObjectDictionary2.c",line 159,column 5,is_stmt,isa 0
        MOVL      XAR4,*-SP[4]          ; [CPU_ALU] |159| 
        MOVB      *+XAR4[0],#4,UNC      ; [CPU_ALU] |159| 
	.dwpsn	file "../Application/ObjectDictionary2.c",line 160,column 5,is_stmt,isa 0
        MOVB      ACC,#14               ; [CPU_ALU] |160| 
        ADDL      ACC,*-SP[2]           ; [CPU_ALU] |160| 
        MOVL      XAR4,ACC              ; [CPU_ALU] |160| 
        MOVL      XAR6,*-SP[8]          ; [CPU_ALU] |160| 
        MOVL      XAR4,*+XAR4[0]        ; [CPU_ALU] |160| 
        MOVL      *+XAR4[0],XAR6        ; [CPU_ALU] |160| 
	.dwpsn	file "../Application/ObjectDictionary2.c",line 162,column 5,is_stmt,isa 0
        MOVB      ACC,#0                ; [CPU_ALU] |162| 
||$C$L61||:    
	.dwpsn	file "../Application/ObjectDictionary2.c",line 163,column 1,is_stmt,isa 0
        SUBB      SP,#10                ; [CPU_ARAU] 
	.dwcfi	cfa_offset, -2
$C$DW$414	.dwtag  DW_TAG_TI_branch
	.dwattr $C$DW$414, DW_AT_low_pc(0x00)
	.dwattr $C$DW$414, DW_AT_TI_return

        LRETR     ; [CPU_ALU] 
        ; return occurs ; [] 
	.dwattr $C$DW$404, DW_AT_TI_end_file("../Application/ObjectDictionary2.c")
	.dwattr $C$DW$404, DW_AT_TI_end_line(0xa3)
	.dwattr $C$DW$404, DW_AT_TI_end_column(0x01)
	.dwendentry
	.dwendtag $C$DW$404

	.sect	".text:SetPDCmdDef"
	.clink
	.global	||SetPDCmdDef||

$C$DW$415	.dwtag  DW_TAG_subprogram
	.dwattr $C$DW$415, DW_AT_name("SetPDCmdDef")
	.dwattr $C$DW$415, DW_AT_low_pc(||SetPDCmdDef||)
	.dwattr $C$DW$415, DW_AT_high_pc(0x00)
	.dwattr $C$DW$415, DW_AT_linkage_name("SetPDCmdDef")
	.dwattr $C$DW$415, DW_AT_external
	.dwattr $C$DW$415, DW_AT_type(*$C$DW$T$13)
	.dwattr $C$DW$415, DW_AT_decl_file("../Application/ObjectDictionary2.c")
	.dwattr $C$DW$415, DW_AT_decl_line(0xae)
	.dwattr $C$DW$415, DW_AT_decl_column(0x10)
	.dwattr $C$DW$415, DW_AT_TI_max_frame_size(-8)
	.dwpsn	file "../Application/ObjectDictionary2.c",line 175,column 1,is_stmt,address ||SetPDCmdDef||,isa 0

	.dwfde $C$DW$CIE, ||SetPDCmdDef||
$C$DW$416	.dwtag  DW_TAG_formal_parameter
	.dwattr $C$DW$416, DW_AT_name("pSdo")
	.dwattr $C$DW$416, DW_AT_type(*$C$DW$T$123)
	.dwattr $C$DW$416, DW_AT_location[DW_OP_reg12]

$C$DW$417	.dwtag  DW_TAG_formal_parameter
	.dwattr $C$DW$417, DW_AT_name("nData")
	.dwattr $C$DW$417, DW_AT_type(*$C$DW$T$9)
	.dwattr $C$DW$417, DW_AT_location[DW_OP_reg0]


;***************************************************************
;* FNAME: SetPDCmdDef                   FR SIZE:   6           *
;*                                                             *
;* FUNCTION ENVIRONMENT                                        *
;*                                                             *
;* FUNCTION PROPERTIES                                         *
;*                            0 Parameter,  5 Auto,  0 SOE     *
;***************************************************************

||SetPDCmdDef||:
	.dwcfi	cfa_offset, -2
	.dwcfi	save_reg_to_mem, 26, 0
        ADDB      SP,#6                 ; [CPU_ARAU] 
	.dwcfi	cfa_offset, -8
$C$DW$418	.dwtag  DW_TAG_variable
	.dwattr $C$DW$418, DW_AT_name("pSdo")
	.dwattr $C$DW$418, DW_AT_type(*$C$DW$T$123)
	.dwattr $C$DW$418, DW_AT_location[DW_OP_breg20 -2]

$C$DW$419	.dwtag  DW_TAG_variable
	.dwattr $C$DW$419, DW_AT_name("nData")
	.dwattr $C$DW$419, DW_AT_type(*$C$DW$T$9)
	.dwattr $C$DW$419, DW_AT_location[DW_OP_breg20 -3]

$C$DW$420	.dwtag  DW_TAG_variable
	.dwattr $C$DW$420, DW_AT_name("si")
	.dwattr $C$DW$420, DW_AT_type(*$C$DW$T$9)
	.dwattr $C$DW$420, DW_AT_location[DW_OP_breg20 -4]

$C$DW$421	.dwtag  DW_TAG_variable
	.dwattr $C$DW$421, DW_AT_name("us")
	.dwattr $C$DW$421, DW_AT_type(*$C$DW$T$9)
	.dwattr $C$DW$421, DW_AT_location[DW_OP_breg20 -5]

        MOV       *-SP[3],AL            ; [CPU_ALU] |175| 
        MOVL      *-SP[2],XAR4          ; [CPU_ALU] |175| 
	.dwpsn	file "../Application/ObjectDictionary2.c",line 178,column 5,is_stmt,isa 0
	.dwpsn	file "../Application/ObjectDictionary2.c",line 179,column 5,is_stmt,isa 0
        MOV       AL,*+XAR4[3]          ; [CPU_ALU] |179| 
        MOV       *-SP[4],AL            ; [CPU_ALU] |179| 
	.dwpsn	file "../Application/ObjectDictionary2.c",line 180,column 5,is_stmt,isa 0
        B         ||$C$L62||,EQ         ; [CPU_ALU] |180| 
        ; branchcc occurs ; [] |180| 
        CMPB      AL,#5                 ; [CPU_ALU] |180| 
        B         ||$C$L63||,LOS        ; [CPU_ALU] |180| 
        ; branchcc occurs ; [] |180| 
||$C$L62||:    
	.dwpsn	file "../Application/ObjectDictionary2.c",line 182,column 9,is_stmt,isa 0
        MOV       AL,#17                ; [CPU_ALU] |182| 
        MOV       AH,#1545              ; [CPU_ALU] |182| 
        B         ||$C$L67||,UNC        ; [CPU_ALU] |182| 
        ; branch occurs ; [] |182| 
||$C$L63||:    
	.dwpsn	file "../Application/ObjectDictionary2.c",line 184,column 5,is_stmt,isa 0
        MOV       AL,*-SP[3]            ; [CPU_ALU] |184| 
        CMPB      AL,#2                 ; [CPU_ALU] |184| 
        B         ||$C$L64||,EQ         ; [CPU_ALU] |184| 
        ; branchcc occurs ; [] |184| 
	.dwpsn	file "../Application/ObjectDictionary2.c",line 186,column 9,is_stmt,isa 0
        MOV       AL,#67                ; [CPU_ALU] |186| 
        MOV       AH,#1540              ; [CPU_ALU] |186| 
        B         ||$C$L67||,UNC        ; [CPU_ALU] |186| 
        ; branch occurs ; [] |186| 
||$C$L64||:    
	.dwpsn	file "../Application/ObjectDictionary2.c",line 188,column 5,is_stmt,isa 0
        MOVB      ACC,#14               ; [CPU_ALU] |188| 
        ADDL      ACC,*-SP[2]           ; [CPU_ALU] |188| 
        MOVL      XAR4,ACC              ; [CPU_ALU] |188| 
        MOVL      XAR7,*+XAR4[0]        ; [CPU_ALU] |188| 
        MOV       AL,*+XAR7[0]          ; [CPU_ALU] |188| 
        MOV       *-SP[5],AL            ; [CPU_ALU] |188| 
	.dwpsn	file "../Application/ObjectDictionary2.c",line 189,column 5,is_stmt,isa 0
        B         ||$C$L65||,EQ         ; [CPU_ALU] |189| 
        ; branchcc occurs ; [] |189| 
        CMP       AL,#32768             ; [CPU_ALU] |189| 
        B         ||$C$L66||,LOS        ; [CPU_ALU] |189| 
        ; branchcc occurs ; [] |189| 
||$C$L65||:    
	.dwpsn	file "../Application/ObjectDictionary2.c",line 191,column 9,is_stmt,isa 0
        MOV       AL,#67                ; [CPU_ALU] |191| 
        MOV       AH,#1540              ; [CPU_ALU] |191| 
        B         ||$C$L67||,UNC        ; [CPU_ALU] |191| 
        ; branch occurs ; [] |191| 
||$C$L66||:    
	.dwpsn	file "../Application/ObjectDictionary2.c",line 193,column 5,is_stmt,isa 0
        MOVZ      AR0,*-SP[4]           ; [CPU_ALU] |193| 
        MOVL      XAR4,#||PdSlaveObjectMap|| ; [CPU_ARAU] |193| 
        SUBB      XAR0,#1               ; [CPU_ARAU] |193| 
        MOV       *+XAR4[AR0],AL        ; [CPU_ALU] |193| 
	.dwpsn	file "../Application/ObjectDictionary2.c",line 194,column 5,is_stmt,isa 0
        MOVB      ACC,#0                ; [CPU_ALU] |194| 
||$C$L67||:    
	.dwpsn	file "../Application/ObjectDictionary2.c",line 195,column 1,is_stmt,isa 0
        SUBB      SP,#6                 ; [CPU_ARAU] 
	.dwcfi	cfa_offset, -2
$C$DW$422	.dwtag  DW_TAG_TI_branch
	.dwattr $C$DW$422, DW_AT_low_pc(0x00)
	.dwattr $C$DW$422, DW_AT_TI_return

        LRETR     ; [CPU_ALU] 
        ; return occurs ; [] 
	.dwattr $C$DW$415, DW_AT_TI_end_file("../Application/ObjectDictionary2.c")
	.dwattr $C$DW$415, DW_AT_TI_end_line(0xc3)
	.dwattr $C$DW$415, DW_AT_TI_end_column(0x01)
	.dwendentry
	.dwendtag $C$DW$415

	.sect	".text:SetPD2209"
	.clink
	.global	||SetPD2209||

$C$DW$423	.dwtag  DW_TAG_subprogram
	.dwattr $C$DW$423, DW_AT_name("SetPD2209")
	.dwattr $C$DW$423, DW_AT_low_pc(||SetPD2209||)
	.dwattr $C$DW$423, DW_AT_high_pc(0x00)
	.dwattr $C$DW$423, DW_AT_linkage_name("SetPD2209")
	.dwattr $C$DW$423, DW_AT_external
	.dwattr $C$DW$423, DW_AT_type(*$C$DW$T$13)
	.dwattr $C$DW$423, DW_AT_decl_file("../Application/ObjectDictionary2.c")
	.dwattr $C$DW$423, DW_AT_decl_line(0xca)
	.dwattr $C$DW$423, DW_AT_decl_column(0x10)
	.dwattr $C$DW$423, DW_AT_TI_max_frame_size(-8)
	.dwpsn	file "../Application/ObjectDictionary2.c",line 203,column 1,is_stmt,address ||SetPD2209||,isa 0

	.dwfde $C$DW$CIE, ||SetPD2209||
$C$DW$424	.dwtag  DW_TAG_formal_parameter
	.dwattr $C$DW$424, DW_AT_name("pSdo")
	.dwattr $C$DW$424, DW_AT_type(*$C$DW$T$123)
	.dwattr $C$DW$424, DW_AT_location[DW_OP_reg12]

$C$DW$425	.dwtag  DW_TAG_formal_parameter
	.dwattr $C$DW$425, DW_AT_name("nData")
	.dwattr $C$DW$425, DW_AT_type(*$C$DW$T$9)
	.dwattr $C$DW$425, DW_AT_location[DW_OP_reg0]


;***************************************************************
;* FNAME: SetPD2209                     FR SIZE:   6           *
;*                                                             *
;* FUNCTION ENVIRONMENT                                        *
;*                                                             *
;* FUNCTION PROPERTIES                                         *
;*                            0 Parameter,  5 Auto,  0 SOE     *
;***************************************************************

||SetPD2209||:
	.dwcfi	cfa_offset, -2
	.dwcfi	save_reg_to_mem, 26, 0
        ADDB      SP,#6                 ; [CPU_ARAU] 
	.dwcfi	cfa_offset, -8
$C$DW$426	.dwtag  DW_TAG_variable
	.dwattr $C$DW$426, DW_AT_name("pSdo")
	.dwattr $C$DW$426, DW_AT_type(*$C$DW$T$123)
	.dwattr $C$DW$426, DW_AT_location[DW_OP_breg20 -2]

$C$DW$427	.dwtag  DW_TAG_variable
	.dwattr $C$DW$427, DW_AT_name("stat")
	.dwattr $C$DW$427, DW_AT_type(*$C$DW$T$13)
	.dwattr $C$DW$427, DW_AT_location[DW_OP_breg20 -4]

$C$DW$428	.dwtag  DW_TAG_variable
	.dwattr $C$DW$428, DW_AT_name("nData")
	.dwattr $C$DW$428, DW_AT_type(*$C$DW$T$9)
	.dwattr $C$DW$428, DW_AT_location[DW_OP_breg20 -5]

        MOV       *-SP[5],AL            ; [CPU_ALU] |203| 
        MOVL      *-SP[2],XAR4          ; [CPU_ALU] |203| 
	.dwpsn	file "../Application/ObjectDictionary2.c",line 205,column 5,is_stmt,isa 0
        MOVB      ACC,#14               ; [CPU_ALU] |205| 
        MOVL      XAR5,*-SP[2]          ; [CPU_ALU] |205| 
        ADDL      ACC,*-SP[2]           ; [CPU_ALU] |205| 
        MOVL      XAR4,ACC              ; [CPU_ALU] |205| 
        MOV       AL,#8713              ; [CPU_ALU] |205| 
        MOV       AH,*+XAR5[3]          ; [CPU_ALU] |205| 
        MOVL      XAR4,*+XAR4[0]        ; [CPU_ALU] |205| 
        MOVZ      AR5,*-SP[5]           ; [CPU_ALU] |205| 
$C$DW$429	.dwtag  DW_TAG_TI_branch
	.dwattr $C$DW$429, DW_AT_low_pc(0x00)
	.dwattr $C$DW$429, DW_AT_name("SendSdo2PD")
	.dwattr $C$DW$429, DW_AT_TI_call

        LCR       #||SendSdo2PD||       ; [CPU_ALU] |205| 
        ; call occurs [#||SendSdo2PD||] ; [] |205| 
        MOVL      *-SP[4],ACC           ; [CPU_ALU] |205| 
	.dwpsn	file "../Application/ObjectDictionary2.c",line 206,column 5,is_stmt,isa 0
	.dwpsn	file "../Application/ObjectDictionary2.c",line 207,column 1,is_stmt,isa 0
        SUBB      SP,#6                 ; [CPU_ARAU] 
	.dwcfi	cfa_offset, -2
$C$DW$430	.dwtag  DW_TAG_TI_branch
	.dwattr $C$DW$430, DW_AT_low_pc(0x00)
	.dwattr $C$DW$430, DW_AT_TI_return

        LRETR     ; [CPU_ALU] 
        ; return occurs ; [] 
	.dwattr $C$DW$423, DW_AT_TI_end_file("../Application/ObjectDictionary2.c")
	.dwattr $C$DW$423, DW_AT_TI_end_line(0xcf)
	.dwattr $C$DW$423, DW_AT_TI_end_column(0x01)
	.dwendentry
	.dwendtag $C$DW$423

	.sect	".text:SetPDCommand1"
	.clink
	.global	||SetPDCommand1||

$C$DW$431	.dwtag  DW_TAG_subprogram
	.dwattr $C$DW$431, DW_AT_name("SetPDCommand1")
	.dwattr $C$DW$431, DW_AT_low_pc(||SetPDCommand1||)
	.dwattr $C$DW$431, DW_AT_high_pc(0x00)
	.dwattr $C$DW$431, DW_AT_linkage_name("SetPDCommand1")
	.dwattr $C$DW$431, DW_AT_external
	.dwattr $C$DW$431, DW_AT_type(*$C$DW$T$13)
	.dwattr $C$DW$431, DW_AT_decl_file("../Application/ObjectDictionary2.c")
	.dwattr $C$DW$431, DW_AT_decl_line(0xd6)
	.dwattr $C$DW$431, DW_AT_decl_column(0x10)
	.dwattr $C$DW$431, DW_AT_TI_max_frame_size(-8)
